ARM GAS  /tmp/ccP9B4zy.s 			page 1


   1              		.cpu cortex-m4
   2              		.arch armv7e-m
   3              		.fpu fpv4-sp-d16
   4              		.eabi_attribute 27, 1
   5              		.eabi_attribute 28, 1
   6              		.eabi_attribute 20, 1
   7              		.eabi_attribute 21, 1
   8              		.eabi_attribute 23, 3
   9              		.eabi_attribute 24, 1
  10              		.eabi_attribute 25, 1
  11              		.eabi_attribute 26, 1
  12              		.eabi_attribute 30, 1
  13              		.eabi_attribute 34, 1
  14              		.eabi_attribute 18, 4
  15              		.file	"bno055.c"
  16              		.text
  17              	.Ltext0:
  18              		.cfi_sections	.debug_frame
  19              		.file 1 "/home/dat/Documents/colir_one/rocket_code/Module/Src/bno055.c"
  20              		.section	.text.bno055_writeData,"ax",%progbits
  21              		.align	1
  22              		.syntax unified
  23              		.thumb
  24              		.thumb_func
  26              	bno055_writeData:
  27              	.LVL0:
  28              	.LFB139:
   1:/home/dat/Documents/colir_one/rocket_code/Module/Src/bno055.c **** #include "bno055.h"
   2:/home/dat/Documents/colir_one/rocket_code/Module/Src/bno055.c **** #include <string.h>
   3:/home/dat/Documents/colir_one/rocket_code/Module/Src/bno055.c **** #include <stm32f4xx_hal_i2c.h>
   4:/home/dat/Documents/colir_one/rocket_code/Module/Src/bno055.c **** 
   5:/home/dat/Documents/colir_one/rocket_code/Module/Src/bno055.c **** uint16_t accelScale = 100;
   6:/home/dat/Documents/colir_one/rocket_code/Module/Src/bno055.c **** uint16_t tempScale = 1;
   7:/home/dat/Documents/colir_one/rocket_code/Module/Src/bno055.c **** uint16_t angularRateScale = 16;
   8:/home/dat/Documents/colir_one/rocket_code/Module/Src/bno055.c **** uint16_t eulerScale = 16;
   9:/home/dat/Documents/colir_one/rocket_code/Module/Src/bno055.c **** uint16_t magScale = 16;
  10:/home/dat/Documents/colir_one/rocket_code/Module/Src/bno055.c **** uint16_t quaScale = (1<<14);    // 2^14
  11:/home/dat/Documents/colir_one/rocket_code/Module/Src/bno055.c **** 
  12:/home/dat/Documents/colir_one/rocket_code/Module/Src/bno055.c **** I2C_HandleTypeDef *_bno055_i2c_port;
  13:/home/dat/Documents/colir_one/rocket_code/Module/Src/bno055.c **** 
  14:/home/dat/Documents/colir_one/rocket_code/Module/Src/bno055.c **** void bno055_assignI2C(I2C_HandleTypeDef *hi2c_device) {
  15:/home/dat/Documents/colir_one/rocket_code/Module/Src/bno055.c ****   _bno055_i2c_port = hi2c_device;
  16:/home/dat/Documents/colir_one/rocket_code/Module/Src/bno055.c **** }
  17:/home/dat/Documents/colir_one/rocket_code/Module/Src/bno055.c **** 
  18:/home/dat/Documents/colir_one/rocket_code/Module/Src/bno055.c **** static void bno055_delay(int time) {
  19:/home/dat/Documents/colir_one/rocket_code/Module/Src/bno055.c **** #ifdef FREERTOS_ENABLED
  20:/home/dat/Documents/colir_one/rocket_code/Module/Src/bno055.c ****   osDelay(time);
  21:/home/dat/Documents/colir_one/rocket_code/Module/Src/bno055.c **** #else
  22:/home/dat/Documents/colir_one/rocket_code/Module/Src/bno055.c ****   HAL_Delay(time);
  23:/home/dat/Documents/colir_one/rocket_code/Module/Src/bno055.c **** #endif
  24:/home/dat/Documents/colir_one/rocket_code/Module/Src/bno055.c **** }
  25:/home/dat/Documents/colir_one/rocket_code/Module/Src/bno055.c **** 
  26:/home/dat/Documents/colir_one/rocket_code/Module/Src/bno055.c **** static HAL_StatusTypeDef bno055_writeData(uint8_t reg, uint8_t data) {
  29              		.loc 1 26 70 view -0
  30              		.cfi_startproc
  31              		@ args = 0, pretend = 0, frame = 8
  32              		@ frame_needed = 0, uses_anonymous_args = 0
ARM GAS  /tmp/ccP9B4zy.s 			page 2


  33              		.loc 1 26 70 is_stmt 0 view .LVU1
  34 0000 00B5     		push	{lr}
  35              	.LCFI0:
  36              		.cfi_def_cfa_offset 4
  37              		.cfi_offset 14, -4
  38 0002 85B0     		sub	sp, sp, #20
  39              	.LCFI1:
  40              		.cfi_def_cfa_offset 24
  27:/home/dat/Documents/colir_one/rocket_code/Module/Src/bno055.c ****   uint8_t txdata[2] = {reg, data};
  41              		.loc 1 27 3 is_stmt 1 view .LVU2
  42              		.loc 1 27 11 is_stmt 0 view .LVU3
  43 0004 8DF80C00 		strb	r0, [sp, #12]
  44 0008 8DF80D10 		strb	r1, [sp, #13]
  28:/home/dat/Documents/colir_one/rocket_code/Module/Src/bno055.c ****   HAL_StatusTypeDef status;
  45              		.loc 1 28 3 is_stmt 1 view .LVU4
  29:/home/dat/Documents/colir_one/rocket_code/Module/Src/bno055.c ****   status = HAL_I2C_Master_Transmit(_bno055_i2c_port, BNO055_I2C_ADDR << 1,
  46              		.loc 1 29 3 view .LVU5
  47              		.loc 1 29 12 is_stmt 0 view .LVU6
  48 000c 0A23     		movs	r3, #10
  49 000e 0093     		str	r3, [sp]
  50 0010 0223     		movs	r3, #2
  51 0012 03AA     		add	r2, sp, #12
  52 0014 5021     		movs	r1, #80
  53              	.LVL1:
  54              		.loc 1 29 12 view .LVU7
  55 0016 0348     		ldr	r0, .L3
  56              	.LVL2:
  57              		.loc 1 29 12 view .LVU8
  58 0018 0068     		ldr	r0, [r0]
  59 001a FFF7FEFF 		bl	HAL_I2C_Master_Transmit
  60              	.LVL3:
  30:/home/dat/Documents/colir_one/rocket_code/Module/Src/bno055.c ****                                    txdata, sizeof(txdata), 10);
  31:/home/dat/Documents/colir_one/rocket_code/Module/Src/bno055.c ****   return status;
  61              		.loc 1 31 3 is_stmt 1 view .LVU9
  32:/home/dat/Documents/colir_one/rocket_code/Module/Src/bno055.c **** }
  62              		.loc 1 32 1 is_stmt 0 view .LVU10
  63 001e 05B0     		add	sp, sp, #20
  64              	.LCFI2:
  65              		.cfi_def_cfa_offset 4
  66              		@ sp needed
  67 0020 5DF804FB 		ldr	pc, [sp], #4
  68              	.L4:
  69              		.align	2
  70              	.L3:
  71 0024 00000000 		.word	_bno055_i2c_port
  72              		.cfi_endproc
  73              	.LFE139:
  75              		.section	.text.bno055_setPage,"ax",%progbits
  76              		.align	1
  77              		.syntax unified
  78              		.thumb
  79              		.thumb_func
  81              	bno055_setPage:
  82              	.LVL4:
  83              	.LFB141:
  33:/home/dat/Documents/colir_one/rocket_code/Module/Src/bno055.c **** 
  34:/home/dat/Documents/colir_one/rocket_code/Module/Src/bno055.c **** static HAL_StatusTypeDef bno055_readData(uint8_t reg, uint8_t *data, uint8_t len) {
ARM GAS  /tmp/ccP9B4zy.s 			page 3


  35:/home/dat/Documents/colir_one/rocket_code/Module/Src/bno055.c ****   HAL_StatusTypeDef status = HAL_OK;
  36:/home/dat/Documents/colir_one/rocket_code/Module/Src/bno055.c ****   status |= HAL_I2C_Master_Transmit(_bno055_i2c_port, BNO055_I2C_ADDR << 1, &reg, 1,
  37:/home/dat/Documents/colir_one/rocket_code/Module/Src/bno055.c ****                           100);
  38:/home/dat/Documents/colir_one/rocket_code/Module/Src/bno055.c ****   status |= HAL_I2C_Master_Receive(_bno055_i2c_port, BNO055_I2C_ADDR << 1, data, len,
  39:/home/dat/Documents/colir_one/rocket_code/Module/Src/bno055.c ****                          100);
  40:/home/dat/Documents/colir_one/rocket_code/Module/Src/bno055.c ****   return status;
  41:/home/dat/Documents/colir_one/rocket_code/Module/Src/bno055.c **** }
  42:/home/dat/Documents/colir_one/rocket_code/Module/Src/bno055.c **** 
  43:/home/dat/Documents/colir_one/rocket_code/Module/Src/bno055.c **** 
  44:/home/dat/Documents/colir_one/rocket_code/Module/Src/bno055.c **** static HAL_StatusTypeDef bno055_setPage(uint8_t page) { 
  84              		.loc 1 44 55 is_stmt 1 view -0
  85              		.cfi_startproc
  86              		@ args = 0, pretend = 0, frame = 0
  87              		@ frame_needed = 0, uses_anonymous_args = 0
  88              		.loc 1 44 55 is_stmt 0 view .LVU12
  89 0000 08B5     		push	{r3, lr}
  90              	.LCFI3:
  91              		.cfi_def_cfa_offset 8
  92              		.cfi_offset 3, -8
  93              		.cfi_offset 14, -4
  94 0002 0146     		mov	r1, r0
  45:/home/dat/Documents/colir_one/rocket_code/Module/Src/bno055.c ****   HAL_StatusTypeDef status = bno055_writeData(BNO055_PAGE_ID, page); 
  95              		.loc 1 45 3 is_stmt 1 view .LVU13
  96              		.loc 1 45 30 is_stmt 0 view .LVU14
  97 0004 0720     		movs	r0, #7
  98              	.LVL5:
  99              		.loc 1 45 30 view .LVU15
 100 0006 FFF7FEFF 		bl	bno055_writeData
 101              	.LVL6:
  46:/home/dat/Documents/colir_one/rocket_code/Module/Src/bno055.c ****   return status;
 102              		.loc 1 46 3 is_stmt 1 view .LVU16
  47:/home/dat/Documents/colir_one/rocket_code/Module/Src/bno055.c **** }
 103              		.loc 1 47 1 is_stmt 0 view .LVU17
 104 000a 08BD     		pop	{r3, pc}
 105              		.cfi_endproc
 106              	.LFE141:
 108              		.section	.text.bno055_readData,"ax",%progbits
 109              		.align	1
 110              		.syntax unified
 111              		.thumb
 112              		.thumb_func
 114              	bno055_readData:
 115              	.LVL7:
 116              	.LFB140:
  34:/home/dat/Documents/colir_one/rocket_code/Module/Src/bno055.c ****   HAL_StatusTypeDef status = HAL_OK;
 117              		.loc 1 34 83 is_stmt 1 view -0
 118              		.cfi_startproc
 119              		@ args = 0, pretend = 0, frame = 8
 120              		@ frame_needed = 0, uses_anonymous_args = 0
  34:/home/dat/Documents/colir_one/rocket_code/Module/Src/bno055.c ****   HAL_StatusTypeDef status = HAL_OK;
 121              		.loc 1 34 83 is_stmt 0 view .LVU19
 122 0000 2DE9F041 		push	{r4, r5, r6, r7, r8, lr}
 123              	.LCFI4:
 124              		.cfi_def_cfa_offset 24
 125              		.cfi_offset 4, -24
 126              		.cfi_offset 5, -20
 127              		.cfi_offset 6, -16
ARM GAS  /tmp/ccP9B4zy.s 			page 4


 128              		.cfi_offset 7, -12
 129              		.cfi_offset 8, -8
 130              		.cfi_offset 14, -4
 131 0004 84B0     		sub	sp, sp, #16
 132              	.LCFI5:
 133              		.cfi_def_cfa_offset 40
 134 0006 0D46     		mov	r5, r1
 135 0008 1646     		mov	r6, r2
 136 000a 8DF80F00 		strb	r0, [sp, #15]
  35:/home/dat/Documents/colir_one/rocket_code/Module/Src/bno055.c ****   status |= HAL_I2C_Master_Transmit(_bno055_i2c_port, BNO055_I2C_ADDR << 1, &reg, 1,
 137              		.loc 1 35 3 is_stmt 1 view .LVU20
 138              	.LVL8:
  36:/home/dat/Documents/colir_one/rocket_code/Module/Src/bno055.c ****                           100);
 139              		.loc 1 36 3 view .LVU21
  36:/home/dat/Documents/colir_one/rocket_code/Module/Src/bno055.c ****                           100);
 140              		.loc 1 36 13 is_stmt 0 view .LVU22
 141 000e 0D4F     		ldr	r7, .L9
 142 0010 4FF06408 		mov	r8, #100
 143 0014 CDF80080 		str	r8, [sp]
 144 0018 0123     		movs	r3, #1
 145 001a 0DF10F02 		add	r2, sp, #15
 146              	.LVL9:
  36:/home/dat/Documents/colir_one/rocket_code/Module/Src/bno055.c ****                           100);
 147              		.loc 1 36 13 view .LVU23
 148 001e 5021     		movs	r1, #80
 149              	.LVL10:
  36:/home/dat/Documents/colir_one/rocket_code/Module/Src/bno055.c ****                           100);
 150              		.loc 1 36 13 view .LVU24
 151 0020 3868     		ldr	r0, [r7]
 152              	.LVL11:
  36:/home/dat/Documents/colir_one/rocket_code/Module/Src/bno055.c ****                           100);
 153              		.loc 1 36 13 view .LVU25
 154 0022 FFF7FEFF 		bl	HAL_I2C_Master_Transmit
 155              	.LVL12:
  36:/home/dat/Documents/colir_one/rocket_code/Module/Src/bno055.c ****                           100);
 156              		.loc 1 36 13 view .LVU26
 157 0026 0446     		mov	r4, r0
 158              	.LVL13:
  38:/home/dat/Documents/colir_one/rocket_code/Module/Src/bno055.c ****                          100);
 159              		.loc 1 38 3 is_stmt 1 view .LVU27
  38:/home/dat/Documents/colir_one/rocket_code/Module/Src/bno055.c ****                          100);
 160              		.loc 1 38 13 is_stmt 0 view .LVU28
 161 0028 CDF80080 		str	r8, [sp]
 162 002c 3346     		mov	r3, r6
 163 002e 2A46     		mov	r2, r5
 164 0030 5021     		movs	r1, #80
 165 0032 3868     		ldr	r0, [r7]
 166 0034 FFF7FEFF 		bl	HAL_I2C_Master_Receive
 167              	.LVL14:
  38:/home/dat/Documents/colir_one/rocket_code/Module/Src/bno055.c ****                          100);
 168              		.loc 1 38 10 discriminator 1 view .LVU29
 169 0038 2043     		orrs	r0, r0, r4
 170              	.LVL15:
  40:/home/dat/Documents/colir_one/rocket_code/Module/Src/bno055.c **** }
 171              		.loc 1 40 3 is_stmt 1 view .LVU30
  41:/home/dat/Documents/colir_one/rocket_code/Module/Src/bno055.c **** 
 172              		.loc 1 41 1 is_stmt 0 view .LVU31
ARM GAS  /tmp/ccP9B4zy.s 			page 5


 173 003a C0B2     		uxtb	r0, r0
  41:/home/dat/Documents/colir_one/rocket_code/Module/Src/bno055.c **** 
 174              		.loc 1 41 1 view .LVU32
 175 003c 04B0     		add	sp, sp, #16
 176              	.LCFI6:
 177              		.cfi_def_cfa_offset 24
 178              		@ sp needed
 179 003e BDE8F081 		pop	{r4, r5, r6, r7, r8, pc}
 180              	.LVL16:
 181              	.L10:
  41:/home/dat/Documents/colir_one/rocket_code/Module/Src/bno055.c **** 
 182              		.loc 1 41 1 view .LVU33
 183 0042 00BF     		.align	2
 184              	.L9:
 185 0044 00000000 		.word	_bno055_i2c_port
 186              		.cfi_endproc
 187              	.LFE140:
 189              		.global	__aeabi_ui2d
 190              		.global	__aeabi_i2d
 191              		.global	__aeabi_ddiv
 192              		.section	.text.bno055_getVector,"ax",%progbits
 193              		.align	1
 194              		.syntax unified
 195              		.thumb
 196              		.thumb_func
 198              	bno055_getVector:
 199              	.LVL17:
 200              	.LFB160:
  48:/home/dat/Documents/colir_one/rocket_code/Module/Src/bno055.c **** 
  49:/home/dat/Documents/colir_one/rocket_code/Module/Src/bno055.c **** HAL_StatusTypeDef bno055_getOperationMode(bno055_opmode_t *mode) {
  50:/home/dat/Documents/colir_one/rocket_code/Module/Src/bno055.c ****   // bno055_opmode_t mode;
  51:/home/dat/Documents/colir_one/rocket_code/Module/Src/bno055.c ****   HAL_StatusTypeDef status= bno055_readData(BNO055_OPR_MODE, mode, 1);
  52:/home/dat/Documents/colir_one/rocket_code/Module/Src/bno055.c ****   return status;
  53:/home/dat/Documents/colir_one/rocket_code/Module/Src/bno055.c **** }
  54:/home/dat/Documents/colir_one/rocket_code/Module/Src/bno055.c **** 
  55:/home/dat/Documents/colir_one/rocket_code/Module/Src/bno055.c **** HAL_StatusTypeDef bno055_setOperationMode(bno055_opmode_t mode) {
  56:/home/dat/Documents/colir_one/rocket_code/Module/Src/bno055.c ****   HAL_StatusTypeDef status = bno055_writeData(BNO055_OPR_MODE, mode);
  57:/home/dat/Documents/colir_one/rocket_code/Module/Src/bno055.c ****   if (mode == BNO055_OPERATION_MODE_CONFIG) {
  58:/home/dat/Documents/colir_one/rocket_code/Module/Src/bno055.c ****     bno055_delay(19);
  59:/home/dat/Documents/colir_one/rocket_code/Module/Src/bno055.c ****   } else {
  60:/home/dat/Documents/colir_one/rocket_code/Module/Src/bno055.c ****     bno055_delay(7);
  61:/home/dat/Documents/colir_one/rocket_code/Module/Src/bno055.c ****   }
  62:/home/dat/Documents/colir_one/rocket_code/Module/Src/bno055.c ****   return status;
  63:/home/dat/Documents/colir_one/rocket_code/Module/Src/bno055.c **** }
  64:/home/dat/Documents/colir_one/rocket_code/Module/Src/bno055.c **** 
  65:/home/dat/Documents/colir_one/rocket_code/Module/Src/bno055.c **** HAL_StatusTypeDef bno055_setOperationModeConfig(void) {
  66:/home/dat/Documents/colir_one/rocket_code/Module/Src/bno055.c ****   HAL_StatusTypeDef status =  bno055_setOperationMode(BNO055_OPERATION_MODE_CONFIG);
  67:/home/dat/Documents/colir_one/rocket_code/Module/Src/bno055.c ****   return status;
  68:/home/dat/Documents/colir_one/rocket_code/Module/Src/bno055.c **** }
  69:/home/dat/Documents/colir_one/rocket_code/Module/Src/bno055.c **** 
  70:/home/dat/Documents/colir_one/rocket_code/Module/Src/bno055.c **** HAL_StatusTypeDef bno055_setOperationModeNDOF(void) {
  71:/home/dat/Documents/colir_one/rocket_code/Module/Src/bno055.c ****   HAL_StatusTypeDef status = bno055_setOperationMode(BNO055_OPERATION_MODE_NDOF);
  72:/home/dat/Documents/colir_one/rocket_code/Module/Src/bno055.c ****   return status;
  73:/home/dat/Documents/colir_one/rocket_code/Module/Src/bno055.c **** }
  74:/home/dat/Documents/colir_one/rocket_code/Module/Src/bno055.c **** 
  75:/home/dat/Documents/colir_one/rocket_code/Module/Src/bno055.c **** static HAL_StatusTypeDef bno055_setExternalCrystalUse(bool state) {
  76:/home/dat/Documents/colir_one/rocket_code/Module/Src/bno055.c ****   HAL_StatusTypeDef status = HAL_OK;
ARM GAS  /tmp/ccP9B4zy.s 			page 6


  77:/home/dat/Documents/colir_one/rocket_code/Module/Src/bno055.c ****   status |= bno055_setPage(0);
  78:/home/dat/Documents/colir_one/rocket_code/Module/Src/bno055.c ****   uint8_t tmp = 0;
  79:/home/dat/Documents/colir_one/rocket_code/Module/Src/bno055.c ****   status |= bno055_readData(BNO055_SYS_TRIGGER, &tmp, 1);
  80:/home/dat/Documents/colir_one/rocket_code/Module/Src/bno055.c ****   tmp |= (state == true) ? 0x80 : 0x0;
  81:/home/dat/Documents/colir_one/rocket_code/Module/Src/bno055.c ****   status |= bno055_writeData(BNO055_SYS_TRIGGER, tmp);
  82:/home/dat/Documents/colir_one/rocket_code/Module/Src/bno055.c ****   bno055_delay(700);
  83:/home/dat/Documents/colir_one/rocket_code/Module/Src/bno055.c ****   return status;
  84:/home/dat/Documents/colir_one/rocket_code/Module/Src/bno055.c **** }
  85:/home/dat/Documents/colir_one/rocket_code/Module/Src/bno055.c **** 
  86:/home/dat/Documents/colir_one/rocket_code/Module/Src/bno055.c **** HAL_StatusTypeDef bno055_enableExternalCrystal(void) { 
  87:/home/dat/Documents/colir_one/rocket_code/Module/Src/bno055.c ****   HAL_StatusTypeDef status =  bno055_setExternalCrystalUse(true); 
  88:/home/dat/Documents/colir_one/rocket_code/Module/Src/bno055.c ****   return status;
  89:/home/dat/Documents/colir_one/rocket_code/Module/Src/bno055.c **** }
  90:/home/dat/Documents/colir_one/rocket_code/Module/Src/bno055.c **** HAL_StatusTypeDef bno055_disableExternalCrystal(void) { 
  91:/home/dat/Documents/colir_one/rocket_code/Module/Src/bno055.c ****   HAL_StatusTypeDef status = bno055_setExternalCrystalUse(false); 
  92:/home/dat/Documents/colir_one/rocket_code/Module/Src/bno055.c ****   return status;
  93:/home/dat/Documents/colir_one/rocket_code/Module/Src/bno055.c **** }
  94:/home/dat/Documents/colir_one/rocket_code/Module/Src/bno055.c **** 
  95:/home/dat/Documents/colir_one/rocket_code/Module/Src/bno055.c **** HAL_StatusTypeDef bno055_reset(void) {
  96:/home/dat/Documents/colir_one/rocket_code/Module/Src/bno055.c ****   HAL_StatusTypeDef status = bno055_writeData(BNO055_SYS_TRIGGER, 0x20);
  97:/home/dat/Documents/colir_one/rocket_code/Module/Src/bno055.c ****   bno055_delay(700);
  98:/home/dat/Documents/colir_one/rocket_code/Module/Src/bno055.c ****   return status;
  99:/home/dat/Documents/colir_one/rocket_code/Module/Src/bno055.c **** }
 100:/home/dat/Documents/colir_one/rocket_code/Module/Src/bno055.c **** 
 101:/home/dat/Documents/colir_one/rocket_code/Module/Src/bno055.c **** HAL_StatusTypeDef bno055_getTemp(uint8_t *temp) {
 102:/home/dat/Documents/colir_one/rocket_code/Module/Src/bno055.c ****   HAL_StatusTypeDef status = HAL_OK;
 103:/home/dat/Documents/colir_one/rocket_code/Module/Src/bno055.c ****   status |= bno055_setPage(0);
 104:/home/dat/Documents/colir_one/rocket_code/Module/Src/bno055.c ****   status |= bno055_readData(BNO055_TEMP, temp, 1);
 105:/home/dat/Documents/colir_one/rocket_code/Module/Src/bno055.c ****   return status;
 106:/home/dat/Documents/colir_one/rocket_code/Module/Src/bno055.c **** }
 107:/home/dat/Documents/colir_one/rocket_code/Module/Src/bno055.c **** 
 108:/home/dat/Documents/colir_one/rocket_code/Module/Src/bno055.c **** HAL_StatusTypeDef bno055_setup(void) {
 109:/home/dat/Documents/colir_one/rocket_code/Module/Src/bno055.c ****   HAL_StatusTypeDef status = HAL_OK;
 110:/home/dat/Documents/colir_one/rocket_code/Module/Src/bno055.c ****   status |= bno055_reset();
 111:/home/dat/Documents/colir_one/rocket_code/Module/Src/bno055.c **** 
 112:/home/dat/Documents/colir_one/rocket_code/Module/Src/bno055.c ****   uint8_t id = 0;
 113:/home/dat/Documents/colir_one/rocket_code/Module/Src/bno055.c ****   status |= bno055_readData(BNO055_CHIP_ID, &id, 1);
 114:/home/dat/Documents/colir_one/rocket_code/Module/Src/bno055.c ****   if (id != BNO055_ID) {
 115:/home/dat/Documents/colir_one/rocket_code/Module/Src/bno055.c ****     printf("Can't find BNO055, id: 0x%02x. Please check your wiring.\r\n", id);
 116:/home/dat/Documents/colir_one/rocket_code/Module/Src/bno055.c ****   }
 117:/home/dat/Documents/colir_one/rocket_code/Module/Src/bno055.c ****   status |= bno055_setPage(0);
 118:/home/dat/Documents/colir_one/rocket_code/Module/Src/bno055.c ****   status |= bno055_writeData(BNO055_SYS_TRIGGER, 0x0);
 119:/home/dat/Documents/colir_one/rocket_code/Module/Src/bno055.c **** 
 120:/home/dat/Documents/colir_one/rocket_code/Module/Src/bno055.c ****   // Select BNO055 config mode
 121:/home/dat/Documents/colir_one/rocket_code/Module/Src/bno055.c ****   status |= bno055_setOperationModeConfig();
 122:/home/dat/Documents/colir_one/rocket_code/Module/Src/bno055.c ****   bno055_delay(10);
 123:/home/dat/Documents/colir_one/rocket_code/Module/Src/bno055.c ****   return status;
 124:/home/dat/Documents/colir_one/rocket_code/Module/Src/bno055.c **** }
 125:/home/dat/Documents/colir_one/rocket_code/Module/Src/bno055.c **** 
 126:/home/dat/Documents/colir_one/rocket_code/Module/Src/bno055.c **** HAL_StatusTypeDef bno055_getSWRevision(int16_t *swRev) {
 127:/home/dat/Documents/colir_one/rocket_code/Module/Src/bno055.c ****   HAL_StatusTypeDef status = HAL_OK;
 128:/home/dat/Documents/colir_one/rocket_code/Module/Src/bno055.c ****   status |= bno055_setPage(0);
 129:/home/dat/Documents/colir_one/rocket_code/Module/Src/bno055.c ****   uint8_t buffer[2];
 130:/home/dat/Documents/colir_one/rocket_code/Module/Src/bno055.c ****   status |= bno055_readData(BNO055_SW_REV_ID_LSB, buffer, 2);
 131:/home/dat/Documents/colir_one/rocket_code/Module/Src/bno055.c ****   *swRev = (int16_t)((buffer[1] << 8) | buffer[0]);
 132:/home/dat/Documents/colir_one/rocket_code/Module/Src/bno055.c ****   return status;
 133:/home/dat/Documents/colir_one/rocket_code/Module/Src/bno055.c **** }
ARM GAS  /tmp/ccP9B4zy.s 			page 7


 134:/home/dat/Documents/colir_one/rocket_code/Module/Src/bno055.c **** 
 135:/home/dat/Documents/colir_one/rocket_code/Module/Src/bno055.c **** HAL_StatusTypeDef bno055_getBootloaderRevision(uint8_t* blRev) {
 136:/home/dat/Documents/colir_one/rocket_code/Module/Src/bno055.c ****   HAL_StatusTypeDef status = HAL_OK;
 137:/home/dat/Documents/colir_one/rocket_code/Module/Src/bno055.c ****   status |= bno055_setPage(0);
 138:/home/dat/Documents/colir_one/rocket_code/Module/Src/bno055.c ****   status |= bno055_readData(BNO055_BL_REV_ID, blRev, 1);
 139:/home/dat/Documents/colir_one/rocket_code/Module/Src/bno055.c ****   return status;
 140:/home/dat/Documents/colir_one/rocket_code/Module/Src/bno055.c **** }
 141:/home/dat/Documents/colir_one/rocket_code/Module/Src/bno055.c **** 
 142:/home/dat/Documents/colir_one/rocket_code/Module/Src/bno055.c **** HAL_StatusTypeDef bno055_getSystemStatus(uint8_t *sysStatus) {
 143:/home/dat/Documents/colir_one/rocket_code/Module/Src/bno055.c ****   HAL_StatusTypeDef status = HAL_OK;
 144:/home/dat/Documents/colir_one/rocket_code/Module/Src/bno055.c ****   status |= bno055_setPage(0);
 145:/home/dat/Documents/colir_one/rocket_code/Module/Src/bno055.c ****   status |= bno055_readData(BNO055_SYS_STATUS, sysStatus, 1);
 146:/home/dat/Documents/colir_one/rocket_code/Module/Src/bno055.c ****   return status;
 147:/home/dat/Documents/colir_one/rocket_code/Module/Src/bno055.c **** }
 148:/home/dat/Documents/colir_one/rocket_code/Module/Src/bno055.c **** 
 149:/home/dat/Documents/colir_one/rocket_code/Module/Src/bno055.c **** HAL_StatusTypeDef bno055_getSelfTestResult(bno055_self_test_result_t *result) {
 150:/home/dat/Documents/colir_one/rocket_code/Module/Src/bno055.c ****   HAL_StatusTypeDef status = HAL_OK;
 151:/home/dat/Documents/colir_one/rocket_code/Module/Src/bno055.c ****   status |= bno055_setPage(0);
 152:/home/dat/Documents/colir_one/rocket_code/Module/Src/bno055.c ****   uint8_t tmp;
 153:/home/dat/Documents/colir_one/rocket_code/Module/Src/bno055.c ****   status |= bno055_readData(BNO055_ST_RESULT, &tmp, 1);
 154:/home/dat/Documents/colir_one/rocket_code/Module/Src/bno055.c ****   bno055_self_test_result_t _result ={0};
 155:/home/dat/Documents/colir_one/rocket_code/Module/Src/bno055.c ****   _result.mcuState = (tmp >> 3) & 0x01;
 156:/home/dat/Documents/colir_one/rocket_code/Module/Src/bno055.c ****   _result.gyrState = (tmp >> 2) & 0x01;
 157:/home/dat/Documents/colir_one/rocket_code/Module/Src/bno055.c ****   _result.magState = (tmp >> 1) & 0x01;
 158:/home/dat/Documents/colir_one/rocket_code/Module/Src/bno055.c ****   _result.accState = (tmp >> 0) & 0x01;
 159:/home/dat/Documents/colir_one/rocket_code/Module/Src/bno055.c **** 
 160:/home/dat/Documents/colir_one/rocket_code/Module/Src/bno055.c ****   *result = _result;
 161:/home/dat/Documents/colir_one/rocket_code/Module/Src/bno055.c ****   return status;
 162:/home/dat/Documents/colir_one/rocket_code/Module/Src/bno055.c **** }
 163:/home/dat/Documents/colir_one/rocket_code/Module/Src/bno055.c **** 
 164:/home/dat/Documents/colir_one/rocket_code/Module/Src/bno055.c **** HAL_StatusTypeDef bno055_getSystemError(uint8_t* sysError) {
 165:/home/dat/Documents/colir_one/rocket_code/Module/Src/bno055.c ****   HAL_StatusTypeDef status = HAL_OK;
 166:/home/dat/Documents/colir_one/rocket_code/Module/Src/bno055.c ****   status |= bno055_setPage(0);
 167:/home/dat/Documents/colir_one/rocket_code/Module/Src/bno055.c ****   status |= bno055_readData(BNO055_SYS_ERR, sysError, 1);
 168:/home/dat/Documents/colir_one/rocket_code/Module/Src/bno055.c ****   return status;
 169:/home/dat/Documents/colir_one/rocket_code/Module/Src/bno055.c **** }
 170:/home/dat/Documents/colir_one/rocket_code/Module/Src/bno055.c **** 
 171:/home/dat/Documents/colir_one/rocket_code/Module/Src/bno055.c **** HAL_StatusTypeDef bno055_getCalibrationState(bno055_calibration_state_t* calState) {
 172:/home/dat/Documents/colir_one/rocket_code/Module/Src/bno055.c ****   HAL_StatusTypeDef status = HAL_OK;
 173:/home/dat/Documents/colir_one/rocket_code/Module/Src/bno055.c ****   status |= bno055_setPage(0);
 174:/home/dat/Documents/colir_one/rocket_code/Module/Src/bno055.c ****   bno055_calibration_state_t _calState = {.sys = 0, .gyro = 0, .mag = 0, .accel = 0};
 175:/home/dat/Documents/colir_one/rocket_code/Module/Src/bno055.c ****   uint8_t tmp = 0;
 176:/home/dat/Documents/colir_one/rocket_code/Module/Src/bno055.c ****   status |= bno055_readData(BNO055_CALIB_STAT, &tmp, 1);
 177:/home/dat/Documents/colir_one/rocket_code/Module/Src/bno055.c ****   _calState.sys = (tmp >> 6) & 0x03;
 178:/home/dat/Documents/colir_one/rocket_code/Module/Src/bno055.c ****   _calState.gyro = (tmp >> 4) & 0x03;
 179:/home/dat/Documents/colir_one/rocket_code/Module/Src/bno055.c ****   _calState.accel = (tmp >> 2) & 0x03;
 180:/home/dat/Documents/colir_one/rocket_code/Module/Src/bno055.c ****   _calState.mag = tmp & 0x03;
 181:/home/dat/Documents/colir_one/rocket_code/Module/Src/bno055.c **** 
 182:/home/dat/Documents/colir_one/rocket_code/Module/Src/bno055.c ****   *calState = _calState;
 183:/home/dat/Documents/colir_one/rocket_code/Module/Src/bno055.c ****   return status;
 184:/home/dat/Documents/colir_one/rocket_code/Module/Src/bno055.c **** }
 185:/home/dat/Documents/colir_one/rocket_code/Module/Src/bno055.c **** 
 186:/home/dat/Documents/colir_one/rocket_code/Module/Src/bno055.c **** 
 187:/home/dat/Documents/colir_one/rocket_code/Module/Src/bno055.c **** HAL_StatusTypeDef bno055_getCalibrationData(bno055_calibration_data_t *calData) {
 188:/home/dat/Documents/colir_one/rocket_code/Module/Src/bno055.c ****   bno055_calibration_data_t _calData;
 189:/home/dat/Documents/colir_one/rocket_code/Module/Src/bno055.c ****   HAL_StatusTypeDef status = HAL_OK;
 190:/home/dat/Documents/colir_one/rocket_code/Module/Src/bno055.c ****   uint8_t buffer[22];
ARM GAS  /tmp/ccP9B4zy.s 			page 8


 191:/home/dat/Documents/colir_one/rocket_code/Module/Src/bno055.c ****   bno055_opmode_t operationMode = {0}; 
 192:/home/dat/Documents/colir_one/rocket_code/Module/Src/bno055.c ****   status |= bno055_getOperationMode(&operationMode);
 193:/home/dat/Documents/colir_one/rocket_code/Module/Src/bno055.c ****   status |= bno055_setOperationModeConfig();
 194:/home/dat/Documents/colir_one/rocket_code/Module/Src/bno055.c ****   status |= bno055_setPage(0);
 195:/home/dat/Documents/colir_one/rocket_code/Module/Src/bno055.c **** 
 196:/home/dat/Documents/colir_one/rocket_code/Module/Src/bno055.c ****   status |= bno055_readData(BNO055_ACC_OFFSET_X_LSB, buffer, 22);
 197:/home/dat/Documents/colir_one/rocket_code/Module/Src/bno055.c **** 
 198:/home/dat/Documents/colir_one/rocket_code/Module/Src/bno055.c ****   // Assumes little endian processor
 199:/home/dat/Documents/colir_one/rocket_code/Module/Src/bno055.c ****   memcpy(&_calData.offset.accel, buffer, 6);
 200:/home/dat/Documents/colir_one/rocket_code/Module/Src/bno055.c ****   memcpy(&_calData.offset.mag, buffer + 6, 6);
 201:/home/dat/Documents/colir_one/rocket_code/Module/Src/bno055.c ****   memcpy(&_calData.offset.gyro, buffer + 12, 6);
 202:/home/dat/Documents/colir_one/rocket_code/Module/Src/bno055.c ****   memcpy(&_calData.radius.accel, buffer + 18, 2);
 203:/home/dat/Documents/colir_one/rocket_code/Module/Src/bno055.c ****   memcpy(&_calData.radius.mag, buffer + 20, 2);
 204:/home/dat/Documents/colir_one/rocket_code/Module/Src/bno055.c **** 
 205:/home/dat/Documents/colir_one/rocket_code/Module/Src/bno055.c ****   *calData = _calData;
 206:/home/dat/Documents/colir_one/rocket_code/Module/Src/bno055.c **** 
 207:/home/dat/Documents/colir_one/rocket_code/Module/Src/bno055.c ****   bno055_setOperationMode(operationMode);
 208:/home/dat/Documents/colir_one/rocket_code/Module/Src/bno055.c **** 
 209:/home/dat/Documents/colir_one/rocket_code/Module/Src/bno055.c ****   return status;
 210:/home/dat/Documents/colir_one/rocket_code/Module/Src/bno055.c **** }
 211:/home/dat/Documents/colir_one/rocket_code/Module/Src/bno055.c **** 
 212:/home/dat/Documents/colir_one/rocket_code/Module/Src/bno055.c **** HAL_StatusTypeDef bno055_setCalibrationData(bno055_calibration_data_t calData) {
 213:/home/dat/Documents/colir_one/rocket_code/Module/Src/bno055.c ****   HAL_StatusTypeDef status = HAL_OK;
 214:/home/dat/Documents/colir_one/rocket_code/Module/Src/bno055.c ****   uint8_t buffer[22];
 215:/home/dat/Documents/colir_one/rocket_code/Module/Src/bno055.c ****   bno055_opmode_t operationMode = {0};
 216:/home/dat/Documents/colir_one/rocket_code/Module/Src/bno055.c ****   status |= bno055_getOperationMode(&operationMode);
 217:/home/dat/Documents/colir_one/rocket_code/Module/Src/bno055.c ****   status |= bno055_setOperationModeConfig();
 218:/home/dat/Documents/colir_one/rocket_code/Module/Src/bno055.c ****   status |= bno055_setPage(0);
 219:/home/dat/Documents/colir_one/rocket_code/Module/Src/bno055.c **** 
 220:/home/dat/Documents/colir_one/rocket_code/Module/Src/bno055.c ****   // Assumes litle endian processor
 221:/home/dat/Documents/colir_one/rocket_code/Module/Src/bno055.c ****   memcpy(buffer, &calData.offset.accel, 6);
 222:/home/dat/Documents/colir_one/rocket_code/Module/Src/bno055.c ****   memcpy(buffer + 6, &calData.offset.mag, 6);
 223:/home/dat/Documents/colir_one/rocket_code/Module/Src/bno055.c ****   memcpy(buffer + 12, &calData.offset.gyro, 6);
 224:/home/dat/Documents/colir_one/rocket_code/Module/Src/bno055.c ****   memcpy(buffer + 18, &calData.radius.accel, 2);
 225:/home/dat/Documents/colir_one/rocket_code/Module/Src/bno055.c ****   memcpy(buffer + 20, &calData.radius.mag, 2);
 226:/home/dat/Documents/colir_one/rocket_code/Module/Src/bno055.c **** 
 227:/home/dat/Documents/colir_one/rocket_code/Module/Src/bno055.c ****   for (uint8_t i=0; i < 22; i++) {
 228:/home/dat/Documents/colir_one/rocket_code/Module/Src/bno055.c ****     // TODO(oliv4945): create multibytes write
 229:/home/dat/Documents/colir_one/rocket_code/Module/Src/bno055.c ****     status |= bno055_writeData(BNO055_ACC_OFFSET_X_LSB+i, buffer[i]);
 230:/home/dat/Documents/colir_one/rocket_code/Module/Src/bno055.c ****   }
 231:/home/dat/Documents/colir_one/rocket_code/Module/Src/bno055.c **** 
 232:/home/dat/Documents/colir_one/rocket_code/Module/Src/bno055.c ****   status |= bno055_setOperationMode(operationMode);
 233:/home/dat/Documents/colir_one/rocket_code/Module/Src/bno055.c ****   return status;
 234:/home/dat/Documents/colir_one/rocket_code/Module/Src/bno055.c **** }
 235:/home/dat/Documents/colir_one/rocket_code/Module/Src/bno055.c **** 
 236:/home/dat/Documents/colir_one/rocket_code/Module/Src/bno055.c **** static HAL_StatusTypeDef bno055_getVector(uint8_t vec, bno055_vector_t* xyz) {
 201              		.loc 1 236 78 is_stmt 1 view -0
 202              		.cfi_startproc
 203              		@ args = 0, pretend = 0, frame = 40
 204              		@ frame_needed = 0, uses_anonymous_args = 0
 205              		.loc 1 236 78 is_stmt 0 view .LVU35
 206 0000 2DE97043 		push	{r4, r5, r6, r8, r9, lr}
 207              	.LCFI7:
 208              		.cfi_def_cfa_offset 24
 209              		.cfi_offset 4, -24
 210              		.cfi_offset 5, -20
 211              		.cfi_offset 6, -16
ARM GAS  /tmp/ccP9B4zy.s 			page 9


 212              		.cfi_offset 8, -12
 213              		.cfi_offset 9, -8
 214              		.cfi_offset 14, -4
 215 0004 8AB0     		sub	sp, sp, #40
 216              	.LCFI8:
 217              		.cfi_def_cfa_offset 64
 218 0006 0646     		mov	r6, r0
 219 0008 0C46     		mov	r4, r1
 237:/home/dat/Documents/colir_one/rocket_code/Module/Src/bno055.c ****   HAL_StatusTypeDef status = HAL_OK;
 220              		.loc 1 237 3 is_stmt 1 view .LVU36
 221              	.LVL18:
 238:/home/dat/Documents/colir_one/rocket_code/Module/Src/bno055.c ****   status |= bno055_setPage(0);
 222              		.loc 1 238 3 view .LVU37
 223              		.loc 1 238 13 is_stmt 0 view .LVU38
 224 000a 0020     		movs	r0, #0
 225              	.LVL19:
 226              		.loc 1 238 13 view .LVU39
 227 000c FFF7FEFF 		bl	bno055_setPage
 228              	.LVL20:
 229              		.loc 1 238 13 view .LVU40
 230 0010 0546     		mov	r5, r0
 231              	.LVL21:
 239:/home/dat/Documents/colir_one/rocket_code/Module/Src/bno055.c ****   uint8_t buffer[8];    // Quaternion need 8 bytes
 232              		.loc 1 239 3 is_stmt 1 view .LVU41
 240:/home/dat/Documents/colir_one/rocket_code/Module/Src/bno055.c **** 
 241:/home/dat/Documents/colir_one/rocket_code/Module/Src/bno055.c ****   if (vec == BNO055_VECTOR_QUATERNION)
 233              		.loc 1 241 3 view .LVU42
 234              		.loc 1 241 6 is_stmt 0 view .LVU43
 235 0012 202E     		cmp	r6, #32
 236 0014 20D0     		beq	.L25
 242:/home/dat/Documents/colir_one/rocket_code/Module/Src/bno055.c ****     status |= bno055_readData(vec, buffer, 8);
 243:/home/dat/Documents/colir_one/rocket_code/Module/Src/bno055.c ****   else
 244:/home/dat/Documents/colir_one/rocket_code/Module/Src/bno055.c ****     status |= bno055_readData(vec, buffer, 6);
 237              		.loc 1 244 5 is_stmt 1 view .LVU44
 238              		.loc 1 244 15 is_stmt 0 view .LVU45
 239 0016 0622     		movs	r2, #6
 240 0018 08A9     		add	r1, sp, #32
 241 001a 3046     		mov	r0, r6
 242 001c FFF7FEFF 		bl	bno055_readData
 243              	.LVL22:
 244              		.loc 1 244 12 discriminator 1 view .LVU46
 245 0020 0543     		orrs	r5, r5, r0
 246              	.LVL23:
 247              		.loc 1 244 12 discriminator 1 view .LVU47
 248 0022 EDB2     		uxtb	r5, r5
 249              	.LVL24:
 250              	.L13:
 245:/home/dat/Documents/colir_one/rocket_code/Module/Src/bno055.c **** 
 246:/home/dat/Documents/colir_one/rocket_code/Module/Src/bno055.c ****   double scale = 1;
 251              		.loc 1 246 3 is_stmt 1 view .LVU48
 247:/home/dat/Documents/colir_one/rocket_code/Module/Src/bno055.c **** 
 248:/home/dat/Documents/colir_one/rocket_code/Module/Src/bno055.c ****   if (vec == BNO055_VECTOR_MAGNETOMETER) {
 252              		.loc 1 248 3 view .LVU49
 253 0024 A6F10803 		sub	r3, r6, #8
 254 0028 262B     		cmp	r3, #38
 255 002a 40D8     		bhi	.L23
 256 002c DFE803F0 		tbb	[pc, r3]
ARM GAS  /tmp/ccP9B4zy.s 			page 10


 257              	.L16:
 258 0030 23       		.byte	(.L15-.L16)/2
 259 0031 3F       		.byte	(.L23-.L16)/2
 260 0032 3F       		.byte	(.L23-.L16)/2
 261 0033 3F       		.byte	(.L23-.L16)/2
 262 0034 3F       		.byte	(.L23-.L16)/2
 263 0035 3F       		.byte	(.L23-.L16)/2
 264 0036 1C       		.byte	(.L20-.L16)/2
 265 0037 3F       		.byte	(.L23-.L16)/2
 266 0038 3F       		.byte	(.L23-.L16)/2
 267 0039 3F       		.byte	(.L23-.L16)/2
 268 003a 3F       		.byte	(.L23-.L16)/2
 269 003b 3F       		.byte	(.L23-.L16)/2
 270 003c 2A       		.byte	(.L19-.L16)/2
 271 003d 3F       		.byte	(.L23-.L16)/2
 272 003e 3F       		.byte	(.L23-.L16)/2
 273 003f 3F       		.byte	(.L23-.L16)/2
 274 0040 3F       		.byte	(.L23-.L16)/2
 275 0041 3F       		.byte	(.L23-.L16)/2
 276 0042 31       		.byte	(.L18-.L16)/2
 277 0043 3F       		.byte	(.L23-.L16)/2
 278 0044 3F       		.byte	(.L23-.L16)/2
 279 0045 3F       		.byte	(.L23-.L16)/2
 280 0046 3F       		.byte	(.L23-.L16)/2
 281 0047 3F       		.byte	(.L23-.L16)/2
 282 0048 38       		.byte	(.L17-.L16)/2
 283 0049 3F       		.byte	(.L23-.L16)/2
 284 004a 3F       		.byte	(.L23-.L16)/2
 285 004b 3F       		.byte	(.L23-.L16)/2
 286 004c 3F       		.byte	(.L23-.L16)/2
 287 004d 3F       		.byte	(.L23-.L16)/2
 288 004e 3F       		.byte	(.L23-.L16)/2
 289 004f 3F       		.byte	(.L23-.L16)/2
 290 0050 23       		.byte	(.L15-.L16)/2
 291 0051 3F       		.byte	(.L23-.L16)/2
 292 0052 3F       		.byte	(.L23-.L16)/2
 293 0053 3F       		.byte	(.L23-.L16)/2
 294 0054 3F       		.byte	(.L23-.L16)/2
 295 0055 3F       		.byte	(.L23-.L16)/2
 296 0056 23       		.byte	(.L15-.L16)/2
 297              	.LVL25:
 298 0057 00       		.p2align 1
 299              	.L25:
 242:/home/dat/Documents/colir_one/rocket_code/Module/Src/bno055.c ****   else
 300              		.loc 1 242 5 view .LVU50
 242:/home/dat/Documents/colir_one/rocket_code/Module/Src/bno055.c ****   else
 301              		.loc 1 242 15 is_stmt 0 view .LVU51
 302 0058 0822     		movs	r2, #8
 303 005a 08A9     		add	r1, sp, #32
 304 005c 3046     		mov	r0, r6
 305 005e FFF7FEFF 		bl	bno055_readData
 306              	.LVL26:
 242:/home/dat/Documents/colir_one/rocket_code/Module/Src/bno055.c ****   else
 307              		.loc 1 242 12 discriminator 1 view .LVU52
 308 0062 0543     		orrs	r5, r5, r0
 309              	.LVL27:
 242:/home/dat/Documents/colir_one/rocket_code/Module/Src/bno055.c ****   else
ARM GAS  /tmp/ccP9B4zy.s 			page 11


 310              		.loc 1 242 12 discriminator 1 view .LVU53
 311 0064 EDB2     		uxtb	r5, r5
 312              	.LVL28:
 242:/home/dat/Documents/colir_one/rocket_code/Module/Src/bno055.c ****   else
 313              		.loc 1 242 12 discriminator 1 view .LVU54
 314 0066 DDE7     		b	.L13
 315              	.LVL29:
 316              	.L20:
 249:/home/dat/Documents/colir_one/rocket_code/Module/Src/bno055.c ****     scale = magScale;
 317              		.loc 1 249 5 is_stmt 1 view .LVU55
 318              		.loc 1 249 11 is_stmt 0 view .LVU56
 319 0068 524B     		ldr	r3, .L27
 320 006a 1888     		ldrh	r0, [r3]
 321 006c FFF7FEFF 		bl	__aeabi_ui2d
 322              	.LVL30:
 323 0070 8046     		mov	r8, r0
 324 0072 8946     		mov	r9, r1
 325              	.LVL31:
 326              		.loc 1 249 11 view .LVU57
 327 0074 1FE0     		b	.L14
 328              	.LVL32:
 329              	.L15:
 250:/home/dat/Documents/colir_one/rocket_code/Module/Src/bno055.c ****   } else if (vec == BNO055_VECTOR_ACCELEROMETER ||
 251:/home/dat/Documents/colir_one/rocket_code/Module/Src/bno055.c ****            vec == BNO055_VECTOR_LINEARACCEL || vec == BNO055_VECTOR_GRAVITY) {
 252:/home/dat/Documents/colir_one/rocket_code/Module/Src/bno055.c ****     scale = accelScale;
 330              		.loc 1 252 5 is_stmt 1 view .LVU58
 331              		.loc 1 252 11 is_stmt 0 view .LVU59
 332 0076 504B     		ldr	r3, .L27+4
 333 0078 1888     		ldrh	r0, [r3]
 334 007a FFF7FEFF 		bl	__aeabi_ui2d
 335              	.LVL33:
 336 007e 8046     		mov	r8, r0
 337 0080 8946     		mov	r9, r1
 338              	.LVL34:
 339              		.loc 1 252 11 view .LVU60
 340 0082 18E0     		b	.L14
 341              	.LVL35:
 342              	.L19:
 253:/home/dat/Documents/colir_one/rocket_code/Module/Src/bno055.c ****   } else if (vec == BNO055_VECTOR_GYROSCOPE) {
 254:/home/dat/Documents/colir_one/rocket_code/Module/Src/bno055.c ****     scale = angularRateScale;
 343              		.loc 1 254 5 is_stmt 1 view .LVU61
 344              		.loc 1 254 11 is_stmt 0 view .LVU62
 345 0084 4D4B     		ldr	r3, .L27+8
 346 0086 1888     		ldrh	r0, [r3]
 347 0088 FFF7FEFF 		bl	__aeabi_ui2d
 348              	.LVL36:
 349 008c 8046     		mov	r8, r0
 350 008e 8946     		mov	r9, r1
 351              	.LVL37:
 352              		.loc 1 254 11 view .LVU63
 353 0090 11E0     		b	.L14
 354              	.LVL38:
 355              	.L18:
 255:/home/dat/Documents/colir_one/rocket_code/Module/Src/bno055.c ****   } else if (vec == BNO055_VECTOR_EULER) {
 256:/home/dat/Documents/colir_one/rocket_code/Module/Src/bno055.c ****     scale = eulerScale;
 356              		.loc 1 256 5 is_stmt 1 view .LVU64
 357              		.loc 1 256 11 is_stmt 0 view .LVU65
ARM GAS  /tmp/ccP9B4zy.s 			page 12


 358 0092 4B4B     		ldr	r3, .L27+12
 359 0094 1888     		ldrh	r0, [r3]
 360 0096 FFF7FEFF 		bl	__aeabi_ui2d
 361              	.LVL39:
 362 009a 8046     		mov	r8, r0
 363 009c 8946     		mov	r9, r1
 364              	.LVL40:
 365              		.loc 1 256 11 view .LVU66
 366 009e 0AE0     		b	.L14
 367              	.LVL41:
 368              	.L17:
 257:/home/dat/Documents/colir_one/rocket_code/Module/Src/bno055.c ****   } else if (vec == BNO055_VECTOR_QUATERNION) {
 258:/home/dat/Documents/colir_one/rocket_code/Module/Src/bno055.c ****     scale = quaScale;
 369              		.loc 1 258 5 is_stmt 1 view .LVU67
 370              		.loc 1 258 11 is_stmt 0 view .LVU68
 371 00a0 484B     		ldr	r3, .L27+16
 372 00a2 1888     		ldrh	r0, [r3]
 373 00a4 FFF7FEFF 		bl	__aeabi_ui2d
 374              	.LVL42:
 375 00a8 8046     		mov	r8, r0
 376 00aa 8946     		mov	r9, r1
 377              	.LVL43:
 378              		.loc 1 258 11 view .LVU69
 379 00ac 03E0     		b	.L14
 380              	.LVL44:
 381              	.L23:
 236:/home/dat/Documents/colir_one/rocket_code/Module/Src/bno055.c ****   HAL_StatusTypeDef status = HAL_OK;
 382              		.loc 1 236 78 view .LVU70
 383 00ae 4FF00008 		mov	r8, #0
 384 00b2 DFF81491 		ldr	r9, .L27+20
 385              	.LVL45:
 386              	.L14:
 259:/home/dat/Documents/colir_one/rocket_code/Module/Src/bno055.c ****   }
 260:/home/dat/Documents/colir_one/rocket_code/Module/Src/bno055.c **** 
 261:/home/dat/Documents/colir_one/rocket_code/Module/Src/bno055.c ****   bno055_vector_t _xyz = {.w = 0, .x = 0, .y = 0, .z = 0};
 387              		.loc 1 261 3 is_stmt 1 view .LVU71
 388              		.loc 1 261 19 is_stmt 0 view .LVU72
 389 00b6 2022     		movs	r2, #32
 390 00b8 0021     		movs	r1, #0
 391 00ba 6846     		mov	r0, sp
 392 00bc FFF7FEFF 		bl	memset
 393              	.LVL46:
 262:/home/dat/Documents/colir_one/rocket_code/Module/Src/bno055.c ****   if (vec == BNO055_VECTOR_QUATERNION) {
 394              		.loc 1 262 3 is_stmt 1 view .LVU73
 395              		.loc 1 262 6 is_stmt 0 view .LVU74
 396 00c0 202E     		cmp	r6, #32
 397 00c2 39D0     		beq	.L26
 263:/home/dat/Documents/colir_one/rocket_code/Module/Src/bno055.c ****     _xyz.w = (int16_t)((buffer[1] << 8) | buffer[0]) / scale;
 264:/home/dat/Documents/colir_one/rocket_code/Module/Src/bno055.c ****     _xyz.x = (int16_t)((buffer[3] << 8) | buffer[2]) / scale;
 265:/home/dat/Documents/colir_one/rocket_code/Module/Src/bno055.c ****     _xyz.y = (int16_t)((buffer[5] << 8) | buffer[4]) / scale;
 266:/home/dat/Documents/colir_one/rocket_code/Module/Src/bno055.c ****     _xyz.z = (int16_t)((buffer[7] << 8) | buffer[6]) / scale;
 267:/home/dat/Documents/colir_one/rocket_code/Module/Src/bno055.c ****   } else {
 268:/home/dat/Documents/colir_one/rocket_code/Module/Src/bno055.c ****     _xyz.x = (int16_t)((buffer[1] << 8) | buffer[0]) / scale;
 398              		.loc 1 268 5 is_stmt 1 view .LVU75
 399              		.loc 1 268 31 is_stmt 0 view .LVU76
 400 00c4 9DF82130 		ldrb	r3, [sp, #33]	@ zero_extendqisi2
 401              		.loc 1 268 49 view .LVU77
ARM GAS  /tmp/ccP9B4zy.s 			page 13


 402 00c8 9DF82000 		ldrb	r0, [sp, #32]	@ zero_extendqisi2
 403              		.loc 1 268 14 view .LVU78
 404 00cc 40EA0320 		orr	r0, r0, r3, lsl #8
 405              		.loc 1 268 54 view .LVU79
 406 00d0 00B2     		sxth	r0, r0
 407 00d2 FFF7FEFF 		bl	__aeabi_i2d
 408              	.LVL47:
 409 00d6 4246     		mov	r2, r8
 410 00d8 4B46     		mov	r3, r9
 411 00da FFF7FEFF 		bl	__aeabi_ddiv
 412              	.LVL48:
 413              		.loc 1 268 12 view .LVU80
 414 00de CDE90201 		strd	r0, [sp, #8]
 269:/home/dat/Documents/colir_one/rocket_code/Module/Src/bno055.c ****     _xyz.y = (int16_t)((buffer[3] << 8) | buffer[2]) / scale;
 415              		.loc 1 269 5 is_stmt 1 view .LVU81
 416              		.loc 1 269 31 is_stmt 0 view .LVU82
 417 00e2 9DF82330 		ldrb	r3, [sp, #35]	@ zero_extendqisi2
 418              		.loc 1 269 49 view .LVU83
 419 00e6 9DF82200 		ldrb	r0, [sp, #34]	@ zero_extendqisi2
 420              		.loc 1 269 14 view .LVU84
 421 00ea 40EA0320 		orr	r0, r0, r3, lsl #8
 422              		.loc 1 269 54 view .LVU85
 423 00ee 00B2     		sxth	r0, r0
 424 00f0 FFF7FEFF 		bl	__aeabi_i2d
 425              	.LVL49:
 426 00f4 4246     		mov	r2, r8
 427 00f6 4B46     		mov	r3, r9
 428 00f8 FFF7FEFF 		bl	__aeabi_ddiv
 429              	.LVL50:
 430              		.loc 1 269 12 view .LVU86
 431 00fc CDE90401 		strd	r0, [sp, #16]
 270:/home/dat/Documents/colir_one/rocket_code/Module/Src/bno055.c ****     _xyz.z = (int16_t)((buffer[5] << 8) | buffer[4]) / scale;
 432              		.loc 1 270 5 is_stmt 1 view .LVU87
 433              		.loc 1 270 31 is_stmt 0 view .LVU88
 434 0100 9DF82530 		ldrb	r3, [sp, #37]	@ zero_extendqisi2
 435              		.loc 1 270 49 view .LVU89
 436 0104 9DF82400 		ldrb	r0, [sp, #36]	@ zero_extendqisi2
 437              		.loc 1 270 14 view .LVU90
 438 0108 40EA0320 		orr	r0, r0, r3, lsl #8
 439              		.loc 1 270 54 view .LVU91
 440 010c 00B2     		sxth	r0, r0
 441 010e FFF7FEFF 		bl	__aeabi_i2d
 442              	.LVL51:
 443 0112 4246     		mov	r2, r8
 444 0114 4B46     		mov	r3, r9
 445 0116 FFF7FEFF 		bl	__aeabi_ddiv
 446              	.LVL52:
 447              		.loc 1 270 12 view .LVU92
 448 011a CDE90601 		strd	r0, [sp, #24]
 449              	.L22:
 271:/home/dat/Documents/colir_one/rocket_code/Module/Src/bno055.c ****   }
 272:/home/dat/Documents/colir_one/rocket_code/Module/Src/bno055.c **** 
 273:/home/dat/Documents/colir_one/rocket_code/Module/Src/bno055.c ****   *xyz = _xyz;
 450              		.loc 1 273 3 is_stmt 1 view .LVU93
 451              		.loc 1 273 8 is_stmt 0 view .LVU94
 452 011e A446     		mov	ip, r4
 453 0120 6C46     		mov	r4, sp
ARM GAS  /tmp/ccP9B4zy.s 			page 14


 454              	.LVL53:
 455              		.loc 1 273 8 view .LVU95
 456 0122 0FCC     		ldmia	r4!, {r0, r1, r2, r3}
 457 0124 ACE80F00 		stmia	ip!, {r0, r1, r2, r3}
 458              	.LVL54:
 459              		.loc 1 273 8 view .LVU96
 460 0128 94E80F00 		ldm	r4, {r0, r1, r2, r3}
 461 012c 8CE80F00 		stm	ip, {r0, r1, r2, r3}
 274:/home/dat/Documents/colir_one/rocket_code/Module/Src/bno055.c ****   return status;
 462              		.loc 1 274 3 is_stmt 1 view .LVU97
 275:/home/dat/Documents/colir_one/rocket_code/Module/Src/bno055.c **** }
 463              		.loc 1 275 1 is_stmt 0 view .LVU98
 464 0130 2846     		mov	r0, r5
 465 0132 0AB0     		add	sp, sp, #40
 466              	.LCFI9:
 467              		.cfi_remember_state
 468              		.cfi_def_cfa_offset 24
 469              		@ sp needed
 470 0134 BDE87083 		pop	{r4, r5, r6, r8, r9, pc}
 471              	.LVL55:
 472              	.L26:
 473              	.LCFI10:
 474              		.cfi_restore_state
 263:/home/dat/Documents/colir_one/rocket_code/Module/Src/bno055.c ****     _xyz.x = (int16_t)((buffer[3] << 8) | buffer[2]) / scale;
 475              		.loc 1 263 5 is_stmt 1 view .LVU99
 263:/home/dat/Documents/colir_one/rocket_code/Module/Src/bno055.c ****     _xyz.x = (int16_t)((buffer[3] << 8) | buffer[2]) / scale;
 476              		.loc 1 263 31 is_stmt 0 view .LVU100
 477 0138 9DF82130 		ldrb	r3, [sp, #33]	@ zero_extendqisi2
 263:/home/dat/Documents/colir_one/rocket_code/Module/Src/bno055.c ****     _xyz.x = (int16_t)((buffer[3] << 8) | buffer[2]) / scale;
 478              		.loc 1 263 49 view .LVU101
 479 013c 9DF82000 		ldrb	r0, [sp, #32]	@ zero_extendqisi2
 263:/home/dat/Documents/colir_one/rocket_code/Module/Src/bno055.c ****     _xyz.x = (int16_t)((buffer[3] << 8) | buffer[2]) / scale;
 480              		.loc 1 263 14 view .LVU102
 481 0140 40EA0320 		orr	r0, r0, r3, lsl #8
 263:/home/dat/Documents/colir_one/rocket_code/Module/Src/bno055.c ****     _xyz.x = (int16_t)((buffer[3] << 8) | buffer[2]) / scale;
 482              		.loc 1 263 54 view .LVU103
 483 0144 00B2     		sxth	r0, r0
 484 0146 FFF7FEFF 		bl	__aeabi_i2d
 485              	.LVL56:
 486 014a 4246     		mov	r2, r8
 487 014c 4B46     		mov	r3, r9
 488 014e FFF7FEFF 		bl	__aeabi_ddiv
 489              	.LVL57:
 263:/home/dat/Documents/colir_one/rocket_code/Module/Src/bno055.c ****     _xyz.x = (int16_t)((buffer[3] << 8) | buffer[2]) / scale;
 490              		.loc 1 263 12 view .LVU104
 491 0152 CDE90001 		strd	r0, [sp]
 264:/home/dat/Documents/colir_one/rocket_code/Module/Src/bno055.c ****     _xyz.y = (int16_t)((buffer[5] << 8) | buffer[4]) / scale;
 492              		.loc 1 264 5 is_stmt 1 view .LVU105
 264:/home/dat/Documents/colir_one/rocket_code/Module/Src/bno055.c ****     _xyz.y = (int16_t)((buffer[5] << 8) | buffer[4]) / scale;
 493              		.loc 1 264 31 is_stmt 0 view .LVU106
 494 0156 9DF82330 		ldrb	r3, [sp, #35]	@ zero_extendqisi2
 264:/home/dat/Documents/colir_one/rocket_code/Module/Src/bno055.c ****     _xyz.y = (int16_t)((buffer[5] << 8) | buffer[4]) / scale;
 495              		.loc 1 264 49 view .LVU107
 496 015a 9DF82200 		ldrb	r0, [sp, #34]	@ zero_extendqisi2
 264:/home/dat/Documents/colir_one/rocket_code/Module/Src/bno055.c ****     _xyz.y = (int16_t)((buffer[5] << 8) | buffer[4]) / scale;
 497              		.loc 1 264 14 view .LVU108
 498 015e 40EA0320 		orr	r0, r0, r3, lsl #8
ARM GAS  /tmp/ccP9B4zy.s 			page 15


 264:/home/dat/Documents/colir_one/rocket_code/Module/Src/bno055.c ****     _xyz.y = (int16_t)((buffer[5] << 8) | buffer[4]) / scale;
 499              		.loc 1 264 54 view .LVU109
 500 0162 00B2     		sxth	r0, r0
 501 0164 FFF7FEFF 		bl	__aeabi_i2d
 502              	.LVL58:
 503 0168 4246     		mov	r2, r8
 504 016a 4B46     		mov	r3, r9
 505 016c FFF7FEFF 		bl	__aeabi_ddiv
 506              	.LVL59:
 264:/home/dat/Documents/colir_one/rocket_code/Module/Src/bno055.c ****     _xyz.y = (int16_t)((buffer[5] << 8) | buffer[4]) / scale;
 507              		.loc 1 264 12 view .LVU110
 508 0170 CDE90201 		strd	r0, [sp, #8]
 265:/home/dat/Documents/colir_one/rocket_code/Module/Src/bno055.c ****     _xyz.z = (int16_t)((buffer[7] << 8) | buffer[6]) / scale;
 509              		.loc 1 265 5 is_stmt 1 view .LVU111
 265:/home/dat/Documents/colir_one/rocket_code/Module/Src/bno055.c ****     _xyz.z = (int16_t)((buffer[7] << 8) | buffer[6]) / scale;
 510              		.loc 1 265 31 is_stmt 0 view .LVU112
 511 0174 9DF82530 		ldrb	r3, [sp, #37]	@ zero_extendqisi2
 265:/home/dat/Documents/colir_one/rocket_code/Module/Src/bno055.c ****     _xyz.z = (int16_t)((buffer[7] << 8) | buffer[6]) / scale;
 512              		.loc 1 265 49 view .LVU113
 513 0178 9DF82400 		ldrb	r0, [sp, #36]	@ zero_extendqisi2
 265:/home/dat/Documents/colir_one/rocket_code/Module/Src/bno055.c ****     _xyz.z = (int16_t)((buffer[7] << 8) | buffer[6]) / scale;
 514              		.loc 1 265 14 view .LVU114
 515 017c 40EA0320 		orr	r0, r0, r3, lsl #8
 265:/home/dat/Documents/colir_one/rocket_code/Module/Src/bno055.c ****     _xyz.z = (int16_t)((buffer[7] << 8) | buffer[6]) / scale;
 516              		.loc 1 265 54 view .LVU115
 517 0180 00B2     		sxth	r0, r0
 518 0182 FFF7FEFF 		bl	__aeabi_i2d
 519              	.LVL60:
 520 0186 4246     		mov	r2, r8
 521 0188 4B46     		mov	r3, r9
 522 018a FFF7FEFF 		bl	__aeabi_ddiv
 523              	.LVL61:
 265:/home/dat/Documents/colir_one/rocket_code/Module/Src/bno055.c ****     _xyz.z = (int16_t)((buffer[7] << 8) | buffer[6]) / scale;
 524              		.loc 1 265 12 view .LVU116
 525 018e CDE90401 		strd	r0, [sp, #16]
 266:/home/dat/Documents/colir_one/rocket_code/Module/Src/bno055.c ****   } else {
 526              		.loc 1 266 5 is_stmt 1 view .LVU117
 266:/home/dat/Documents/colir_one/rocket_code/Module/Src/bno055.c ****   } else {
 527              		.loc 1 266 31 is_stmt 0 view .LVU118
 528 0192 9DF82730 		ldrb	r3, [sp, #39]	@ zero_extendqisi2
 266:/home/dat/Documents/colir_one/rocket_code/Module/Src/bno055.c ****   } else {
 529              		.loc 1 266 49 view .LVU119
 530 0196 9DF82600 		ldrb	r0, [sp, #38]	@ zero_extendqisi2
 266:/home/dat/Documents/colir_one/rocket_code/Module/Src/bno055.c ****   } else {
 531              		.loc 1 266 14 view .LVU120
 532 019a 40EA0320 		orr	r0, r0, r3, lsl #8
 266:/home/dat/Documents/colir_one/rocket_code/Module/Src/bno055.c ****   } else {
 533              		.loc 1 266 54 view .LVU121
 534 019e 00B2     		sxth	r0, r0
 535 01a0 FFF7FEFF 		bl	__aeabi_i2d
 536              	.LVL62:
 537 01a4 4246     		mov	r2, r8
 538 01a6 4B46     		mov	r3, r9
 539 01a8 FFF7FEFF 		bl	__aeabi_ddiv
 540              	.LVL63:
 266:/home/dat/Documents/colir_one/rocket_code/Module/Src/bno055.c ****   } else {
 541              		.loc 1 266 12 view .LVU122
ARM GAS  /tmp/ccP9B4zy.s 			page 16


 542 01ac CDE90601 		strd	r0, [sp, #24]
 543 01b0 B5E7     		b	.L22
 544              	.L28:
 545 01b2 00BF     		.align	2
 546              	.L27:
 547 01b4 00000000 		.word	magScale
 548 01b8 00000000 		.word	accelScale
 549 01bc 00000000 		.word	angularRateScale
 550 01c0 00000000 		.word	eulerScale
 551 01c4 00000000 		.word	quaScale
 552 01c8 0000F03F 		.word	1072693248
 553              		.cfi_endproc
 554              	.LFE160:
 556              		.section	.text.bno055_delay,"ax",%progbits
 557              		.align	1
 558              		.syntax unified
 559              		.thumb
 560              		.thumb_func
 562              	bno055_delay:
 563              	.LVL64:
 564              	.LFB138:
  18:/home/dat/Documents/colir_one/rocket_code/Module/Src/bno055.c **** #ifdef FREERTOS_ENABLED
 565              		.loc 1 18 36 is_stmt 1 view -0
 566              		.cfi_startproc
 567              		@ args = 0, pretend = 0, frame = 0
 568              		@ frame_needed = 0, uses_anonymous_args = 0
  18:/home/dat/Documents/colir_one/rocket_code/Module/Src/bno055.c **** #ifdef FREERTOS_ENABLED
 569              		.loc 1 18 36 is_stmt 0 view .LVU124
 570 0000 08B5     		push	{r3, lr}
 571              	.LCFI11:
 572              		.cfi_def_cfa_offset 8
 573              		.cfi_offset 3, -8
 574              		.cfi_offset 14, -4
  22:/home/dat/Documents/colir_one/rocket_code/Module/Src/bno055.c **** #endif
 575              		.loc 1 22 3 is_stmt 1 view .LVU125
 576 0002 FFF7FEFF 		bl	HAL_Delay
 577              	.LVL65:
  24:/home/dat/Documents/colir_one/rocket_code/Module/Src/bno055.c **** 
 578              		.loc 1 24 1 is_stmt 0 view .LVU126
 579 0006 08BD     		pop	{r3, pc}
 580              		.cfi_endproc
 581              	.LFE138:
 583              		.section	.text.bno055_setExternalCrystalUse,"ax",%progbits
 584              		.align	1
 585              		.syntax unified
 586              		.thumb
 587              		.thumb_func
 589              	bno055_setExternalCrystalUse:
 590              	.LVL66:
 591              	.LFB146:
  75:/home/dat/Documents/colir_one/rocket_code/Module/Src/bno055.c ****   HAL_StatusTypeDef status = HAL_OK;
 592              		.loc 1 75 67 is_stmt 1 view -0
 593              		.cfi_startproc
 594              		@ args = 0, pretend = 0, frame = 8
 595              		@ frame_needed = 0, uses_anonymous_args = 0
  75:/home/dat/Documents/colir_one/rocket_code/Module/Src/bno055.c ****   HAL_StatusTypeDef status = HAL_OK;
 596              		.loc 1 75 67 is_stmt 0 view .LVU128
ARM GAS  /tmp/ccP9B4zy.s 			page 17


 597 0000 30B5     		push	{r4, r5, lr}
 598              	.LCFI12:
 599              		.cfi_def_cfa_offset 12
 600              		.cfi_offset 4, -12
 601              		.cfi_offset 5, -8
 602              		.cfi_offset 14, -4
 603 0002 83B0     		sub	sp, sp, #12
 604              	.LCFI13:
 605              		.cfi_def_cfa_offset 24
 606 0004 0546     		mov	r5, r0
  76:/home/dat/Documents/colir_one/rocket_code/Module/Src/bno055.c ****   status |= bno055_setPage(0);
 607              		.loc 1 76 3 is_stmt 1 view .LVU129
 608              	.LVL67:
  77:/home/dat/Documents/colir_one/rocket_code/Module/Src/bno055.c ****   uint8_t tmp = 0;
 609              		.loc 1 77 3 view .LVU130
  77:/home/dat/Documents/colir_one/rocket_code/Module/Src/bno055.c ****   uint8_t tmp = 0;
 610              		.loc 1 77 13 is_stmt 0 view .LVU131
 611 0006 0020     		movs	r0, #0
 612              	.LVL68:
  77:/home/dat/Documents/colir_one/rocket_code/Module/Src/bno055.c ****   uint8_t tmp = 0;
 613              		.loc 1 77 13 view .LVU132
 614 0008 FFF7FEFF 		bl	bno055_setPage
 615              	.LVL69:
 616 000c 0446     		mov	r4, r0
 617              	.LVL70:
  78:/home/dat/Documents/colir_one/rocket_code/Module/Src/bno055.c ****   status |= bno055_readData(BNO055_SYS_TRIGGER, &tmp, 1);
 618              		.loc 1 78 3 is_stmt 1 view .LVU133
  78:/home/dat/Documents/colir_one/rocket_code/Module/Src/bno055.c ****   status |= bno055_readData(BNO055_SYS_TRIGGER, &tmp, 1);
 619              		.loc 1 78 11 is_stmt 0 view .LVU134
 620 000e 0023     		movs	r3, #0
 621 0010 8DF80730 		strb	r3, [sp, #7]
  79:/home/dat/Documents/colir_one/rocket_code/Module/Src/bno055.c ****   tmp |= (state == true) ? 0x80 : 0x0;
 622              		.loc 1 79 3 is_stmt 1 view .LVU135
  79:/home/dat/Documents/colir_one/rocket_code/Module/Src/bno055.c ****   tmp |= (state == true) ? 0x80 : 0x0;
 623              		.loc 1 79 13 is_stmt 0 view .LVU136
 624 0014 0122     		movs	r2, #1
 625 0016 0DF10701 		add	r1, sp, #7
 626 001a 3F20     		movs	r0, #63
 627 001c FFF7FEFF 		bl	bno055_readData
 628              	.LVL71:
  79:/home/dat/Documents/colir_one/rocket_code/Module/Src/bno055.c ****   tmp |= (state == true) ? 0x80 : 0x0;
 629              		.loc 1 79 10 discriminator 1 view .LVU137
 630 0020 0443     		orrs	r4, r4, r0
 631              	.LVL72:
  79:/home/dat/Documents/colir_one/rocket_code/Module/Src/bno055.c ****   tmp |= (state == true) ? 0x80 : 0x0;
 632              		.loc 1 79 10 discriminator 1 view .LVU138
 633 0022 E4B2     		uxtb	r4, r4
 634              	.LVL73:
  80:/home/dat/Documents/colir_one/rocket_code/Module/Src/bno055.c ****   status |= bno055_writeData(BNO055_SYS_TRIGGER, tmp);
 635              		.loc 1 80 3 is_stmt 1 view .LVU139
  80:/home/dat/Documents/colir_one/rocket_code/Module/Src/bno055.c ****   status |= bno055_writeData(BNO055_SYS_TRIGGER, tmp);
 636              		.loc 1 80 7 is_stmt 0 view .LVU140
 637 0024 9DB1     		cbz	r5, .L33
  80:/home/dat/Documents/colir_one/rocket_code/Module/Src/bno055.c ****   status |= bno055_writeData(BNO055_SYS_TRIGGER, tmp);
 638              		.loc 1 80 7 discriminator 1 view .LVU141
 639 0026 6FF07F03 		mvn	r3, #127
 640              	.L32:
ARM GAS  /tmp/ccP9B4zy.s 			page 18


  80:/home/dat/Documents/colir_one/rocket_code/Module/Src/bno055.c ****   status |= bno055_writeData(BNO055_SYS_TRIGGER, tmp);
 641              		.loc 1 80 7 discriminator 4 view .LVU142
 642 002a 9DF80710 		ldrb	r1, [sp, #7]	@ zero_extendqisi2
 643 002e 1943     		orrs	r1, r1, r3
 644 0030 C9B2     		uxtb	r1, r1
 645 0032 8DF80710 		strb	r1, [sp, #7]
  81:/home/dat/Documents/colir_one/rocket_code/Module/Src/bno055.c ****   bno055_delay(700);
 646              		.loc 1 81 3 is_stmt 1 view .LVU143
  81:/home/dat/Documents/colir_one/rocket_code/Module/Src/bno055.c ****   bno055_delay(700);
 647              		.loc 1 81 13 is_stmt 0 view .LVU144
 648 0036 3F20     		movs	r0, #63
 649 0038 FFF7FEFF 		bl	bno055_writeData
 650              	.LVL74:
  81:/home/dat/Documents/colir_one/rocket_code/Module/Src/bno055.c ****   bno055_delay(700);
 651              		.loc 1 81 10 discriminator 1 view .LVU145
 652 003c 0443     		orrs	r4, r4, r0
 653              	.LVL75:
  81:/home/dat/Documents/colir_one/rocket_code/Module/Src/bno055.c ****   bno055_delay(700);
 654              		.loc 1 81 10 discriminator 1 view .LVU146
 655 003e E4B2     		uxtb	r4, r4
 656              	.LVL76:
  82:/home/dat/Documents/colir_one/rocket_code/Module/Src/bno055.c ****   return status;
 657              		.loc 1 82 3 is_stmt 1 view .LVU147
 658 0040 4FF42F70 		mov	r0, #700
 659 0044 FFF7FEFF 		bl	bno055_delay
 660              	.LVL77:
  83:/home/dat/Documents/colir_one/rocket_code/Module/Src/bno055.c **** }
 661              		.loc 1 83 3 view .LVU148
  84:/home/dat/Documents/colir_one/rocket_code/Module/Src/bno055.c **** 
 662              		.loc 1 84 1 is_stmt 0 view .LVU149
 663 0048 2046     		mov	r0, r4
 664 004a 03B0     		add	sp, sp, #12
 665              	.LCFI14:
 666              		.cfi_remember_state
 667              		.cfi_def_cfa_offset 12
 668              		@ sp needed
 669 004c 30BD     		pop	{r4, r5, pc}
 670              	.LVL78:
 671              	.L33:
 672              	.LCFI15:
 673              		.cfi_restore_state
  80:/home/dat/Documents/colir_one/rocket_code/Module/Src/bno055.c ****   status |= bno055_writeData(BNO055_SYS_TRIGGER, tmp);
 674              		.loc 1 80 7 discriminator 2 view .LVU150
 675 004e 0023     		movs	r3, #0
 676 0050 EBE7     		b	.L32
 677              		.cfi_endproc
 678              	.LFE146:
 680              		.section	.text.bno055_assignI2C,"ax",%progbits
 681              		.align	1
 682              		.global	bno055_assignI2C
 683              		.syntax unified
 684              		.thumb
 685              		.thumb_func
 687              	bno055_assignI2C:
 688              	.LVL79:
 689              	.LFB137:
  14:/home/dat/Documents/colir_one/rocket_code/Module/Src/bno055.c ****   _bno055_i2c_port = hi2c_device;
ARM GAS  /tmp/ccP9B4zy.s 			page 19


 690              		.loc 1 14 55 is_stmt 1 view -0
 691              		.cfi_startproc
 692              		@ args = 0, pretend = 0, frame = 0
 693              		@ frame_needed = 0, uses_anonymous_args = 0
 694              		@ link register save eliminated.
  15:/home/dat/Documents/colir_one/rocket_code/Module/Src/bno055.c **** }
 695              		.loc 1 15 3 view .LVU152
  15:/home/dat/Documents/colir_one/rocket_code/Module/Src/bno055.c **** }
 696              		.loc 1 15 20 is_stmt 0 view .LVU153
 697 0000 014B     		ldr	r3, .L36
 698 0002 1860     		str	r0, [r3]
  16:/home/dat/Documents/colir_one/rocket_code/Module/Src/bno055.c **** 
 699              		.loc 1 16 1 view .LVU154
 700 0004 7047     		bx	lr
 701              	.L37:
 702 0006 00BF     		.align	2
 703              	.L36:
 704 0008 00000000 		.word	_bno055_i2c_port
 705              		.cfi_endproc
 706              	.LFE137:
 708              		.section	.text.bno055_getOperationMode,"ax",%progbits
 709              		.align	1
 710              		.global	bno055_getOperationMode
 711              		.syntax unified
 712              		.thumb
 713              		.thumb_func
 715              	bno055_getOperationMode:
 716              	.LVL80:
 717              	.LFB142:
  49:/home/dat/Documents/colir_one/rocket_code/Module/Src/bno055.c ****   // bno055_opmode_t mode;
 718              		.loc 1 49 66 is_stmt 1 view -0
 719              		.cfi_startproc
 720              		@ args = 0, pretend = 0, frame = 0
 721              		@ frame_needed = 0, uses_anonymous_args = 0
  49:/home/dat/Documents/colir_one/rocket_code/Module/Src/bno055.c ****   // bno055_opmode_t mode;
 722              		.loc 1 49 66 is_stmt 0 view .LVU156
 723 0000 08B5     		push	{r3, lr}
 724              	.LCFI16:
 725              		.cfi_def_cfa_offset 8
 726              		.cfi_offset 3, -8
 727              		.cfi_offset 14, -4
 728 0002 0146     		mov	r1, r0
  51:/home/dat/Documents/colir_one/rocket_code/Module/Src/bno055.c ****   return status;
 729              		.loc 1 51 3 is_stmt 1 view .LVU157
  51:/home/dat/Documents/colir_one/rocket_code/Module/Src/bno055.c ****   return status;
 730              		.loc 1 51 29 is_stmt 0 view .LVU158
 731 0004 0122     		movs	r2, #1
 732 0006 3D20     		movs	r0, #61
 733              	.LVL81:
  51:/home/dat/Documents/colir_one/rocket_code/Module/Src/bno055.c ****   return status;
 734              		.loc 1 51 29 view .LVU159
 735 0008 FFF7FEFF 		bl	bno055_readData
 736              	.LVL82:
  52:/home/dat/Documents/colir_one/rocket_code/Module/Src/bno055.c **** }
 737              		.loc 1 52 3 is_stmt 1 view .LVU160
  53:/home/dat/Documents/colir_one/rocket_code/Module/Src/bno055.c **** 
 738              		.loc 1 53 1 is_stmt 0 view .LVU161
ARM GAS  /tmp/ccP9B4zy.s 			page 20


 739 000c 08BD     		pop	{r3, pc}
 740              		.cfi_endproc
 741              	.LFE142:
 743              		.section	.text.bno055_setOperationMode,"ax",%progbits
 744              		.align	1
 745              		.global	bno055_setOperationMode
 746              		.syntax unified
 747              		.thumb
 748              		.thumb_func
 750              	bno055_setOperationMode:
 751              	.LVL83:
 752              	.LFB143:
  55:/home/dat/Documents/colir_one/rocket_code/Module/Src/bno055.c ****   HAL_StatusTypeDef status = bno055_writeData(BNO055_OPR_MODE, mode);
 753              		.loc 1 55 65 is_stmt 1 view -0
 754              		.cfi_startproc
 755              		@ args = 0, pretend = 0, frame = 0
 756              		@ frame_needed = 0, uses_anonymous_args = 0
  55:/home/dat/Documents/colir_one/rocket_code/Module/Src/bno055.c ****   HAL_StatusTypeDef status = bno055_writeData(BNO055_OPR_MODE, mode);
 757              		.loc 1 55 65 is_stmt 0 view .LVU163
 758 0000 38B5     		push	{r3, r4, r5, lr}
 759              	.LCFI17:
 760              		.cfi_def_cfa_offset 16
 761              		.cfi_offset 3, -16
 762              		.cfi_offset 4, -12
 763              		.cfi_offset 5, -8
 764              		.cfi_offset 14, -4
 765 0002 0446     		mov	r4, r0
  56:/home/dat/Documents/colir_one/rocket_code/Module/Src/bno055.c ****   if (mode == BNO055_OPERATION_MODE_CONFIG) {
 766              		.loc 1 56 3 is_stmt 1 view .LVU164
  56:/home/dat/Documents/colir_one/rocket_code/Module/Src/bno055.c ****   if (mode == BNO055_OPERATION_MODE_CONFIG) {
 767              		.loc 1 56 30 is_stmt 0 view .LVU165
 768 0004 0146     		mov	r1, r0
 769 0006 3D20     		movs	r0, #61
 770              	.LVL84:
  56:/home/dat/Documents/colir_one/rocket_code/Module/Src/bno055.c ****   if (mode == BNO055_OPERATION_MODE_CONFIG) {
 771              		.loc 1 56 30 view .LVU166
 772 0008 FFF7FEFF 		bl	bno055_writeData
 773              	.LVL85:
  56:/home/dat/Documents/colir_one/rocket_code/Module/Src/bno055.c ****   if (mode == BNO055_OPERATION_MODE_CONFIG) {
 774              		.loc 1 56 30 view .LVU167
 775 000c 0546     		mov	r5, r0
 776              	.LVL86:
  57:/home/dat/Documents/colir_one/rocket_code/Module/Src/bno055.c ****     bno055_delay(19);
 777              		.loc 1 57 3 is_stmt 1 view .LVU168
  57:/home/dat/Documents/colir_one/rocket_code/Module/Src/bno055.c ****     bno055_delay(19);
 778              		.loc 1 57 6 is_stmt 0 view .LVU169
 779 000e 24B9     		cbnz	r4, .L41
  58:/home/dat/Documents/colir_one/rocket_code/Module/Src/bno055.c ****   } else {
 780              		.loc 1 58 5 is_stmt 1 view .LVU170
 781 0010 1320     		movs	r0, #19
 782 0012 FFF7FEFF 		bl	bno055_delay
 783              	.LVL87:
 784              	.L42:
  62:/home/dat/Documents/colir_one/rocket_code/Module/Src/bno055.c **** }
 785              		.loc 1 62 3 view .LVU171
  63:/home/dat/Documents/colir_one/rocket_code/Module/Src/bno055.c **** 
 786              		.loc 1 63 1 is_stmt 0 view .LVU172
ARM GAS  /tmp/ccP9B4zy.s 			page 21


 787 0016 2846     		mov	r0, r5
 788 0018 38BD     		pop	{r3, r4, r5, pc}
 789              	.LVL88:
 790              	.L41:
  60:/home/dat/Documents/colir_one/rocket_code/Module/Src/bno055.c ****   }
 791              		.loc 1 60 5 is_stmt 1 view .LVU173
 792 001a 0720     		movs	r0, #7
 793 001c FFF7FEFF 		bl	bno055_delay
 794              	.LVL89:
 795 0020 F9E7     		b	.L42
 796              		.cfi_endproc
 797              	.LFE143:
 799              		.section	.text.bno055_setOperationModeConfig,"ax",%progbits
 800              		.align	1
 801              		.global	bno055_setOperationModeConfig
 802              		.syntax unified
 803              		.thumb
 804              		.thumb_func
 806              	bno055_setOperationModeConfig:
 807              	.LFB144:
  65:/home/dat/Documents/colir_one/rocket_code/Module/Src/bno055.c ****   HAL_StatusTypeDef status =  bno055_setOperationMode(BNO055_OPERATION_MODE_CONFIG);
 808              		.loc 1 65 55 view -0
 809              		.cfi_startproc
 810              		@ args = 0, pretend = 0, frame = 0
 811              		@ frame_needed = 0, uses_anonymous_args = 0
 812 0000 08B5     		push	{r3, lr}
 813              	.LCFI18:
 814              		.cfi_def_cfa_offset 8
 815              		.cfi_offset 3, -8
 816              		.cfi_offset 14, -4
  66:/home/dat/Documents/colir_one/rocket_code/Module/Src/bno055.c ****   return status;
 817              		.loc 1 66 3 view .LVU175
  66:/home/dat/Documents/colir_one/rocket_code/Module/Src/bno055.c ****   return status;
 818              		.loc 1 66 31 is_stmt 0 view .LVU176
 819 0002 0020     		movs	r0, #0
 820 0004 FFF7FEFF 		bl	bno055_setOperationMode
 821              	.LVL90:
  67:/home/dat/Documents/colir_one/rocket_code/Module/Src/bno055.c **** }
 822              		.loc 1 67 3 is_stmt 1 view .LVU177
  68:/home/dat/Documents/colir_one/rocket_code/Module/Src/bno055.c **** 
 823              		.loc 1 68 1 is_stmt 0 view .LVU178
 824 0008 08BD     		pop	{r3, pc}
 825              		.cfi_endproc
 826              	.LFE144:
 828              		.section	.text.bno055_setOperationModeNDOF,"ax",%progbits
 829              		.align	1
 830              		.global	bno055_setOperationModeNDOF
 831              		.syntax unified
 832              		.thumb
 833              		.thumb_func
 835              	bno055_setOperationModeNDOF:
 836              	.LFB145:
  70:/home/dat/Documents/colir_one/rocket_code/Module/Src/bno055.c ****   HAL_StatusTypeDef status = bno055_setOperationMode(BNO055_OPERATION_MODE_NDOF);
 837              		.loc 1 70 53 is_stmt 1 view -0
 838              		.cfi_startproc
 839              		@ args = 0, pretend = 0, frame = 0
 840              		@ frame_needed = 0, uses_anonymous_args = 0
ARM GAS  /tmp/ccP9B4zy.s 			page 22


 841 0000 08B5     		push	{r3, lr}
 842              	.LCFI19:
 843              		.cfi_def_cfa_offset 8
 844              		.cfi_offset 3, -8
 845              		.cfi_offset 14, -4
  71:/home/dat/Documents/colir_one/rocket_code/Module/Src/bno055.c ****   return status;
 846              		.loc 1 71 3 view .LVU180
  71:/home/dat/Documents/colir_one/rocket_code/Module/Src/bno055.c ****   return status;
 847              		.loc 1 71 30 is_stmt 0 view .LVU181
 848 0002 0C20     		movs	r0, #12
 849 0004 FFF7FEFF 		bl	bno055_setOperationMode
 850              	.LVL91:
  72:/home/dat/Documents/colir_one/rocket_code/Module/Src/bno055.c **** }
 851              		.loc 1 72 3 is_stmt 1 view .LVU182
  73:/home/dat/Documents/colir_one/rocket_code/Module/Src/bno055.c **** 
 852              		.loc 1 73 1 is_stmt 0 view .LVU183
 853 0008 08BD     		pop	{r3, pc}
 854              		.cfi_endproc
 855              	.LFE145:
 857              		.section	.text.bno055_enableExternalCrystal,"ax",%progbits
 858              		.align	1
 859              		.global	bno055_enableExternalCrystal
 860              		.syntax unified
 861              		.thumb
 862              		.thumb_func
 864              	bno055_enableExternalCrystal:
 865              	.LFB147:
  86:/home/dat/Documents/colir_one/rocket_code/Module/Src/bno055.c ****   HAL_StatusTypeDef status =  bno055_setExternalCrystalUse(true); 
 866              		.loc 1 86 54 is_stmt 1 view -0
 867              		.cfi_startproc
 868              		@ args = 0, pretend = 0, frame = 0
 869              		@ frame_needed = 0, uses_anonymous_args = 0
 870 0000 08B5     		push	{r3, lr}
 871              	.LCFI20:
 872              		.cfi_def_cfa_offset 8
 873              		.cfi_offset 3, -8
 874              		.cfi_offset 14, -4
  87:/home/dat/Documents/colir_one/rocket_code/Module/Src/bno055.c ****   return status;
 875              		.loc 1 87 3 view .LVU185
  87:/home/dat/Documents/colir_one/rocket_code/Module/Src/bno055.c ****   return status;
 876              		.loc 1 87 31 is_stmt 0 view .LVU186
 877 0002 0120     		movs	r0, #1
 878 0004 FFF7FEFF 		bl	bno055_setExternalCrystalUse
 879              	.LVL92:
  88:/home/dat/Documents/colir_one/rocket_code/Module/Src/bno055.c **** }
 880              		.loc 1 88 3 is_stmt 1 view .LVU187
  89:/home/dat/Documents/colir_one/rocket_code/Module/Src/bno055.c **** HAL_StatusTypeDef bno055_disableExternalCrystal(void) { 
 881              		.loc 1 89 1 is_stmt 0 view .LVU188
 882 0008 08BD     		pop	{r3, pc}
 883              		.cfi_endproc
 884              	.LFE147:
 886              		.section	.text.bno055_disableExternalCrystal,"ax",%progbits
 887              		.align	1
 888              		.global	bno055_disableExternalCrystal
 889              		.syntax unified
 890              		.thumb
 891              		.thumb_func
ARM GAS  /tmp/ccP9B4zy.s 			page 23


 893              	bno055_disableExternalCrystal:
 894              	.LFB148:
  90:/home/dat/Documents/colir_one/rocket_code/Module/Src/bno055.c ****   HAL_StatusTypeDef status = bno055_setExternalCrystalUse(false); 
 895              		.loc 1 90 55 is_stmt 1 view -0
 896              		.cfi_startproc
 897              		@ args = 0, pretend = 0, frame = 0
 898              		@ frame_needed = 0, uses_anonymous_args = 0
 899 0000 08B5     		push	{r3, lr}
 900              	.LCFI21:
 901              		.cfi_def_cfa_offset 8
 902              		.cfi_offset 3, -8
 903              		.cfi_offset 14, -4
  91:/home/dat/Documents/colir_one/rocket_code/Module/Src/bno055.c ****   return status;
 904              		.loc 1 91 3 view .LVU190
  91:/home/dat/Documents/colir_one/rocket_code/Module/Src/bno055.c ****   return status;
 905              		.loc 1 91 30 is_stmt 0 view .LVU191
 906 0002 0020     		movs	r0, #0
 907 0004 FFF7FEFF 		bl	bno055_setExternalCrystalUse
 908              	.LVL93:
  92:/home/dat/Documents/colir_one/rocket_code/Module/Src/bno055.c **** }
 909              		.loc 1 92 3 is_stmt 1 view .LVU192
  93:/home/dat/Documents/colir_one/rocket_code/Module/Src/bno055.c **** 
 910              		.loc 1 93 1 is_stmt 0 view .LVU193
 911 0008 08BD     		pop	{r3, pc}
 912              		.cfi_endproc
 913              	.LFE148:
 915              		.section	.text.bno055_reset,"ax",%progbits
 916              		.align	1
 917              		.global	bno055_reset
 918              		.syntax unified
 919              		.thumb
 920              		.thumb_func
 922              	bno055_reset:
 923              	.LFB149:
  95:/home/dat/Documents/colir_one/rocket_code/Module/Src/bno055.c ****   HAL_StatusTypeDef status = bno055_writeData(BNO055_SYS_TRIGGER, 0x20);
 924              		.loc 1 95 38 is_stmt 1 view -0
 925              		.cfi_startproc
 926              		@ args = 0, pretend = 0, frame = 0
 927              		@ frame_needed = 0, uses_anonymous_args = 0
 928 0000 10B5     		push	{r4, lr}
 929              	.LCFI22:
 930              		.cfi_def_cfa_offset 8
 931              		.cfi_offset 4, -8
 932              		.cfi_offset 14, -4
  96:/home/dat/Documents/colir_one/rocket_code/Module/Src/bno055.c ****   bno055_delay(700);
 933              		.loc 1 96 3 view .LVU195
  96:/home/dat/Documents/colir_one/rocket_code/Module/Src/bno055.c ****   bno055_delay(700);
 934              		.loc 1 96 30 is_stmt 0 view .LVU196
 935 0002 2021     		movs	r1, #32
 936 0004 3F20     		movs	r0, #63
 937 0006 FFF7FEFF 		bl	bno055_writeData
 938              	.LVL94:
 939 000a 0446     		mov	r4, r0
 940              	.LVL95:
  97:/home/dat/Documents/colir_one/rocket_code/Module/Src/bno055.c ****   return status;
 941              		.loc 1 97 3 is_stmt 1 view .LVU197
 942 000c 4FF42F70 		mov	r0, #700
ARM GAS  /tmp/ccP9B4zy.s 			page 24


 943 0010 FFF7FEFF 		bl	bno055_delay
 944              	.LVL96:
  98:/home/dat/Documents/colir_one/rocket_code/Module/Src/bno055.c **** }
 945              		.loc 1 98 3 view .LVU198
  99:/home/dat/Documents/colir_one/rocket_code/Module/Src/bno055.c **** 
 946              		.loc 1 99 1 is_stmt 0 view .LVU199
 947 0014 2046     		mov	r0, r4
 948 0016 10BD     		pop	{r4, pc}
  99:/home/dat/Documents/colir_one/rocket_code/Module/Src/bno055.c **** 
 949              		.loc 1 99 1 view .LVU200
 950              		.cfi_endproc
 951              	.LFE149:
 953              		.section	.text.bno055_getTemp,"ax",%progbits
 954              		.align	1
 955              		.global	bno055_getTemp
 956              		.syntax unified
 957              		.thumb
 958              		.thumb_func
 960              	bno055_getTemp:
 961              	.LVL97:
 962              	.LFB150:
 101:/home/dat/Documents/colir_one/rocket_code/Module/Src/bno055.c ****   HAL_StatusTypeDef status = HAL_OK;
 963              		.loc 1 101 49 is_stmt 1 view -0
 964              		.cfi_startproc
 965              		@ args = 0, pretend = 0, frame = 0
 966              		@ frame_needed = 0, uses_anonymous_args = 0
 101:/home/dat/Documents/colir_one/rocket_code/Module/Src/bno055.c ****   HAL_StatusTypeDef status = HAL_OK;
 967              		.loc 1 101 49 is_stmt 0 view .LVU202
 968 0000 38B5     		push	{r3, r4, r5, lr}
 969              	.LCFI23:
 970              		.cfi_def_cfa_offset 16
 971              		.cfi_offset 3, -16
 972              		.cfi_offset 4, -12
 973              		.cfi_offset 5, -8
 974              		.cfi_offset 14, -4
 975 0002 0546     		mov	r5, r0
 102:/home/dat/Documents/colir_one/rocket_code/Module/Src/bno055.c ****   status |= bno055_setPage(0);
 976              		.loc 1 102 3 is_stmt 1 view .LVU203
 977              	.LVL98:
 103:/home/dat/Documents/colir_one/rocket_code/Module/Src/bno055.c ****   status |= bno055_readData(BNO055_TEMP, temp, 1);
 978              		.loc 1 103 3 view .LVU204
 103:/home/dat/Documents/colir_one/rocket_code/Module/Src/bno055.c ****   status |= bno055_readData(BNO055_TEMP, temp, 1);
 979              		.loc 1 103 13 is_stmt 0 view .LVU205
 980 0004 0020     		movs	r0, #0
 981              	.LVL99:
 103:/home/dat/Documents/colir_one/rocket_code/Module/Src/bno055.c ****   status |= bno055_readData(BNO055_TEMP, temp, 1);
 982              		.loc 1 103 13 view .LVU206
 983 0006 FFF7FEFF 		bl	bno055_setPage
 984              	.LVL100:
 985 000a 0446     		mov	r4, r0
 986              	.LVL101:
 104:/home/dat/Documents/colir_one/rocket_code/Module/Src/bno055.c ****   return status;
 987              		.loc 1 104 3 is_stmt 1 view .LVU207
 104:/home/dat/Documents/colir_one/rocket_code/Module/Src/bno055.c ****   return status;
 988              		.loc 1 104 13 is_stmt 0 view .LVU208
 989 000c 0122     		movs	r2, #1
 990 000e 2946     		mov	r1, r5
ARM GAS  /tmp/ccP9B4zy.s 			page 25


 991 0010 3420     		movs	r0, #52
 992 0012 FFF7FEFF 		bl	bno055_readData
 993              	.LVL102:
 104:/home/dat/Documents/colir_one/rocket_code/Module/Src/bno055.c ****   return status;
 994              		.loc 1 104 10 discriminator 1 view .LVU209
 995 0016 2043     		orrs	r0, r0, r4
 996              	.LVL103:
 105:/home/dat/Documents/colir_one/rocket_code/Module/Src/bno055.c **** }
 997              		.loc 1 105 3 is_stmt 1 view .LVU210
 106:/home/dat/Documents/colir_one/rocket_code/Module/Src/bno055.c **** 
 998              		.loc 1 106 1 is_stmt 0 view .LVU211
 999 0018 C0B2     		uxtb	r0, r0
 106:/home/dat/Documents/colir_one/rocket_code/Module/Src/bno055.c **** 
 1000              		.loc 1 106 1 view .LVU212
 1001 001a 38BD     		pop	{r3, r4, r5, pc}
 106:/home/dat/Documents/colir_one/rocket_code/Module/Src/bno055.c **** 
 1002              		.loc 1 106 1 view .LVU213
 1003              		.cfi_endproc
 1004              	.LFE150:
 1006              		.section	.rodata.bno055_setup.str1.4,"aMS",%progbits,1
 1007              		.align	2
 1008              	.LC0:
 1009 0000 43616E27 		.ascii	"Can't find BNO055, id: 0x%02x. Please check your wi"
 1009      74206669 
 1009      6E642042 
 1009      4E4F3035 
 1009      352C2069 
 1010 0033 72696E67 		.ascii	"ring.\015\012\000"
 1010      2E0D0A00 
 1011              		.section	.text.bno055_setup,"ax",%progbits
 1012              		.align	1
 1013              		.global	bno055_setup
 1014              		.syntax unified
 1015              		.thumb
 1016              		.thumb_func
 1018              	bno055_setup:
 1019              	.LFB151:
 108:/home/dat/Documents/colir_one/rocket_code/Module/Src/bno055.c ****   HAL_StatusTypeDef status = HAL_OK;
 1020              		.loc 1 108 38 is_stmt 1 view -0
 1021              		.cfi_startproc
 1022              		@ args = 0, pretend = 0, frame = 8
 1023              		@ frame_needed = 0, uses_anonymous_args = 0
 1024 0000 10B5     		push	{r4, lr}
 1025              	.LCFI24:
 1026              		.cfi_def_cfa_offset 8
 1027              		.cfi_offset 4, -8
 1028              		.cfi_offset 14, -4
 1029 0002 82B0     		sub	sp, sp, #8
 1030              	.LCFI25:
 1031              		.cfi_def_cfa_offset 16
 109:/home/dat/Documents/colir_one/rocket_code/Module/Src/bno055.c ****   status |= bno055_reset();
 1032              		.loc 1 109 3 view .LVU215
 1033              	.LVL104:
 110:/home/dat/Documents/colir_one/rocket_code/Module/Src/bno055.c **** 
 1034              		.loc 1 110 3 view .LVU216
 110:/home/dat/Documents/colir_one/rocket_code/Module/Src/bno055.c **** 
 1035              		.loc 1 110 13 is_stmt 0 view .LVU217
ARM GAS  /tmp/ccP9B4zy.s 			page 26


 1036 0004 FFF7FEFF 		bl	bno055_reset
 1037              	.LVL105:
 1038 0008 0446     		mov	r4, r0
 1039              	.LVL106:
 112:/home/dat/Documents/colir_one/rocket_code/Module/Src/bno055.c ****   status |= bno055_readData(BNO055_CHIP_ID, &id, 1);
 1040              		.loc 1 112 3 is_stmt 1 view .LVU218
 112:/home/dat/Documents/colir_one/rocket_code/Module/Src/bno055.c ****   status |= bno055_readData(BNO055_CHIP_ID, &id, 1);
 1041              		.loc 1 112 11 is_stmt 0 view .LVU219
 1042 000a 0020     		movs	r0, #0
 1043 000c 8DF80700 		strb	r0, [sp, #7]
 113:/home/dat/Documents/colir_one/rocket_code/Module/Src/bno055.c ****   if (id != BNO055_ID) {
 1044              		.loc 1 113 3 is_stmt 1 view .LVU220
 113:/home/dat/Documents/colir_one/rocket_code/Module/Src/bno055.c ****   if (id != BNO055_ID) {
 1045              		.loc 1 113 13 is_stmt 0 view .LVU221
 1046 0010 0122     		movs	r2, #1
 1047 0012 0DF10701 		add	r1, sp, #7
 1048 0016 FFF7FEFF 		bl	bno055_readData
 1049              	.LVL107:
 113:/home/dat/Documents/colir_one/rocket_code/Module/Src/bno055.c ****   if (id != BNO055_ID) {
 1050              		.loc 1 113 10 discriminator 1 view .LVU222
 1051 001a 0443     		orrs	r4, r4, r0
 1052              	.LVL108:
 113:/home/dat/Documents/colir_one/rocket_code/Module/Src/bno055.c ****   if (id != BNO055_ID) {
 1053              		.loc 1 113 10 discriminator 1 view .LVU223
 1054 001c E4B2     		uxtb	r4, r4
 1055              	.LVL109:
 114:/home/dat/Documents/colir_one/rocket_code/Module/Src/bno055.c ****     printf("Can't find BNO055, id: 0x%02x. Please check your wiring.\r\n", id);
 1056              		.loc 1 114 3 is_stmt 1 view .LVU224
 114:/home/dat/Documents/colir_one/rocket_code/Module/Src/bno055.c ****     printf("Can't find BNO055, id: 0x%02x. Please check your wiring.\r\n", id);
 1057              		.loc 1 114 10 is_stmt 0 view .LVU225
 1058 001e 9DF80710 		ldrb	r1, [sp, #7]	@ zero_extendqisi2
 114:/home/dat/Documents/colir_one/rocket_code/Module/Src/bno055.c ****     printf("Can't find BNO055, id: 0x%02x. Please check your wiring.\r\n", id);
 1059              		.loc 1 114 6 view .LVU226
 1060 0022 A029     		cmp	r1, #160
 1061 0024 14D1     		bne	.L59
 1062              	.L57:
 117:/home/dat/Documents/colir_one/rocket_code/Module/Src/bno055.c ****   status |= bno055_writeData(BNO055_SYS_TRIGGER, 0x0);
 1063              		.loc 1 117 3 is_stmt 1 view .LVU227
 117:/home/dat/Documents/colir_one/rocket_code/Module/Src/bno055.c ****   status |= bno055_writeData(BNO055_SYS_TRIGGER, 0x0);
 1064              		.loc 1 117 13 is_stmt 0 view .LVU228
 1065 0026 0020     		movs	r0, #0
 1066 0028 FFF7FEFF 		bl	bno055_setPage
 1067              	.LVL110:
 117:/home/dat/Documents/colir_one/rocket_code/Module/Src/bno055.c ****   status |= bno055_writeData(BNO055_SYS_TRIGGER, 0x0);
 1068              		.loc 1 117 10 discriminator 1 view .LVU229
 1069 002c 0443     		orrs	r4, r4, r0
 1070              	.LVL111:
 117:/home/dat/Documents/colir_one/rocket_code/Module/Src/bno055.c ****   status |= bno055_writeData(BNO055_SYS_TRIGGER, 0x0);
 1071              		.loc 1 117 10 discriminator 1 view .LVU230
 1072 002e E4B2     		uxtb	r4, r4
 1073              	.LVL112:
 118:/home/dat/Documents/colir_one/rocket_code/Module/Src/bno055.c **** 
 1074              		.loc 1 118 3 is_stmt 1 view .LVU231
 118:/home/dat/Documents/colir_one/rocket_code/Module/Src/bno055.c **** 
 1075              		.loc 1 118 13 is_stmt 0 view .LVU232
 1076 0030 0021     		movs	r1, #0
 1077 0032 3F20     		movs	r0, #63
ARM GAS  /tmp/ccP9B4zy.s 			page 27


 1078 0034 FFF7FEFF 		bl	bno055_writeData
 1079              	.LVL113:
 118:/home/dat/Documents/colir_one/rocket_code/Module/Src/bno055.c **** 
 1080              		.loc 1 118 10 discriminator 1 view .LVU233
 1081 0038 0443     		orrs	r4, r4, r0
 1082              	.LVL114:
 118:/home/dat/Documents/colir_one/rocket_code/Module/Src/bno055.c **** 
 1083              		.loc 1 118 10 discriminator 1 view .LVU234
 1084 003a E4B2     		uxtb	r4, r4
 1085              	.LVL115:
 121:/home/dat/Documents/colir_one/rocket_code/Module/Src/bno055.c ****   bno055_delay(10);
 1086              		.loc 1 121 3 is_stmt 1 view .LVU235
 121:/home/dat/Documents/colir_one/rocket_code/Module/Src/bno055.c ****   bno055_delay(10);
 1087              		.loc 1 121 13 is_stmt 0 view .LVU236
 1088 003c FFF7FEFF 		bl	bno055_setOperationModeConfig
 1089              	.LVL116:
 121:/home/dat/Documents/colir_one/rocket_code/Module/Src/bno055.c ****   bno055_delay(10);
 1090              		.loc 1 121 10 discriminator 1 view .LVU237
 1091 0040 0443     		orrs	r4, r4, r0
 1092              	.LVL117:
 121:/home/dat/Documents/colir_one/rocket_code/Module/Src/bno055.c ****   bno055_delay(10);
 1093              		.loc 1 121 10 discriminator 1 view .LVU238
 1094 0042 E4B2     		uxtb	r4, r4
 1095              	.LVL118:
 122:/home/dat/Documents/colir_one/rocket_code/Module/Src/bno055.c ****   return status;
 1096              		.loc 1 122 3 is_stmt 1 view .LVU239
 1097 0044 0A20     		movs	r0, #10
 1098 0046 FFF7FEFF 		bl	bno055_delay
 1099              	.LVL119:
 123:/home/dat/Documents/colir_one/rocket_code/Module/Src/bno055.c **** }
 1100              		.loc 1 123 3 view .LVU240
 124:/home/dat/Documents/colir_one/rocket_code/Module/Src/bno055.c **** 
 1101              		.loc 1 124 1 is_stmt 0 view .LVU241
 1102 004a 2046     		mov	r0, r4
 1103 004c 02B0     		add	sp, sp, #8
 1104              	.LCFI26:
 1105              		.cfi_remember_state
 1106              		.cfi_def_cfa_offset 8
 1107              		@ sp needed
 1108 004e 10BD     		pop	{r4, pc}
 1109              	.LVL120:
 1110              	.L59:
 1111              	.LCFI27:
 1112              		.cfi_restore_state
 115:/home/dat/Documents/colir_one/rocket_code/Module/Src/bno055.c ****   }
 1113              		.loc 1 115 5 is_stmt 1 view .LVU242
 1114 0050 0148     		ldr	r0, .L60
 1115 0052 FFF7FEFF 		bl	printf
 1116              	.LVL121:
 1117 0056 E6E7     		b	.L57
 1118              	.L61:
 1119              		.align	2
 1120              	.L60:
 1121 0058 00000000 		.word	.LC0
 1122              		.cfi_endproc
 1123              	.LFE151:
 1125              		.section	.text.bno055_getSWRevision,"ax",%progbits
ARM GAS  /tmp/ccP9B4zy.s 			page 28


 1126              		.align	1
 1127              		.global	bno055_getSWRevision
 1128              		.syntax unified
 1129              		.thumb
 1130              		.thumb_func
 1132              	bno055_getSWRevision:
 1133              	.LVL122:
 1134              	.LFB152:
 126:/home/dat/Documents/colir_one/rocket_code/Module/Src/bno055.c ****   HAL_StatusTypeDef status = HAL_OK;
 1135              		.loc 1 126 56 view -0
 1136              		.cfi_startproc
 1137              		@ args = 0, pretend = 0, frame = 8
 1138              		@ frame_needed = 0, uses_anonymous_args = 0
 126:/home/dat/Documents/colir_one/rocket_code/Module/Src/bno055.c ****   HAL_StatusTypeDef status = HAL_OK;
 1139              		.loc 1 126 56 is_stmt 0 view .LVU244
 1140 0000 30B5     		push	{r4, r5, lr}
 1141              	.LCFI28:
 1142              		.cfi_def_cfa_offset 12
 1143              		.cfi_offset 4, -12
 1144              		.cfi_offset 5, -8
 1145              		.cfi_offset 14, -4
 1146 0002 83B0     		sub	sp, sp, #12
 1147              	.LCFI29:
 1148              		.cfi_def_cfa_offset 24
 1149 0004 0546     		mov	r5, r0
 127:/home/dat/Documents/colir_one/rocket_code/Module/Src/bno055.c ****   status |= bno055_setPage(0);
 1150              		.loc 1 127 3 is_stmt 1 view .LVU245
 1151              	.LVL123:
 128:/home/dat/Documents/colir_one/rocket_code/Module/Src/bno055.c ****   uint8_t buffer[2];
 1152              		.loc 1 128 3 view .LVU246
 128:/home/dat/Documents/colir_one/rocket_code/Module/Src/bno055.c ****   uint8_t buffer[2];
 1153              		.loc 1 128 13 is_stmt 0 view .LVU247
 1154 0006 0020     		movs	r0, #0
 1155              	.LVL124:
 128:/home/dat/Documents/colir_one/rocket_code/Module/Src/bno055.c ****   uint8_t buffer[2];
 1156              		.loc 1 128 13 view .LVU248
 1157 0008 FFF7FEFF 		bl	bno055_setPage
 1158              	.LVL125:
 1159 000c 0446     		mov	r4, r0
 1160              	.LVL126:
 129:/home/dat/Documents/colir_one/rocket_code/Module/Src/bno055.c ****   status |= bno055_readData(BNO055_SW_REV_ID_LSB, buffer, 2);
 1161              		.loc 1 129 3 is_stmt 1 view .LVU249
 130:/home/dat/Documents/colir_one/rocket_code/Module/Src/bno055.c ****   *swRev = (int16_t)((buffer[1] << 8) | buffer[0]);
 1162              		.loc 1 130 3 view .LVU250
 130:/home/dat/Documents/colir_one/rocket_code/Module/Src/bno055.c ****   *swRev = (int16_t)((buffer[1] << 8) | buffer[0]);
 1163              		.loc 1 130 13 is_stmt 0 view .LVU251
 1164 000e 0222     		movs	r2, #2
 1165 0010 01A9     		add	r1, sp, #4
 1166 0012 0420     		movs	r0, #4
 1167 0014 FFF7FEFF 		bl	bno055_readData
 1168              	.LVL127:
 130:/home/dat/Documents/colir_one/rocket_code/Module/Src/bno055.c ****   *swRev = (int16_t)((buffer[1] << 8) | buffer[0]);
 1169              		.loc 1 130 10 discriminator 1 view .LVU252
 1170 0018 2043     		orrs	r0, r0, r4
 1171              	.LVL128:
 131:/home/dat/Documents/colir_one/rocket_code/Module/Src/bno055.c ****   return status;
 1172              		.loc 1 131 3 is_stmt 1 view .LVU253
ARM GAS  /tmp/ccP9B4zy.s 			page 29


 131:/home/dat/Documents/colir_one/rocket_code/Module/Src/bno055.c ****   return status;
 1173              		.loc 1 131 29 is_stmt 0 view .LVU254
 1174 001a 9DF80520 		ldrb	r2, [sp, #5]	@ zero_extendqisi2
 131:/home/dat/Documents/colir_one/rocket_code/Module/Src/bno055.c ****   return status;
 1175              		.loc 1 131 47 view .LVU255
 1176 001e 9DF80430 		ldrb	r3, [sp, #4]	@ zero_extendqisi2
 131:/home/dat/Documents/colir_one/rocket_code/Module/Src/bno055.c ****   return status;
 1177              		.loc 1 131 12 view .LVU256
 1178 0022 43EA0223 		orr	r3, r3, r2, lsl #8
 131:/home/dat/Documents/colir_one/rocket_code/Module/Src/bno055.c ****   return status;
 1179              		.loc 1 131 10 view .LVU257
 1180 0026 2B80     		strh	r3, [r5]	@ movhi
 132:/home/dat/Documents/colir_one/rocket_code/Module/Src/bno055.c **** }
 1181              		.loc 1 132 3 is_stmt 1 view .LVU258
 133:/home/dat/Documents/colir_one/rocket_code/Module/Src/bno055.c **** 
 1182              		.loc 1 133 1 is_stmt 0 view .LVU259
 1183 0028 C0B2     		uxtb	r0, r0
 133:/home/dat/Documents/colir_one/rocket_code/Module/Src/bno055.c **** 
 1184              		.loc 1 133 1 view .LVU260
 1185 002a 03B0     		add	sp, sp, #12
 1186              	.LCFI30:
 1187              		.cfi_def_cfa_offset 12
 1188              		@ sp needed
 1189 002c 30BD     		pop	{r4, r5, pc}
 133:/home/dat/Documents/colir_one/rocket_code/Module/Src/bno055.c **** 
 1190              		.loc 1 133 1 view .LVU261
 1191              		.cfi_endproc
 1192              	.LFE152:
 1194              		.section	.text.bno055_getBootloaderRevision,"ax",%progbits
 1195              		.align	1
 1196              		.global	bno055_getBootloaderRevision
 1197              		.syntax unified
 1198              		.thumb
 1199              		.thumb_func
 1201              	bno055_getBootloaderRevision:
 1202              	.LVL129:
 1203              	.LFB153:
 135:/home/dat/Documents/colir_one/rocket_code/Module/Src/bno055.c ****   HAL_StatusTypeDef status = HAL_OK;
 1204              		.loc 1 135 64 is_stmt 1 view -0
 1205              		.cfi_startproc
 1206              		@ args = 0, pretend = 0, frame = 0
 1207              		@ frame_needed = 0, uses_anonymous_args = 0
 135:/home/dat/Documents/colir_one/rocket_code/Module/Src/bno055.c ****   HAL_StatusTypeDef status = HAL_OK;
 1208              		.loc 1 135 64 is_stmt 0 view .LVU263
 1209 0000 38B5     		push	{r3, r4, r5, lr}
 1210              	.LCFI31:
 1211              		.cfi_def_cfa_offset 16
 1212              		.cfi_offset 3, -16
 1213              		.cfi_offset 4, -12
 1214              		.cfi_offset 5, -8
 1215              		.cfi_offset 14, -4
 1216 0002 0546     		mov	r5, r0
 136:/home/dat/Documents/colir_one/rocket_code/Module/Src/bno055.c ****   status |= bno055_setPage(0);
 1217              		.loc 1 136 3 is_stmt 1 view .LVU264
 1218              	.LVL130:
 137:/home/dat/Documents/colir_one/rocket_code/Module/Src/bno055.c ****   status |= bno055_readData(BNO055_BL_REV_ID, blRev, 1);
 1219              		.loc 1 137 3 view .LVU265
ARM GAS  /tmp/ccP9B4zy.s 			page 30


 137:/home/dat/Documents/colir_one/rocket_code/Module/Src/bno055.c ****   status |= bno055_readData(BNO055_BL_REV_ID, blRev, 1);
 1220              		.loc 1 137 13 is_stmt 0 view .LVU266
 1221 0004 0020     		movs	r0, #0
 1222              	.LVL131:
 137:/home/dat/Documents/colir_one/rocket_code/Module/Src/bno055.c ****   status |= bno055_readData(BNO055_BL_REV_ID, blRev, 1);
 1223              		.loc 1 137 13 view .LVU267
 1224 0006 FFF7FEFF 		bl	bno055_setPage
 1225              	.LVL132:
 1226 000a 0446     		mov	r4, r0
 1227              	.LVL133:
 138:/home/dat/Documents/colir_one/rocket_code/Module/Src/bno055.c ****   return status;
 1228              		.loc 1 138 3 is_stmt 1 view .LVU268
 138:/home/dat/Documents/colir_one/rocket_code/Module/Src/bno055.c ****   return status;
 1229              		.loc 1 138 13 is_stmt 0 view .LVU269
 1230 000c 0122     		movs	r2, #1
 1231 000e 2946     		mov	r1, r5
 1232 0010 0620     		movs	r0, #6
 1233 0012 FFF7FEFF 		bl	bno055_readData
 1234              	.LVL134:
 138:/home/dat/Documents/colir_one/rocket_code/Module/Src/bno055.c ****   return status;
 1235              		.loc 1 138 10 discriminator 1 view .LVU270
 1236 0016 2043     		orrs	r0, r0, r4
 1237              	.LVL135:
 139:/home/dat/Documents/colir_one/rocket_code/Module/Src/bno055.c **** }
 1238              		.loc 1 139 3 is_stmt 1 view .LVU271
 140:/home/dat/Documents/colir_one/rocket_code/Module/Src/bno055.c **** 
 1239              		.loc 1 140 1 is_stmt 0 view .LVU272
 1240 0018 C0B2     		uxtb	r0, r0
 140:/home/dat/Documents/colir_one/rocket_code/Module/Src/bno055.c **** 
 1241              		.loc 1 140 1 view .LVU273
 1242 001a 38BD     		pop	{r3, r4, r5, pc}
 140:/home/dat/Documents/colir_one/rocket_code/Module/Src/bno055.c **** 
 1243              		.loc 1 140 1 view .LVU274
 1244              		.cfi_endproc
 1245              	.LFE153:
 1247              		.section	.text.bno055_getSystemStatus,"ax",%progbits
 1248              		.align	1
 1249              		.global	bno055_getSystemStatus
 1250              		.syntax unified
 1251              		.thumb
 1252              		.thumb_func
 1254              	bno055_getSystemStatus:
 1255              	.LVL136:
 1256              	.LFB154:
 142:/home/dat/Documents/colir_one/rocket_code/Module/Src/bno055.c ****   HAL_StatusTypeDef status = HAL_OK;
 1257              		.loc 1 142 62 is_stmt 1 view -0
 1258              		.cfi_startproc
 1259              		@ args = 0, pretend = 0, frame = 0
 1260              		@ frame_needed = 0, uses_anonymous_args = 0
 142:/home/dat/Documents/colir_one/rocket_code/Module/Src/bno055.c ****   HAL_StatusTypeDef status = HAL_OK;
 1261              		.loc 1 142 62 is_stmt 0 view .LVU276
 1262 0000 38B5     		push	{r3, r4, r5, lr}
 1263              	.LCFI32:
 1264              		.cfi_def_cfa_offset 16
 1265              		.cfi_offset 3, -16
 1266              		.cfi_offset 4, -12
 1267              		.cfi_offset 5, -8
ARM GAS  /tmp/ccP9B4zy.s 			page 31


 1268              		.cfi_offset 14, -4
 1269 0002 0546     		mov	r5, r0
 143:/home/dat/Documents/colir_one/rocket_code/Module/Src/bno055.c ****   status |= bno055_setPage(0);
 1270              		.loc 1 143 3 is_stmt 1 view .LVU277
 1271              	.LVL137:
 144:/home/dat/Documents/colir_one/rocket_code/Module/Src/bno055.c ****   status |= bno055_readData(BNO055_SYS_STATUS, sysStatus, 1);
 1272              		.loc 1 144 3 view .LVU278
 144:/home/dat/Documents/colir_one/rocket_code/Module/Src/bno055.c ****   status |= bno055_readData(BNO055_SYS_STATUS, sysStatus, 1);
 1273              		.loc 1 144 13 is_stmt 0 view .LVU279
 1274 0004 0020     		movs	r0, #0
 1275              	.LVL138:
 144:/home/dat/Documents/colir_one/rocket_code/Module/Src/bno055.c ****   status |= bno055_readData(BNO055_SYS_STATUS, sysStatus, 1);
 1276              		.loc 1 144 13 view .LVU280
 1277 0006 FFF7FEFF 		bl	bno055_setPage
 1278              	.LVL139:
 1279 000a 0446     		mov	r4, r0
 1280              	.LVL140:
 145:/home/dat/Documents/colir_one/rocket_code/Module/Src/bno055.c ****   return status;
 1281              		.loc 1 145 3 is_stmt 1 view .LVU281
 145:/home/dat/Documents/colir_one/rocket_code/Module/Src/bno055.c ****   return status;
 1282              		.loc 1 145 13 is_stmt 0 view .LVU282
 1283 000c 0122     		movs	r2, #1
 1284 000e 2946     		mov	r1, r5
 1285 0010 3920     		movs	r0, #57
 1286 0012 FFF7FEFF 		bl	bno055_readData
 1287              	.LVL141:
 145:/home/dat/Documents/colir_one/rocket_code/Module/Src/bno055.c ****   return status;
 1288              		.loc 1 145 10 discriminator 1 view .LVU283
 1289 0016 2043     		orrs	r0, r0, r4
 1290              	.LVL142:
 146:/home/dat/Documents/colir_one/rocket_code/Module/Src/bno055.c **** }
 1291              		.loc 1 146 3 is_stmt 1 view .LVU284
 147:/home/dat/Documents/colir_one/rocket_code/Module/Src/bno055.c **** 
 1292              		.loc 1 147 1 is_stmt 0 view .LVU285
 1293 0018 C0B2     		uxtb	r0, r0
 147:/home/dat/Documents/colir_one/rocket_code/Module/Src/bno055.c **** 
 1294              		.loc 1 147 1 view .LVU286
 1295 001a 38BD     		pop	{r3, r4, r5, pc}
 147:/home/dat/Documents/colir_one/rocket_code/Module/Src/bno055.c **** 
 1296              		.loc 1 147 1 view .LVU287
 1297              		.cfi_endproc
 1298              	.LFE154:
 1300              		.section	.text.bno055_getSelfTestResult,"ax",%progbits
 1301              		.align	1
 1302              		.global	bno055_getSelfTestResult
 1303              		.syntax unified
 1304              		.thumb
 1305              		.thumb_func
 1307              	bno055_getSelfTestResult:
 1308              	.LVL143:
 1309              	.LFB155:
 149:/home/dat/Documents/colir_one/rocket_code/Module/Src/bno055.c ****   HAL_StatusTypeDef status = HAL_OK;
 1310              		.loc 1 149 79 is_stmt 1 view -0
 1311              		.cfi_startproc
 1312              		@ args = 0, pretend = 0, frame = 8
 1313              		@ frame_needed = 0, uses_anonymous_args = 0
 149:/home/dat/Documents/colir_one/rocket_code/Module/Src/bno055.c ****   HAL_StatusTypeDef status = HAL_OK;
ARM GAS  /tmp/ccP9B4zy.s 			page 32


 1314              		.loc 1 149 79 is_stmt 0 view .LVU289
 1315 0000 30B5     		push	{r4, r5, lr}
 1316              	.LCFI33:
 1317              		.cfi_def_cfa_offset 12
 1318              		.cfi_offset 4, -12
 1319              		.cfi_offset 5, -8
 1320              		.cfi_offset 14, -4
 1321 0002 83B0     		sub	sp, sp, #12
 1322              	.LCFI34:
 1323              		.cfi_def_cfa_offset 24
 1324 0004 0546     		mov	r5, r0
 150:/home/dat/Documents/colir_one/rocket_code/Module/Src/bno055.c ****   status |= bno055_setPage(0);
 1325              		.loc 1 150 3 is_stmt 1 view .LVU290
 1326              	.LVL144:
 151:/home/dat/Documents/colir_one/rocket_code/Module/Src/bno055.c ****   uint8_t tmp;
 1327              		.loc 1 151 3 view .LVU291
 151:/home/dat/Documents/colir_one/rocket_code/Module/Src/bno055.c ****   uint8_t tmp;
 1328              		.loc 1 151 13 is_stmt 0 view .LVU292
 1329 0006 0020     		movs	r0, #0
 1330              	.LVL145:
 151:/home/dat/Documents/colir_one/rocket_code/Module/Src/bno055.c ****   uint8_t tmp;
 1331              		.loc 1 151 13 view .LVU293
 1332 0008 FFF7FEFF 		bl	bno055_setPage
 1333              	.LVL146:
 1334 000c 0446     		mov	r4, r0
 1335              	.LVL147:
 152:/home/dat/Documents/colir_one/rocket_code/Module/Src/bno055.c ****   status |= bno055_readData(BNO055_ST_RESULT, &tmp, 1);
 1336              		.loc 1 152 3 is_stmt 1 view .LVU294
 153:/home/dat/Documents/colir_one/rocket_code/Module/Src/bno055.c ****   bno055_self_test_result_t _result ={0};
 1337              		.loc 1 153 3 view .LVU295
 153:/home/dat/Documents/colir_one/rocket_code/Module/Src/bno055.c ****   bno055_self_test_result_t _result ={0};
 1338              		.loc 1 153 13 is_stmt 0 view .LVU296
 1339 000e 0122     		movs	r2, #1
 1340 0010 0DF10701 		add	r1, sp, #7
 1341 0014 3620     		movs	r0, #54
 1342 0016 FFF7FEFF 		bl	bno055_readData
 1343              	.LVL148:
 153:/home/dat/Documents/colir_one/rocket_code/Module/Src/bno055.c ****   bno055_self_test_result_t _result ={0};
 1344              		.loc 1 153 10 discriminator 1 view .LVU297
 1345 001a 0443     		orrs	r4, r4, r0
 1346              	.LVL149:
 154:/home/dat/Documents/colir_one/rocket_code/Module/Src/bno055.c ****   _result.mcuState = (tmp >> 3) & 0x01;
 1347              		.loc 1 154 3 is_stmt 1 view .LVU298
 154:/home/dat/Documents/colir_one/rocket_code/Module/Src/bno055.c ****   _result.mcuState = (tmp >> 3) & 0x01;
 1348              		.loc 1 154 29 is_stmt 0 view .LVU299
 1349 001c 0023     		movs	r3, #0
 1350 001e 0093     		str	r3, [sp]
 155:/home/dat/Documents/colir_one/rocket_code/Module/Src/bno055.c ****   _result.gyrState = (tmp >> 2) & 0x01;
 1351              		.loc 1 155 3 is_stmt 1 view .LVU300
 155:/home/dat/Documents/colir_one/rocket_code/Module/Src/bno055.c ****   _result.gyrState = (tmp >> 2) & 0x01;
 1352              		.loc 1 155 33 is_stmt 0 view .LVU301
 1353 0020 9DF80730 		ldrb	r3, [sp, #7]	@ zero_extendqisi2
 1354 0024 C3F3C002 		ubfx	r2, r3, #3, #1
 155:/home/dat/Documents/colir_one/rocket_code/Module/Src/bno055.c ****   _result.gyrState = (tmp >> 2) & 0x01;
 1355              		.loc 1 155 20 view .LVU302
 1356 0028 8DF80020 		strb	r2, [sp]
 156:/home/dat/Documents/colir_one/rocket_code/Module/Src/bno055.c ****   _result.magState = (tmp >> 1) & 0x01;
ARM GAS  /tmp/ccP9B4zy.s 			page 33


 1357              		.loc 1 156 3 is_stmt 1 view .LVU303
 156:/home/dat/Documents/colir_one/rocket_code/Module/Src/bno055.c ****   _result.magState = (tmp >> 1) & 0x01;
 1358              		.loc 1 156 33 is_stmt 0 view .LVU304
 1359 002c C3F38002 		ubfx	r2, r3, #2, #1
 156:/home/dat/Documents/colir_one/rocket_code/Module/Src/bno055.c ****   _result.magState = (tmp >> 1) & 0x01;
 1360              		.loc 1 156 20 view .LVU305
 1361 0030 8DF80120 		strb	r2, [sp, #1]
 157:/home/dat/Documents/colir_one/rocket_code/Module/Src/bno055.c ****   _result.accState = (tmp >> 0) & 0x01;
 1362              		.loc 1 157 3 is_stmt 1 view .LVU306
 157:/home/dat/Documents/colir_one/rocket_code/Module/Src/bno055.c ****   _result.accState = (tmp >> 0) & 0x01;
 1363              		.loc 1 157 33 is_stmt 0 view .LVU307
 1364 0034 C3F34002 		ubfx	r2, r3, #1, #1
 157:/home/dat/Documents/colir_one/rocket_code/Module/Src/bno055.c ****   _result.accState = (tmp >> 0) & 0x01;
 1365              		.loc 1 157 20 view .LVU308
 1366 0038 8DF80220 		strb	r2, [sp, #2]
 158:/home/dat/Documents/colir_one/rocket_code/Module/Src/bno055.c **** 
 1367              		.loc 1 158 3 is_stmt 1 view .LVU309
 158:/home/dat/Documents/colir_one/rocket_code/Module/Src/bno055.c **** 
 1368              		.loc 1 158 33 is_stmt 0 view .LVU310
 1369 003c 03F00103 		and	r3, r3, #1
 158:/home/dat/Documents/colir_one/rocket_code/Module/Src/bno055.c **** 
 1370              		.loc 1 158 20 view .LVU311
 1371 0040 8DF80330 		strb	r3, [sp, #3]
 160:/home/dat/Documents/colir_one/rocket_code/Module/Src/bno055.c ****   return status;
 1372              		.loc 1 160 3 is_stmt 1 view .LVU312
 160:/home/dat/Documents/colir_one/rocket_code/Module/Src/bno055.c ****   return status;
 1373              		.loc 1 160 11 is_stmt 0 view .LVU313
 1374 0044 0098     		ldr	r0, [sp]
 1375 0046 2860     		str	r0, [r5]	@ unaligned
 161:/home/dat/Documents/colir_one/rocket_code/Module/Src/bno055.c **** }
 1376              		.loc 1 161 3 is_stmt 1 view .LVU314
 162:/home/dat/Documents/colir_one/rocket_code/Module/Src/bno055.c **** 
 1377              		.loc 1 162 1 is_stmt 0 view .LVU315
 1378 0048 E0B2     		uxtb	r0, r4
 1379 004a 03B0     		add	sp, sp, #12
 1380              	.LCFI35:
 1381              		.cfi_def_cfa_offset 12
 1382              		@ sp needed
 1383 004c 30BD     		pop	{r4, r5, pc}
 162:/home/dat/Documents/colir_one/rocket_code/Module/Src/bno055.c **** 
 1384              		.loc 1 162 1 view .LVU316
 1385              		.cfi_endproc
 1386              	.LFE155:
 1388              		.section	.text.bno055_getSystemError,"ax",%progbits
 1389              		.align	1
 1390              		.global	bno055_getSystemError
 1391              		.syntax unified
 1392              		.thumb
 1393              		.thumb_func
 1395              	bno055_getSystemError:
 1396              	.LVL150:
 1397              	.LFB156:
 164:/home/dat/Documents/colir_one/rocket_code/Module/Src/bno055.c ****   HAL_StatusTypeDef status = HAL_OK;
 1398              		.loc 1 164 60 is_stmt 1 view -0
 1399              		.cfi_startproc
 1400              		@ args = 0, pretend = 0, frame = 0
 1401              		@ frame_needed = 0, uses_anonymous_args = 0
ARM GAS  /tmp/ccP9B4zy.s 			page 34


 164:/home/dat/Documents/colir_one/rocket_code/Module/Src/bno055.c ****   HAL_StatusTypeDef status = HAL_OK;
 1402              		.loc 1 164 60 is_stmt 0 view .LVU318
 1403 0000 38B5     		push	{r3, r4, r5, lr}
 1404              	.LCFI36:
 1405              		.cfi_def_cfa_offset 16
 1406              		.cfi_offset 3, -16
 1407              		.cfi_offset 4, -12
 1408              		.cfi_offset 5, -8
 1409              		.cfi_offset 14, -4
 1410 0002 0546     		mov	r5, r0
 165:/home/dat/Documents/colir_one/rocket_code/Module/Src/bno055.c ****   status |= bno055_setPage(0);
 1411              		.loc 1 165 3 is_stmt 1 view .LVU319
 1412              	.LVL151:
 166:/home/dat/Documents/colir_one/rocket_code/Module/Src/bno055.c ****   status |= bno055_readData(BNO055_SYS_ERR, sysError, 1);
 1413              		.loc 1 166 3 view .LVU320
 166:/home/dat/Documents/colir_one/rocket_code/Module/Src/bno055.c ****   status |= bno055_readData(BNO055_SYS_ERR, sysError, 1);
 1414              		.loc 1 166 13 is_stmt 0 view .LVU321
 1415 0004 0020     		movs	r0, #0
 1416              	.LVL152:
 166:/home/dat/Documents/colir_one/rocket_code/Module/Src/bno055.c ****   status |= bno055_readData(BNO055_SYS_ERR, sysError, 1);
 1417              		.loc 1 166 13 view .LVU322
 1418 0006 FFF7FEFF 		bl	bno055_setPage
 1419              	.LVL153:
 1420 000a 0446     		mov	r4, r0
 1421              	.LVL154:
 167:/home/dat/Documents/colir_one/rocket_code/Module/Src/bno055.c ****   return status;
 1422              		.loc 1 167 3 is_stmt 1 view .LVU323
 167:/home/dat/Documents/colir_one/rocket_code/Module/Src/bno055.c ****   return status;
 1423              		.loc 1 167 13 is_stmt 0 view .LVU324
 1424 000c 0122     		movs	r2, #1
 1425 000e 2946     		mov	r1, r5
 1426 0010 3A20     		movs	r0, #58
 1427 0012 FFF7FEFF 		bl	bno055_readData
 1428              	.LVL155:
 167:/home/dat/Documents/colir_one/rocket_code/Module/Src/bno055.c ****   return status;
 1429              		.loc 1 167 10 discriminator 1 view .LVU325
 1430 0016 2043     		orrs	r0, r0, r4
 1431              	.LVL156:
 168:/home/dat/Documents/colir_one/rocket_code/Module/Src/bno055.c **** }
 1432              		.loc 1 168 3 is_stmt 1 view .LVU326
 169:/home/dat/Documents/colir_one/rocket_code/Module/Src/bno055.c **** 
 1433              		.loc 1 169 1 is_stmt 0 view .LVU327
 1434 0018 C0B2     		uxtb	r0, r0
 169:/home/dat/Documents/colir_one/rocket_code/Module/Src/bno055.c **** 
 1435              		.loc 1 169 1 view .LVU328
 1436 001a 38BD     		pop	{r3, r4, r5, pc}
 169:/home/dat/Documents/colir_one/rocket_code/Module/Src/bno055.c **** 
 1437              		.loc 1 169 1 view .LVU329
 1438              		.cfi_endproc
 1439              	.LFE156:
 1441              		.section	.text.bno055_getCalibrationState,"ax",%progbits
 1442              		.align	1
 1443              		.global	bno055_getCalibrationState
 1444              		.syntax unified
 1445              		.thumb
 1446              		.thumb_func
 1448              	bno055_getCalibrationState:
ARM GAS  /tmp/ccP9B4zy.s 			page 35


 1449              	.LVL157:
 1450              	.LFB157:
 171:/home/dat/Documents/colir_one/rocket_code/Module/Src/bno055.c ****   HAL_StatusTypeDef status = HAL_OK;
 1451              		.loc 1 171 84 is_stmt 1 view -0
 1452              		.cfi_startproc
 1453              		@ args = 0, pretend = 0, frame = 8
 1454              		@ frame_needed = 0, uses_anonymous_args = 0
 171:/home/dat/Documents/colir_one/rocket_code/Module/Src/bno055.c ****   HAL_StatusTypeDef status = HAL_OK;
 1455              		.loc 1 171 84 is_stmt 0 view .LVU331
 1456 0000 30B5     		push	{r4, r5, lr}
 1457              	.LCFI37:
 1458              		.cfi_def_cfa_offset 12
 1459              		.cfi_offset 4, -12
 1460              		.cfi_offset 5, -8
 1461              		.cfi_offset 14, -4
 1462 0002 83B0     		sub	sp, sp, #12
 1463              	.LCFI38:
 1464              		.cfi_def_cfa_offset 24
 1465 0004 0546     		mov	r5, r0
 172:/home/dat/Documents/colir_one/rocket_code/Module/Src/bno055.c ****   status |= bno055_setPage(0);
 1466              		.loc 1 172 3 is_stmt 1 view .LVU332
 1467              	.LVL158:
 173:/home/dat/Documents/colir_one/rocket_code/Module/Src/bno055.c ****   bno055_calibration_state_t _calState = {.sys = 0, .gyro = 0, .mag = 0, .accel = 0};
 1468              		.loc 1 173 3 view .LVU333
 173:/home/dat/Documents/colir_one/rocket_code/Module/Src/bno055.c ****   bno055_calibration_state_t _calState = {.sys = 0, .gyro = 0, .mag = 0, .accel = 0};
 1469              		.loc 1 173 13 is_stmt 0 view .LVU334
 1470 0006 0020     		movs	r0, #0
 1471              	.LVL159:
 173:/home/dat/Documents/colir_one/rocket_code/Module/Src/bno055.c ****   bno055_calibration_state_t _calState = {.sys = 0, .gyro = 0, .mag = 0, .accel = 0};
 1472              		.loc 1 173 13 view .LVU335
 1473 0008 FFF7FEFF 		bl	bno055_setPage
 1474              	.LVL160:
 1475 000c 0446     		mov	r4, r0
 1476              	.LVL161:
 174:/home/dat/Documents/colir_one/rocket_code/Module/Src/bno055.c ****   uint8_t tmp = 0;
 1477              		.loc 1 174 3 is_stmt 1 view .LVU336
 174:/home/dat/Documents/colir_one/rocket_code/Module/Src/bno055.c ****   uint8_t tmp = 0;
 1478              		.loc 1 174 30 is_stmt 0 view .LVU337
 1479 000e 0023     		movs	r3, #0
 1480 0010 0193     		str	r3, [sp, #4]
 175:/home/dat/Documents/colir_one/rocket_code/Module/Src/bno055.c ****   status |= bno055_readData(BNO055_CALIB_STAT, &tmp, 1);
 1481              		.loc 1 175 3 is_stmt 1 view .LVU338
 175:/home/dat/Documents/colir_one/rocket_code/Module/Src/bno055.c ****   status |= bno055_readData(BNO055_CALIB_STAT, &tmp, 1);
 1482              		.loc 1 175 11 is_stmt 0 view .LVU339
 1483 0012 8DF80330 		strb	r3, [sp, #3]
 176:/home/dat/Documents/colir_one/rocket_code/Module/Src/bno055.c ****   _calState.sys = (tmp >> 6) & 0x03;
 1484              		.loc 1 176 3 is_stmt 1 view .LVU340
 176:/home/dat/Documents/colir_one/rocket_code/Module/Src/bno055.c ****   _calState.sys = (tmp >> 6) & 0x03;
 1485              		.loc 1 176 13 is_stmt 0 view .LVU341
 1486 0016 0122     		movs	r2, #1
 1487 0018 0DF10301 		add	r1, sp, #3
 1488 001c 3520     		movs	r0, #53
 1489 001e FFF7FEFF 		bl	bno055_readData
 1490              	.LVL162:
 176:/home/dat/Documents/colir_one/rocket_code/Module/Src/bno055.c ****   _calState.sys = (tmp >> 6) & 0x03;
 1491              		.loc 1 176 10 discriminator 1 view .LVU342
 1492 0022 0443     		orrs	r4, r4, r0
ARM GAS  /tmp/ccP9B4zy.s 			page 36


 1493              	.LVL163:
 177:/home/dat/Documents/colir_one/rocket_code/Module/Src/bno055.c ****   _calState.gyro = (tmp >> 4) & 0x03;
 1494              		.loc 1 177 3 is_stmt 1 view .LVU343
 177:/home/dat/Documents/colir_one/rocket_code/Module/Src/bno055.c ****   _calState.gyro = (tmp >> 4) & 0x03;
 1495              		.loc 1 177 17 is_stmt 0 view .LVU344
 1496 0024 9DF80330 		ldrb	r3, [sp, #3]	@ zero_extendqisi2
 1497 0028 9A09     		lsrs	r2, r3, #6
 1498 002a 8DF80420 		strb	r2, [sp, #4]
 178:/home/dat/Documents/colir_one/rocket_code/Module/Src/bno055.c ****   _calState.accel = (tmp >> 2) & 0x03;
 1499              		.loc 1 178 3 is_stmt 1 view .LVU345
 178:/home/dat/Documents/colir_one/rocket_code/Module/Src/bno055.c ****   _calState.accel = (tmp >> 2) & 0x03;
 1500              		.loc 1 178 31 is_stmt 0 view .LVU346
 1501 002e C3F30112 		ubfx	r2, r3, #4, #2
 178:/home/dat/Documents/colir_one/rocket_code/Module/Src/bno055.c ****   _calState.accel = (tmp >> 2) & 0x03;
 1502              		.loc 1 178 18 view .LVU347
 1503 0032 8DF80520 		strb	r2, [sp, #5]
 179:/home/dat/Documents/colir_one/rocket_code/Module/Src/bno055.c ****   _calState.mag = tmp & 0x03;
 1504              		.loc 1 179 3 is_stmt 1 view .LVU348
 179:/home/dat/Documents/colir_one/rocket_code/Module/Src/bno055.c ****   _calState.mag = tmp & 0x03;
 1505              		.loc 1 179 32 is_stmt 0 view .LVU349
 1506 0036 C3F38102 		ubfx	r2, r3, #2, #2
 179:/home/dat/Documents/colir_one/rocket_code/Module/Src/bno055.c ****   _calState.mag = tmp & 0x03;
 1507              		.loc 1 179 19 view .LVU350
 1508 003a 8DF80720 		strb	r2, [sp, #7]
 180:/home/dat/Documents/colir_one/rocket_code/Module/Src/bno055.c **** 
 1509              		.loc 1 180 3 is_stmt 1 view .LVU351
 180:/home/dat/Documents/colir_one/rocket_code/Module/Src/bno055.c **** 
 1510              		.loc 1 180 23 is_stmt 0 view .LVU352
 1511 003e 03F00303 		and	r3, r3, #3
 180:/home/dat/Documents/colir_one/rocket_code/Module/Src/bno055.c **** 
 1512              		.loc 1 180 17 view .LVU353
 1513 0042 8DF80630 		strb	r3, [sp, #6]
 182:/home/dat/Documents/colir_one/rocket_code/Module/Src/bno055.c ****   return status;
 1514              		.loc 1 182 3 is_stmt 1 view .LVU354
 182:/home/dat/Documents/colir_one/rocket_code/Module/Src/bno055.c ****   return status;
 1515              		.loc 1 182 13 is_stmt 0 view .LVU355
 1516 0046 0198     		ldr	r0, [sp, #4]
 1517 0048 2860     		str	r0, [r5]	@ unaligned
 183:/home/dat/Documents/colir_one/rocket_code/Module/Src/bno055.c **** }
 1518              		.loc 1 183 3 is_stmt 1 view .LVU356
 184:/home/dat/Documents/colir_one/rocket_code/Module/Src/bno055.c **** 
 1519              		.loc 1 184 1 is_stmt 0 view .LVU357
 1520 004a E0B2     		uxtb	r0, r4
 1521 004c 03B0     		add	sp, sp, #12
 1522              	.LCFI39:
 1523              		.cfi_def_cfa_offset 12
 1524              		@ sp needed
 1525 004e 30BD     		pop	{r4, r5, pc}
 184:/home/dat/Documents/colir_one/rocket_code/Module/Src/bno055.c **** 
 1526              		.loc 1 184 1 view .LVU358
 1527              		.cfi_endproc
 1528              	.LFE157:
 1530              		.section	.text.bno055_getCalibrationData,"ax",%progbits
 1531              		.align	1
 1532              		.global	bno055_getCalibrationData
 1533              		.syntax unified
 1534              		.thumb
ARM GAS  /tmp/ccP9B4zy.s 			page 37


 1535              		.thumb_func
 1537              	bno055_getCalibrationData:
 1538              	.LVL164:
 1539              	.LFB158:
 187:/home/dat/Documents/colir_one/rocket_code/Module/Src/bno055.c ****   bno055_calibration_data_t _calData;
 1540              		.loc 1 187 81 is_stmt 1 view -0
 1541              		.cfi_startproc
 1542              		@ args = 0, pretend = 0, frame = 56
 1543              		@ frame_needed = 0, uses_anonymous_args = 0
 187:/home/dat/Documents/colir_one/rocket_code/Module/Src/bno055.c ****   bno055_calibration_data_t _calData;
 1544              		.loc 1 187 81 is_stmt 0 view .LVU360
 1545 0000 70B5     		push	{r4, r5, r6, lr}
 1546              	.LCFI40:
 1547              		.cfi_def_cfa_offset 16
 1548              		.cfi_offset 4, -16
 1549              		.cfi_offset 5, -12
 1550              		.cfi_offset 6, -8
 1551              		.cfi_offset 14, -4
 1552 0002 8EB0     		sub	sp, sp, #56
 1553              	.LCFI41:
 1554              		.cfi_def_cfa_offset 72
 1555 0004 0546     		mov	r5, r0
 188:/home/dat/Documents/colir_one/rocket_code/Module/Src/bno055.c ****   HAL_StatusTypeDef status = HAL_OK;
 1556              		.loc 1 188 3 is_stmt 1 view .LVU361
 189:/home/dat/Documents/colir_one/rocket_code/Module/Src/bno055.c ****   uint8_t buffer[22];
 1557              		.loc 1 189 3 view .LVU362
 1558              	.LVL165:
 190:/home/dat/Documents/colir_one/rocket_code/Module/Src/bno055.c ****   bno055_opmode_t operationMode = {0}; 
 1559              		.loc 1 190 3 view .LVU363
 191:/home/dat/Documents/colir_one/rocket_code/Module/Src/bno055.c ****   status |= bno055_getOperationMode(&operationMode);
 1560              		.loc 1 191 3 view .LVU364
 191:/home/dat/Documents/colir_one/rocket_code/Module/Src/bno055.c ****   status |= bno055_getOperationMode(&operationMode);
 1561              		.loc 1 191 19 is_stmt 0 view .LVU365
 1562 0006 0026     		movs	r6, #0
 1563 0008 8DF80760 		strb	r6, [sp, #7]
 192:/home/dat/Documents/colir_one/rocket_code/Module/Src/bno055.c ****   status |= bno055_setOperationModeConfig();
 1564              		.loc 1 192 3 is_stmt 1 view .LVU366
 192:/home/dat/Documents/colir_one/rocket_code/Module/Src/bno055.c ****   status |= bno055_setOperationModeConfig();
 1565              		.loc 1 192 13 is_stmt 0 view .LVU367
 1566 000c 0DF10700 		add	r0, sp, #7
 1567              	.LVL166:
 192:/home/dat/Documents/colir_one/rocket_code/Module/Src/bno055.c ****   status |= bno055_setOperationModeConfig();
 1568              		.loc 1 192 13 view .LVU368
 1569 0010 FFF7FEFF 		bl	bno055_getOperationMode
 1570              	.LVL167:
 1571 0014 0446     		mov	r4, r0
 1572              	.LVL168:
 193:/home/dat/Documents/colir_one/rocket_code/Module/Src/bno055.c ****   status |= bno055_setPage(0);
 1573              		.loc 1 193 3 is_stmt 1 view .LVU369
 193:/home/dat/Documents/colir_one/rocket_code/Module/Src/bno055.c ****   status |= bno055_setPage(0);
 1574              		.loc 1 193 13 is_stmt 0 view .LVU370
 1575 0016 FFF7FEFF 		bl	bno055_setOperationModeConfig
 1576              	.LVL169:
 193:/home/dat/Documents/colir_one/rocket_code/Module/Src/bno055.c ****   status |= bno055_setPage(0);
 1577              		.loc 1 193 10 discriminator 1 view .LVU371
 1578 001a 0443     		orrs	r4, r4, r0
 1579              	.LVL170:
ARM GAS  /tmp/ccP9B4zy.s 			page 38


 193:/home/dat/Documents/colir_one/rocket_code/Module/Src/bno055.c ****   status |= bno055_setPage(0);
 1580              		.loc 1 193 10 discriminator 1 view .LVU372
 1581 001c E4B2     		uxtb	r4, r4
 1582              	.LVL171:
 194:/home/dat/Documents/colir_one/rocket_code/Module/Src/bno055.c **** 
 1583              		.loc 1 194 3 is_stmt 1 view .LVU373
 194:/home/dat/Documents/colir_one/rocket_code/Module/Src/bno055.c **** 
 1584              		.loc 1 194 13 is_stmt 0 view .LVU374
 1585 001e 3046     		mov	r0, r6
 1586 0020 FFF7FEFF 		bl	bno055_setPage
 1587              	.LVL172:
 194:/home/dat/Documents/colir_one/rocket_code/Module/Src/bno055.c **** 
 1588              		.loc 1 194 10 discriminator 1 view .LVU375
 1589 0024 0443     		orrs	r4, r4, r0
 1590              	.LVL173:
 194:/home/dat/Documents/colir_one/rocket_code/Module/Src/bno055.c **** 
 1591              		.loc 1 194 10 discriminator 1 view .LVU376
 1592 0026 E4B2     		uxtb	r4, r4
 1593              	.LVL174:
 196:/home/dat/Documents/colir_one/rocket_code/Module/Src/bno055.c **** 
 1594              		.loc 1 196 3 is_stmt 1 view .LVU377
 196:/home/dat/Documents/colir_one/rocket_code/Module/Src/bno055.c **** 
 1595              		.loc 1 196 13 is_stmt 0 view .LVU378
 1596 0028 02AE     		add	r6, sp, #8
 1597 002a 1622     		movs	r2, #22
 1598 002c 3146     		mov	r1, r6
 1599 002e 5520     		movs	r0, #85
 1600 0030 FFF7FEFF 		bl	bno055_readData
 1601              	.LVL175:
 196:/home/dat/Documents/colir_one/rocket_code/Module/Src/bno055.c **** 
 1602              		.loc 1 196 10 discriminator 1 view .LVU379
 1603 0034 0443     		orrs	r4, r4, r0
 1604              	.LVL176:
 196:/home/dat/Documents/colir_one/rocket_code/Module/Src/bno055.c **** 
 1605              		.loc 1 196 10 discriminator 1 view .LVU380
 1606 0036 E4B2     		uxtb	r4, r4
 1607              	.LVL177:
 199:/home/dat/Documents/colir_one/rocket_code/Module/Src/bno055.c ****   memcpy(&_calData.offset.mag, buffer + 6, 6);
 1608              		.loc 1 199 3 is_stmt 1 view .LVU381
 1609 0038 96E80300 		ldm	r6, {r0, r1}
 1610 003c 0B90     		str	r0, [sp, #44]
 1611 003e ADF83010 		strh	r1, [sp, #48]	@ movhi
 200:/home/dat/Documents/colir_one/rocket_code/Module/Src/bno055.c ****   memcpy(&_calData.offset.gyro, buffer + 12, 6);
 1612              		.loc 1 200 3 view .LVU382
 1613 0042 DDF80E30 		ldr	r3, [sp, #14]	@ unaligned
 1614 0046 CDF82630 		str	r3, [sp, #38]	@ unaligned
 1615 004a BDF81230 		ldrh	r3, [sp, #18]	@ unaligned
 1616 004e ADF82A30 		strh	r3, [sp, #42]	@ unaligned
 201:/home/dat/Documents/colir_one/rocket_code/Module/Src/bno055.c ****   memcpy(&_calData.radius.accel, buffer + 18, 2);
 1617              		.loc 1 201 3 view .LVU383
 1618 0052 05AB     		add	r3, sp, #20
 1619 0054 93E80300 		ldm	r3, {r0, r1}
 1620 0058 0890     		str	r0, [sp, #32]
 1621 005a ADF82410 		strh	r1, [sp, #36]	@ movhi
 202:/home/dat/Documents/colir_one/rocket_code/Module/Src/bno055.c ****   memcpy(&_calData.radius.mag, buffer + 20, 2);
 1622              		.loc 1 202 3 view .LVU384
 1623 005e BDF81A30 		ldrh	r3, [sp, #26]
ARM GAS  /tmp/ccP9B4zy.s 			page 39


 1624 0062 ADF83430 		strh	r3, [sp, #52]	@ movhi
 203:/home/dat/Documents/colir_one/rocket_code/Module/Src/bno055.c **** 
 1625              		.loc 1 203 3 view .LVU385
 1626 0066 BDF81C30 		ldrh	r3, [sp, #28]
 1627 006a ADF83230 		strh	r3, [sp, #50]	@ movhi
 205:/home/dat/Documents/colir_one/rocket_code/Module/Src/bno055.c **** 
 1628              		.loc 1 205 3 view .LVU386
 205:/home/dat/Documents/colir_one/rocket_code/Module/Src/bno055.c **** 
 1629              		.loc 1 205 12 is_stmt 0 view .LVU387
 1630 006e 0DF1200C 		add	ip, sp, #32
 1631 0072 BCE80F00 		ldmia	ip!, {r0, r1, r2, r3}
 1632 0076 2860     		str	r0, [r5]	@ unaligned
 1633 0078 6960     		str	r1, [r5, #4]	@ unaligned
 1634 007a AA60     		str	r2, [r5, #8]	@ unaligned
 1635 007c EB60     		str	r3, [r5, #12]	@ unaligned
 1636 007e DCF80000 		ldr	r0, [ip]
 1637 0082 2861     		str	r0, [r5, #16]	@ unaligned
 1638 0084 BCF80430 		ldrh	r3, [ip, #4]	@ unaligned
 1639 0088 AB82     		strh	r3, [r5, #20]	@ unaligned
 207:/home/dat/Documents/colir_one/rocket_code/Module/Src/bno055.c **** 
 1640              		.loc 1 207 3 is_stmt 1 view .LVU388
 1641 008a 9DF80700 		ldrb	r0, [sp, #7]	@ zero_extendqisi2
 1642 008e FFF7FEFF 		bl	bno055_setOperationMode
 1643              	.LVL178:
 209:/home/dat/Documents/colir_one/rocket_code/Module/Src/bno055.c **** }
 1644              		.loc 1 209 3 view .LVU389
 210:/home/dat/Documents/colir_one/rocket_code/Module/Src/bno055.c **** 
 1645              		.loc 1 210 1 is_stmt 0 view .LVU390
 1646 0092 2046     		mov	r0, r4
 1647 0094 0EB0     		add	sp, sp, #56
 1648              	.LCFI42:
 1649              		.cfi_def_cfa_offset 16
 1650              		@ sp needed
 1651 0096 70BD     		pop	{r4, r5, r6, pc}
 210:/home/dat/Documents/colir_one/rocket_code/Module/Src/bno055.c **** 
 1652              		.loc 1 210 1 view .LVU391
 1653              		.cfi_endproc
 1654              	.LFE158:
 1656              		.section	.text.bno055_setCalibrationData,"ax",%progbits
 1657              		.align	1
 1658              		.global	bno055_setCalibrationData
 1659              		.syntax unified
 1660              		.thumb
 1661              		.thumb_func
 1663              	bno055_setCalibrationData:
 1664              	.LFB159:
 212:/home/dat/Documents/colir_one/rocket_code/Module/Src/bno055.c ****   HAL_StatusTypeDef status = HAL_OK;
 1665              		.loc 1 212 80 is_stmt 1 view -0
 1666              		.cfi_startproc
 1667              		@ args = 24, pretend = 16, frame = 32
 1668              		@ frame_needed = 0, uses_anonymous_args = 0
 1669 0000 84B0     		sub	sp, sp, #16
 1670              	.LCFI43:
 1671              		.cfi_def_cfa_offset 16
 1672 0002 30B5     		push	{r4, r5, lr}
 1673              	.LCFI44:
 1674              		.cfi_def_cfa_offset 28
ARM GAS  /tmp/ccP9B4zy.s 			page 40


 1675              		.cfi_offset 4, -28
 1676              		.cfi_offset 5, -24
 1677              		.cfi_offset 14, -20
 1678 0004 89B0     		sub	sp, sp, #36
 1679              	.LCFI45:
 1680              		.cfi_def_cfa_offset 64
 1681 0006 0CAC     		add	r4, sp, #48
 1682 0008 84E80F00 		stm	r4, {r0, r1, r2, r3}
 213:/home/dat/Documents/colir_one/rocket_code/Module/Src/bno055.c ****   uint8_t buffer[22];
 1683              		.loc 1 213 3 view .LVU393
 1684              	.LVL179:
 214:/home/dat/Documents/colir_one/rocket_code/Module/Src/bno055.c ****   bno055_opmode_t operationMode = {0};
 1685              		.loc 1 214 3 view .LVU394
 215:/home/dat/Documents/colir_one/rocket_code/Module/Src/bno055.c ****   status |= bno055_getOperationMode(&operationMode);
 1686              		.loc 1 215 3 view .LVU395
 215:/home/dat/Documents/colir_one/rocket_code/Module/Src/bno055.c ****   status |= bno055_getOperationMode(&operationMode);
 1687              		.loc 1 215 19 is_stmt 0 view .LVU396
 1688 000c 0024     		movs	r4, #0
 1689 000e 8DF80740 		strb	r4, [sp, #7]
 216:/home/dat/Documents/colir_one/rocket_code/Module/Src/bno055.c ****   status |= bno055_setOperationModeConfig();
 1690              		.loc 1 216 3 is_stmt 1 view .LVU397
 216:/home/dat/Documents/colir_one/rocket_code/Module/Src/bno055.c ****   status |= bno055_setOperationModeConfig();
 1691              		.loc 1 216 13 is_stmt 0 view .LVU398
 1692 0012 0DF10700 		add	r0, sp, #7
 1693 0016 FFF7FEFF 		bl	bno055_getOperationMode
 1694              	.LVL180:
 1695 001a 0546     		mov	r5, r0
 1696              	.LVL181:
 217:/home/dat/Documents/colir_one/rocket_code/Module/Src/bno055.c ****   status |= bno055_setPage(0);
 1697              		.loc 1 217 3 is_stmt 1 view .LVU399
 217:/home/dat/Documents/colir_one/rocket_code/Module/Src/bno055.c ****   status |= bno055_setPage(0);
 1698              		.loc 1 217 13 is_stmt 0 view .LVU400
 1699 001c FFF7FEFF 		bl	bno055_setOperationModeConfig
 1700              	.LVL182:
 217:/home/dat/Documents/colir_one/rocket_code/Module/Src/bno055.c ****   status |= bno055_setPage(0);
 1701              		.loc 1 217 10 discriminator 1 view .LVU401
 1702 0020 0543     		orrs	r5, r5, r0
 1703              	.LVL183:
 217:/home/dat/Documents/colir_one/rocket_code/Module/Src/bno055.c ****   status |= bno055_setPage(0);
 1704              		.loc 1 217 10 discriminator 1 view .LVU402
 1705 0022 EDB2     		uxtb	r5, r5
 1706              	.LVL184:
 218:/home/dat/Documents/colir_one/rocket_code/Module/Src/bno055.c **** 
 1707              		.loc 1 218 3 is_stmt 1 view .LVU403
 218:/home/dat/Documents/colir_one/rocket_code/Module/Src/bno055.c **** 
 1708              		.loc 1 218 13 is_stmt 0 view .LVU404
 1709 0024 2046     		mov	r0, r4
 1710 0026 FFF7FEFF 		bl	bno055_setPage
 1711              	.LVL185:
 218:/home/dat/Documents/colir_one/rocket_code/Module/Src/bno055.c **** 
 1712              		.loc 1 218 10 discriminator 1 view .LVU405
 1713 002a 0543     		orrs	r5, r5, r0
 1714              	.LVL186:
 218:/home/dat/Documents/colir_one/rocket_code/Module/Src/bno055.c **** 
 1715              		.loc 1 218 10 discriminator 1 view .LVU406
 1716 002c EDB2     		uxtb	r5, r5
 1717              	.LVL187:
ARM GAS  /tmp/ccP9B4zy.s 			page 41


 221:/home/dat/Documents/colir_one/rocket_code/Module/Src/bno055.c ****   memcpy(buffer + 6, &calData.offset.mag, 6);
 1718              		.loc 1 221 3 is_stmt 1 view .LVU407
 1719 002e 0F98     		ldr	r0, [sp, #60]	@ unaligned
 1720 0030 0290     		str	r0, [sp, #8]
 1721 0032 BDF84030 		ldrh	r3, [sp, #64]	@ unaligned
 1722 0036 ADF80C30 		strh	r3, [sp, #12]	@ unaligned
 222:/home/dat/Documents/colir_one/rocket_code/Module/Src/bno055.c ****   memcpy(buffer + 12, &calData.offset.gyro, 6);
 1723              		.loc 1 222 3 view .LVU408
 1724 003a DDF83630 		ldr	r3, [sp, #54]	@ unaligned
 1725 003e CDF80E30 		str	r3, [sp, #14]	@ unaligned
 1726 0042 BDF83A30 		ldrh	r3, [sp, #58]	@ unaligned
 1727 0046 ADF81230 		strh	r3, [sp, #18]	@ unaligned
 223:/home/dat/Documents/colir_one/rocket_code/Module/Src/bno055.c ****   memcpy(buffer + 18, &calData.radius.accel, 2);
 1728              		.loc 1 223 3 view .LVU409
 1729 004a 0C98     		ldr	r0, [sp, #48]	@ unaligned
 1730 004c 0590     		str	r0, [sp, #20]
 1731 004e BDF83430 		ldrh	r3, [sp, #52]	@ unaligned
 1732 0052 ADF81830 		strh	r3, [sp, #24]	@ unaligned
 224:/home/dat/Documents/colir_one/rocket_code/Module/Src/bno055.c ****   memcpy(buffer + 20, &calData.radius.mag, 2);
 1733              		.loc 1 224 3 view .LVU410
 1734 0056 BDF84430 		ldrh	r3, [sp, #68]
 1735 005a ADF81A30 		strh	r3, [sp, #26]	@ movhi
 225:/home/dat/Documents/colir_one/rocket_code/Module/Src/bno055.c **** 
 1736              		.loc 1 225 3 view .LVU411
 1737 005e BDF84230 		ldrh	r3, [sp, #66]
 1738 0062 ADF81C30 		strh	r3, [sp, #28]	@ movhi
 227:/home/dat/Documents/colir_one/rocket_code/Module/Src/bno055.c ****     // TODO(oliv4945): create multibytes write
 1739              		.loc 1 227 3 view .LVU412
 1740              	.LBB2:
 227:/home/dat/Documents/colir_one/rocket_code/Module/Src/bno055.c ****     // TODO(oliv4945): create multibytes write
 1741              		.loc 1 227 8 view .LVU413
 1742              	.LVL188:
 227:/home/dat/Documents/colir_one/rocket_code/Module/Src/bno055.c ****     // TODO(oliv4945): create multibytes write
 1743              		.loc 1 227 3 is_stmt 0 view .LVU414
 1744 0066 0DE0     		b	.L77
 1745              	.LVL189:
 1746              	.L78:
 229:/home/dat/Documents/colir_one/rocket_code/Module/Src/bno055.c ****   }
 1747              		.loc 1 229 5 is_stmt 1 view .LVU415
 229:/home/dat/Documents/colir_one/rocket_code/Module/Src/bno055.c ****   }
 1748              		.loc 1 229 15 is_stmt 0 view .LVU416
 1749 0068 04F12003 		add	r3, r4, #32
 1750 006c 6B44     		add	r3, sp, r3
 1751 006e 04F15500 		add	r0, r4, #85
 1752 0072 13F8181C 		ldrb	r1, [r3, #-24]	@ zero_extendqisi2
 1753 0076 C0B2     		uxtb	r0, r0
 1754 0078 FFF7FEFF 		bl	bno055_writeData
 1755              	.LVL190:
 229:/home/dat/Documents/colir_one/rocket_code/Module/Src/bno055.c ****   }
 1756              		.loc 1 229 12 discriminator 1 view .LVU417
 1757 007c 2843     		orrs	r0, r0, r5
 1758 007e C5B2     		uxtb	r5, r0
 1759              	.LVL191:
 227:/home/dat/Documents/colir_one/rocket_code/Module/Src/bno055.c ****     // TODO(oliv4945): create multibytes write
 1760              		.loc 1 227 30 is_stmt 1 discriminator 3 view .LVU418
 1761 0080 0134     		adds	r4, r4, #1
 1762              	.LVL192:
ARM GAS  /tmp/ccP9B4zy.s 			page 42


 227:/home/dat/Documents/colir_one/rocket_code/Module/Src/bno055.c ****     // TODO(oliv4945): create multibytes write
 1763              		.loc 1 227 30 is_stmt 0 discriminator 3 view .LVU419
 1764 0082 E4B2     		uxtb	r4, r4
 1765              	.LVL193:
 1766              	.L77:
 227:/home/dat/Documents/colir_one/rocket_code/Module/Src/bno055.c ****     // TODO(oliv4945): create multibytes write
 1767              		.loc 1 227 23 is_stmt 1 discriminator 1 view .LVU420
 1768 0084 152C     		cmp	r4, #21
 1769 0086 EFD9     		bls	.L78
 227:/home/dat/Documents/colir_one/rocket_code/Module/Src/bno055.c ****     // TODO(oliv4945): create multibytes write
 1770              		.loc 1 227 23 is_stmt 0 discriminator 1 view .LVU421
 1771              	.LBE2:
 232:/home/dat/Documents/colir_one/rocket_code/Module/Src/bno055.c ****   return status;
 1772              		.loc 1 232 3 is_stmt 1 view .LVU422
 232:/home/dat/Documents/colir_one/rocket_code/Module/Src/bno055.c ****   return status;
 1773              		.loc 1 232 13 is_stmt 0 view .LVU423
 1774 0088 9DF80700 		ldrb	r0, [sp, #7]	@ zero_extendqisi2
 1775 008c FFF7FEFF 		bl	bno055_setOperationMode
 1776              	.LVL194:
 232:/home/dat/Documents/colir_one/rocket_code/Module/Src/bno055.c ****   return status;
 1777              		.loc 1 232 10 discriminator 1 view .LVU424
 1778 0090 2843     		orrs	r0, r0, r5
 1779              	.LVL195:
 233:/home/dat/Documents/colir_one/rocket_code/Module/Src/bno055.c **** }
 1780              		.loc 1 233 3 is_stmt 1 view .LVU425
 234:/home/dat/Documents/colir_one/rocket_code/Module/Src/bno055.c **** 
 1781              		.loc 1 234 1 is_stmt 0 view .LVU426
 1782 0092 C0B2     		uxtb	r0, r0
 234:/home/dat/Documents/colir_one/rocket_code/Module/Src/bno055.c **** 
 1783              		.loc 1 234 1 view .LVU427
 1784 0094 09B0     		add	sp, sp, #36
 1785              	.LCFI46:
 1786              		.cfi_def_cfa_offset 28
 1787              		@ sp needed
 1788 0096 BDE83040 		pop	{r4, r5, lr}
 1789              	.LCFI47:
 1790              		.cfi_restore 14
 1791              		.cfi_restore 5
 1792              		.cfi_restore 4
 1793              		.cfi_def_cfa_offset 16
 1794              	.LVL196:
 234:/home/dat/Documents/colir_one/rocket_code/Module/Src/bno055.c **** 
 1795              		.loc 1 234 1 view .LVU428
 1796 009a 04B0     		add	sp, sp, #16
 1797              	.LCFI48:
 1798              		.cfi_def_cfa_offset 0
 1799 009c 7047     		bx	lr
 1800              		.cfi_endproc
 1801              	.LFE159:
 1803              		.section	.text.bno055_getVectorAccelerometer,"ax",%progbits
 1804              		.align	1
 1805              		.global	bno055_getVectorAccelerometer
 1806              		.syntax unified
 1807              		.thumb
 1808              		.thumb_func
 1810              	bno055_getVectorAccelerometer:
 1811              	.LVL197:
ARM GAS  /tmp/ccP9B4zy.s 			page 43


 1812              	.LFB161:
 276:/home/dat/Documents/colir_one/rocket_code/Module/Src/bno055.c **** 
 277:/home/dat/Documents/colir_one/rocket_code/Module/Src/bno055.c **** HAL_StatusTypeDef bno055_getVectorAccelerometer(bno055_vector_t* xyz) {
 1813              		.loc 1 277 71 is_stmt 1 view -0
 1814              		.cfi_startproc
 1815              		@ args = 0, pretend = 0, frame = 0
 1816              		@ frame_needed = 0, uses_anonymous_args = 0
 1817              		.loc 1 277 71 is_stmt 0 view .LVU430
 1818 0000 08B5     		push	{r3, lr}
 1819              	.LCFI49:
 1820              		.cfi_def_cfa_offset 8
 1821              		.cfi_offset 3, -8
 1822              		.cfi_offset 14, -4
 1823 0002 0146     		mov	r1, r0
 278:/home/dat/Documents/colir_one/rocket_code/Module/Src/bno055.c ****   HAL_StatusTypeDef status = bno055_getVector(BNO055_VECTOR_ACCELEROMETER, xyz);
 1824              		.loc 1 278 3 is_stmt 1 view .LVU431
 1825              		.loc 1 278 30 is_stmt 0 view .LVU432
 1826 0004 0820     		movs	r0, #8
 1827              	.LVL198:
 1828              		.loc 1 278 30 view .LVU433
 1829 0006 FFF7FEFF 		bl	bno055_getVector
 1830              	.LVL199:
 279:/home/dat/Documents/colir_one/rocket_code/Module/Src/bno055.c ****   return status;
 1831              		.loc 1 279 3 is_stmt 1 view .LVU434
 280:/home/dat/Documents/colir_one/rocket_code/Module/Src/bno055.c **** }
 1832              		.loc 1 280 1 is_stmt 0 view .LVU435
 1833 000a 08BD     		pop	{r3, pc}
 1834              		.cfi_endproc
 1835              	.LFE161:
 1837              		.section	.text.bno055_getVectorMagnetometer,"ax",%progbits
 1838              		.align	1
 1839              		.global	bno055_getVectorMagnetometer
 1840              		.syntax unified
 1841              		.thumb
 1842              		.thumb_func
 1844              	bno055_getVectorMagnetometer:
 1845              	.LVL200:
 1846              	.LFB162:
 281:/home/dat/Documents/colir_one/rocket_code/Module/Src/bno055.c **** HAL_StatusTypeDef bno055_getVectorMagnetometer(bno055_vector_t* xyz) {
 1847              		.loc 1 281 70 is_stmt 1 view -0
 1848              		.cfi_startproc
 1849              		@ args = 0, pretend = 0, frame = 0
 1850              		@ frame_needed = 0, uses_anonymous_args = 0
 1851              		.loc 1 281 70 is_stmt 0 view .LVU437
 1852 0000 08B5     		push	{r3, lr}
 1853              	.LCFI50:
 1854              		.cfi_def_cfa_offset 8
 1855              		.cfi_offset 3, -8
 1856              		.cfi_offset 14, -4
 1857 0002 0146     		mov	r1, r0
 282:/home/dat/Documents/colir_one/rocket_code/Module/Src/bno055.c ****   HAL_StatusTypeDef status = bno055_getVector(BNO055_VECTOR_MAGNETOMETER, xyz);
 1858              		.loc 1 282 3 is_stmt 1 view .LVU438
 1859              		.loc 1 282 30 is_stmt 0 view .LVU439
 1860 0004 0E20     		movs	r0, #14
 1861              	.LVL201:
 1862              		.loc 1 282 30 view .LVU440
 1863 0006 FFF7FEFF 		bl	bno055_getVector
ARM GAS  /tmp/ccP9B4zy.s 			page 44


 1864              	.LVL202:
 283:/home/dat/Documents/colir_one/rocket_code/Module/Src/bno055.c ****   return status;
 1865              		.loc 1 283 3 is_stmt 1 view .LVU441
 284:/home/dat/Documents/colir_one/rocket_code/Module/Src/bno055.c **** }
 1866              		.loc 1 284 1 is_stmt 0 view .LVU442
 1867 000a 08BD     		pop	{r3, pc}
 1868              		.cfi_endproc
 1869              	.LFE162:
 1871              		.section	.text.bno055_getVectorGyroscope,"ax",%progbits
 1872              		.align	1
 1873              		.global	bno055_getVectorGyroscope
 1874              		.syntax unified
 1875              		.thumb
 1876              		.thumb_func
 1878              	bno055_getVectorGyroscope:
 1879              	.LVL203:
 1880              	.LFB163:
 285:/home/dat/Documents/colir_one/rocket_code/Module/Src/bno055.c **** HAL_StatusTypeDef bno055_getVectorGyroscope(bno055_vector_t* xyz) {
 1881              		.loc 1 285 67 is_stmt 1 view -0
 1882              		.cfi_startproc
 1883              		@ args = 0, pretend = 0, frame = 0
 1884              		@ frame_needed = 0, uses_anonymous_args = 0
 1885              		.loc 1 285 67 is_stmt 0 view .LVU444
 1886 0000 08B5     		push	{r3, lr}
 1887              	.LCFI51:
 1888              		.cfi_def_cfa_offset 8
 1889              		.cfi_offset 3, -8
 1890              		.cfi_offset 14, -4
 1891 0002 0146     		mov	r1, r0
 286:/home/dat/Documents/colir_one/rocket_code/Module/Src/bno055.c ****   HAL_StatusTypeDef status = bno055_getVector(BNO055_VECTOR_GYROSCOPE, xyz);
 1892              		.loc 1 286 3 is_stmt 1 view .LVU445
 1893              		.loc 1 286 30 is_stmt 0 view .LVU446
 1894 0004 1420     		movs	r0, #20
 1895              	.LVL204:
 1896              		.loc 1 286 30 view .LVU447
 1897 0006 FFF7FEFF 		bl	bno055_getVector
 1898              	.LVL205:
 287:/home/dat/Documents/colir_one/rocket_code/Module/Src/bno055.c ****   return status;
 1899              		.loc 1 287 3 is_stmt 1 view .LVU448
 288:/home/dat/Documents/colir_one/rocket_code/Module/Src/bno055.c **** }
 1900              		.loc 1 288 1 is_stmt 0 view .LVU449
 1901 000a 08BD     		pop	{r3, pc}
 1902              		.cfi_endproc
 1903              	.LFE163:
 1905              		.section	.text.bno055_getVectorEuler,"ax",%progbits
 1906              		.align	1
 1907              		.global	bno055_getVectorEuler
 1908              		.syntax unified
 1909              		.thumb
 1910              		.thumb_func
 1912              	bno055_getVectorEuler:
 1913              	.LVL206:
 1914              	.LFB164:
 289:/home/dat/Documents/colir_one/rocket_code/Module/Src/bno055.c **** HAL_StatusTypeDef bno055_getVectorEuler(bno055_vector_t* xyz) {
 1915              		.loc 1 289 63 is_stmt 1 view -0
 1916              		.cfi_startproc
 1917              		@ args = 0, pretend = 0, frame = 0
ARM GAS  /tmp/ccP9B4zy.s 			page 45


 1918              		@ frame_needed = 0, uses_anonymous_args = 0
 1919              		.loc 1 289 63 is_stmt 0 view .LVU451
 1920 0000 08B5     		push	{r3, lr}
 1921              	.LCFI52:
 1922              		.cfi_def_cfa_offset 8
 1923              		.cfi_offset 3, -8
 1924              		.cfi_offset 14, -4
 1925 0002 0146     		mov	r1, r0
 290:/home/dat/Documents/colir_one/rocket_code/Module/Src/bno055.c ****   HAL_StatusTypeDef status = bno055_getVector(BNO055_VECTOR_EULER, xyz);
 1926              		.loc 1 290 3 is_stmt 1 view .LVU452
 1927              		.loc 1 290 30 is_stmt 0 view .LVU453
 1928 0004 1A20     		movs	r0, #26
 1929              	.LVL207:
 1930              		.loc 1 290 30 view .LVU454
 1931 0006 FFF7FEFF 		bl	bno055_getVector
 1932              	.LVL208:
 291:/home/dat/Documents/colir_one/rocket_code/Module/Src/bno055.c ****   return status;
 1933              		.loc 1 291 3 is_stmt 1 view .LVU455
 292:/home/dat/Documents/colir_one/rocket_code/Module/Src/bno055.c **** }
 1934              		.loc 1 292 1 is_stmt 0 view .LVU456
 1935 000a 08BD     		pop	{r3, pc}
 1936              		.cfi_endproc
 1937              	.LFE164:
 1939              		.section	.text.bno055_getVectorLinearAccel,"ax",%progbits
 1940              		.align	1
 1941              		.global	bno055_getVectorLinearAccel
 1942              		.syntax unified
 1943              		.thumb
 1944              		.thumb_func
 1946              	bno055_getVectorLinearAccel:
 1947              	.LVL209:
 1948              	.LFB165:
 293:/home/dat/Documents/colir_one/rocket_code/Module/Src/bno055.c **** HAL_StatusTypeDef bno055_getVectorLinearAccel(bno055_vector_t* xyz) {
 1949              		.loc 1 293 69 is_stmt 1 view -0
 1950              		.cfi_startproc
 1951              		@ args = 0, pretend = 0, frame = 0
 1952              		@ frame_needed = 0, uses_anonymous_args = 0
 1953              		.loc 1 293 69 is_stmt 0 view .LVU458
 1954 0000 08B5     		push	{r3, lr}
 1955              	.LCFI53:
 1956              		.cfi_def_cfa_offset 8
 1957              		.cfi_offset 3, -8
 1958              		.cfi_offset 14, -4
 1959 0002 0146     		mov	r1, r0
 294:/home/dat/Documents/colir_one/rocket_code/Module/Src/bno055.c ****   HAL_StatusTypeDef status = bno055_getVector(BNO055_VECTOR_LINEARACCEL, xyz);
 1960              		.loc 1 294 3 is_stmt 1 view .LVU459
 1961              		.loc 1 294 30 is_stmt 0 view .LVU460
 1962 0004 2820     		movs	r0, #40
 1963              	.LVL210:
 1964              		.loc 1 294 30 view .LVU461
 1965 0006 FFF7FEFF 		bl	bno055_getVector
 1966              	.LVL211:
 295:/home/dat/Documents/colir_one/rocket_code/Module/Src/bno055.c ****   return status;
 1967              		.loc 1 295 3 is_stmt 1 view .LVU462
 296:/home/dat/Documents/colir_one/rocket_code/Module/Src/bno055.c **** }
 1968              		.loc 1 296 1 is_stmt 0 view .LVU463
 1969 000a 08BD     		pop	{r3, pc}
ARM GAS  /tmp/ccP9B4zy.s 			page 46


 1970              		.cfi_endproc
 1971              	.LFE165:
 1973              		.section	.text.bno055_getVectorGravity,"ax",%progbits
 1974              		.align	1
 1975              		.global	bno055_getVectorGravity
 1976              		.syntax unified
 1977              		.thumb
 1978              		.thumb_func
 1980              	bno055_getVectorGravity:
 1981              	.LVL212:
 1982              	.LFB166:
 297:/home/dat/Documents/colir_one/rocket_code/Module/Src/bno055.c **** HAL_StatusTypeDef bno055_getVectorGravity(bno055_vector_t* xyz) {
 1983              		.loc 1 297 65 is_stmt 1 view -0
 1984              		.cfi_startproc
 1985              		@ args = 0, pretend = 0, frame = 0
 1986              		@ frame_needed = 0, uses_anonymous_args = 0
 1987              		.loc 1 297 65 is_stmt 0 view .LVU465
 1988 0000 08B5     		push	{r3, lr}
 1989              	.LCFI54:
 1990              		.cfi_def_cfa_offset 8
 1991              		.cfi_offset 3, -8
 1992              		.cfi_offset 14, -4
 1993 0002 0146     		mov	r1, r0
 298:/home/dat/Documents/colir_one/rocket_code/Module/Src/bno055.c ****   HAL_StatusTypeDef status = bno055_getVector(BNO055_VECTOR_GRAVITY, xyz);
 1994              		.loc 1 298 3 is_stmt 1 view .LVU466
 1995              		.loc 1 298 30 is_stmt 0 view .LVU467
 1996 0004 2E20     		movs	r0, #46
 1997              	.LVL213:
 1998              		.loc 1 298 30 view .LVU468
 1999 0006 FFF7FEFF 		bl	bno055_getVector
 2000              	.LVL214:
 299:/home/dat/Documents/colir_one/rocket_code/Module/Src/bno055.c ****   return status;
 2001              		.loc 1 299 3 is_stmt 1 view .LVU469
 300:/home/dat/Documents/colir_one/rocket_code/Module/Src/bno055.c **** }
 2002              		.loc 1 300 1 is_stmt 0 view .LVU470
 2003 000a 08BD     		pop	{r3, pc}
 2004              		.cfi_endproc
 2005              	.LFE166:
 2007              		.section	.text.bno055_getVectorQuaternion,"ax",%progbits
 2008              		.align	1
 2009              		.global	bno055_getVectorQuaternion
 2010              		.syntax unified
 2011              		.thumb
 2012              		.thumb_func
 2014              	bno055_getVectorQuaternion:
 2015              	.LVL215:
 2016              	.LFB167:
 301:/home/dat/Documents/colir_one/rocket_code/Module/Src/bno055.c **** HAL_StatusTypeDef bno055_getVectorQuaternion(bno055_vector_t* xyz) {
 2017              		.loc 1 301 68 is_stmt 1 view -0
 2018              		.cfi_startproc
 2019              		@ args = 0, pretend = 0, frame = 0
 2020              		@ frame_needed = 0, uses_anonymous_args = 0
 2021              		.loc 1 301 68 is_stmt 0 view .LVU472
 2022 0000 08B5     		push	{r3, lr}
 2023              	.LCFI55:
 2024              		.cfi_def_cfa_offset 8
 2025              		.cfi_offset 3, -8
ARM GAS  /tmp/ccP9B4zy.s 			page 47


 2026              		.cfi_offset 14, -4
 2027 0002 0146     		mov	r1, r0
 302:/home/dat/Documents/colir_one/rocket_code/Module/Src/bno055.c ****   HAL_StatusTypeDef status = bno055_getVector(BNO055_VECTOR_QUATERNION, xyz);
 2028              		.loc 1 302 3 is_stmt 1 view .LVU473
 2029              		.loc 1 302 30 is_stmt 0 view .LVU474
 2030 0004 2020     		movs	r0, #32
 2031              	.LVL216:
 2032              		.loc 1 302 30 view .LVU475
 2033 0006 FFF7FEFF 		bl	bno055_getVector
 2034              	.LVL217:
 303:/home/dat/Documents/colir_one/rocket_code/Module/Src/bno055.c ****   return status;
 2035              		.loc 1 303 3 is_stmt 1 view .LVU476
 304:/home/dat/Documents/colir_one/rocket_code/Module/Src/bno055.c **** }
 2036              		.loc 1 304 1 is_stmt 0 view .LVU477
 2037 000a 08BD     		pop	{r3, pc}
 2038              		.cfi_endproc
 2039              	.LFE167:
 2041              		.section	.text.bno055_setAxisMap,"ax",%progbits
 2042              		.align	1
 2043              		.global	bno055_setAxisMap
 2044              		.syntax unified
 2045              		.thumb
 2046              		.thumb_func
 2048              	bno055_setAxisMap:
 2049              	.LFB168:
 305:/home/dat/Documents/colir_one/rocket_code/Module/Src/bno055.c **** 
 306:/home/dat/Documents/colir_one/rocket_code/Module/Src/bno055.c **** HAL_StatusTypeDef bno055_setAxisMap(bno055_axis_map_t axis) {
 2050              		.loc 1 306 61 is_stmt 1 view -0
 2051              		.cfi_startproc
 2052              		@ args = 0, pretend = 0, frame = 8
 2053              		@ frame_needed = 0, uses_anonymous_args = 0
 2054 0000 30B5     		push	{r4, r5, lr}
 2055              	.LCFI56:
 2056              		.cfi_def_cfa_offset 12
 2057              		.cfi_offset 4, -12
 2058              		.cfi_offset 5, -8
 2059              		.cfi_offset 14, -4
 2060 0002 83B0     		sub	sp, sp, #12
 2061              	.LCFI57:
 2062              		.cfi_def_cfa_offset 24
 2063 0004 02AB     		add	r3, sp, #8
 2064 0006 03E90300 		stmdb	r3, {r0, r1}
 307:/home/dat/Documents/colir_one/rocket_code/Module/Src/bno055.c ****   HAL_StatusTypeDef status = HAL_OK;
 2065              		.loc 1 307 3 view .LVU479
 2066              	.LVL218:
 308:/home/dat/Documents/colir_one/rocket_code/Module/Src/bno055.c ****   uint8_t axisRemap = (axis.z << 4) | (axis.y << 2) | (axis.x);
 2067              		.loc 1 308 3 view .LVU480
 2068              		.loc 1 308 28 is_stmt 0 view .LVU481
 2069 000a 9DF80420 		ldrb	r2, [sp, #4]	@ zero_extendqisi2
 2070              		.loc 1 308 44 view .LVU482
 2071 000e 9DF80230 		ldrb	r3, [sp, #2]	@ zero_extendqisi2
 2072              		.loc 1 308 37 view .LVU483
 2073 0012 9B00     		lsls	r3, r3, #2
 2074 0014 43EA0213 		orr	r3, r3, r2, lsl #4
 2075 0018 5BB2     		sxtb	r3, r3
 2076              		.loc 1 308 60 view .LVU484
 2077 001a 9DF80010 		ldrb	r1, [sp]	@ zero_extendqisi2
ARM GAS  /tmp/ccP9B4zy.s 			page 48


 2078              		.loc 1 308 11 view .LVU485
 2079 001e 1943     		orrs	r1, r1, r3
 2080              	.LVL219:
 309:/home/dat/Documents/colir_one/rocket_code/Module/Src/bno055.c ****   uint8_t axisMapSign = (axis.x_sign << 2) | (axis.y_sign << 1) | (axis.z_sign);
 2081              		.loc 1 309 3 is_stmt 1 view .LVU486
 2082              		.loc 1 309 30 is_stmt 0 view .LVU487
 2083 0020 9DF80120 		ldrb	r2, [sp, #1]	@ zero_extendqisi2
 2084              		.loc 1 309 51 view .LVU488
 2085 0024 9DF80330 		ldrb	r3, [sp, #3]	@ zero_extendqisi2
 2086              		.loc 1 309 44 view .LVU489
 2087 0028 5B00     		lsls	r3, r3, #1
 2088 002a 43EA8203 		orr	r3, r3, r2, lsl #2
 2089 002e 5BB2     		sxtb	r3, r3
 2090              		.loc 1 309 72 view .LVU490
 2091 0030 9DF80550 		ldrb	r5, [sp, #5]	@ zero_extendqisi2
 2092              		.loc 1 309 11 view .LVU491
 2093 0034 1D43     		orrs	r5, r5, r3
 2094 0036 EDB2     		uxtb	r5, r5
 2095              	.LVL220:
 310:/home/dat/Documents/colir_one/rocket_code/Module/Src/bno055.c ****   status |= bno055_writeData(BNO055_AXIS_MAP_CONFIG, axisRemap);
 2096              		.loc 1 310 3 is_stmt 1 view .LVU492
 2097              		.loc 1 310 13 is_stmt 0 view .LVU493
 2098 0038 C9B2     		uxtb	r1, r1
 2099              		.loc 1 310 13 view .LVU494
 2100 003a 4120     		movs	r0, #65
 2101 003c FFF7FEFF 		bl	bno055_writeData
 2102              	.LVL221:
 2103              		.loc 1 310 13 view .LVU495
 2104 0040 0446     		mov	r4, r0
 2105              	.LVL222:
 311:/home/dat/Documents/colir_one/rocket_code/Module/Src/bno055.c ****   status |= bno055_writeData(BNO055_AXIS_MAP_SIGN, axisMapSign);
 2106              		.loc 1 311 3 is_stmt 1 view .LVU496
 2107              		.loc 1 311 13 is_stmt 0 view .LVU497
 2108 0042 2946     		mov	r1, r5
 2109 0044 4220     		movs	r0, #66
 2110 0046 FFF7FEFF 		bl	bno055_writeData
 2111              	.LVL223:
 2112              		.loc 1 311 10 discriminator 1 view .LVU498
 2113 004a 2043     		orrs	r0, r0, r4
 2114              	.LVL224:
 312:/home/dat/Documents/colir_one/rocket_code/Module/Src/bno055.c ****   return status;
 2115              		.loc 1 312 3 is_stmt 1 view .LVU499
 313:/home/dat/Documents/colir_one/rocket_code/Module/Src/bno055.c **** }
 2116              		.loc 1 313 1 is_stmt 0 view .LVU500
 2117 004c C0B2     		uxtb	r0, r0
 2118              		.loc 1 313 1 view .LVU501
 2119 004e 03B0     		add	sp, sp, #12
 2120              	.LCFI58:
 2121              		.cfi_def_cfa_offset 12
 2122              	.LVL225:
 2123              		.loc 1 313 1 view .LVU502
 2124              		@ sp needed
 2125 0050 30BD     		pop	{r4, r5, pc}
 2126              		.loc 1 313 1 view .LVU503
 2127              		.cfi_endproc
 2128              	.LFE168:
 2130              		.global	_bno055_i2c_port
ARM GAS  /tmp/ccP9B4zy.s 			page 49


 2131              		.section	.bss._bno055_i2c_port,"aw",%nobits
 2132              		.align	2
 2135              	_bno055_i2c_port:
 2136 0000 00000000 		.space	4
 2137              		.global	quaScale
 2138              		.section	.data.quaScale,"aw"
 2139              		.align	1
 2142              	quaScale:
 2143 0000 0040     		.short	16384
 2144              		.global	magScale
 2145              		.section	.data.magScale,"aw"
 2146              		.align	1
 2149              	magScale:
 2150 0000 1000     		.short	16
 2151              		.global	eulerScale
 2152              		.section	.data.eulerScale,"aw"
 2153              		.align	1
 2156              	eulerScale:
 2157 0000 1000     		.short	16
 2158              		.global	angularRateScale
 2159              		.section	.data.angularRateScale,"aw"
 2160              		.align	1
 2163              	angularRateScale:
 2164 0000 1000     		.short	16
 2165              		.global	tempScale
 2166              		.section	.data.tempScale,"aw"
 2167              		.align	1
 2170              	tempScale:
 2171 0000 0100     		.short	1
 2172              		.global	accelScale
 2173              		.section	.data.accelScale,"aw"
 2174              		.align	1
 2177              	accelScale:
 2178 0000 6400     		.short	100
 2179              		.text
 2180              	.Letext0:
 2181              		.file 2 "/home/dat/.config/Code/User/globalStorage/litaitech.stm32-colir-one/@xpack-dev-tools/arm-
 2182              		.file 3 "/home/dat/.config/Code/User/globalStorage/litaitech.stm32-colir-one/@xpack-dev-tools/arm-
 2183              		.file 4 "/home/dat/.config/Code/User/globalStorage/litaitech.stm32-colir-one/@xpack-dev-tools/arm-
 2184              		.file 5 "/home/dat/Documents/colir_one/rocket_code/Drivers/CMSIS/Device/ST/STM32F4xx/Include/stm32
 2185              		.file 6 "/home/dat/Documents/colir_one/rocket_code/Drivers/STM32F4xx_HAL_Driver/Inc/stm32f4xx_hal_
 2186              		.file 7 "/home/dat/Documents/colir_one/rocket_code/Drivers/STM32F4xx_HAL_Driver/Inc/stm32f4xx_hal_
 2187              		.file 8 "/home/dat/Documents/colir_one/rocket_code/Drivers/STM32F4xx_HAL_Driver/Inc/stm32f4xx_hal_
 2188              		.file 9 "/home/dat/Documents/colir_one/rocket_code/Module/Inc/bno055.h"
 2189              		.file 10 "/home/dat/.config/Code/User/globalStorage/litaitech.stm32-colir-one/@xpack-dev-tools/arm
 2190              		.file 11 "/home/dat/.config/Code/User/globalStorage/litaitech.stm32-colir-one/@xpack-dev-tools/arm
 2191              		.file 12 "/home/dat/Documents/colir_one/rocket_code/Drivers/STM32F4xx_HAL_Driver/Inc/stm32f4xx_hal
 2192              		.file 13 "<built-in>"
ARM GAS  /tmp/ccP9B4zy.s 			page 50

