ARM GAS  /tmp/ccbWdis3.s 			page 1


   1              		.cpu cortex-m4
   2              		.arch armv7e-m
   3              		.fpu fpv4-sp-d16
   4              		.eabi_attribute 27, 1
   5              		.eabi_attribute 28, 1
   6              		.eabi_attribute 20, 1
   7              		.eabi_attribute 21, 1
   8              		.eabi_attribute 23, 3
   9              		.eabi_attribute 24, 1
  10              		.eabi_attribute 25, 1
  11              		.eabi_attribute 26, 1
  12              		.eabi_attribute 30, 1
  13              		.eabi_attribute 34, 1
  14              		.eabi_attribute 18, 4
  15              		.file	"log.c"
  16              		.text
  17              	.Ltext0:
  18              		.cfi_sections	.debug_frame
  19              		.file 1 "/home/dat/Documents/colir_one/rocket_code/Module/Src/log.c"
  20              		.section	.text.set_logging_mask,"ax",%progbits
  21              		.align	1
  22              		.global	set_logging_mask
  23              		.syntax unified
  24              		.thumb
  25              		.thumb_func
  27              	set_logging_mask:
  28              	.LVL0:
  29              	.LFB137:
   1:/home/dat/Documents/colir_one/rocket_code/Module/Src/log.c **** #include <stdio.h>
   2:/home/dat/Documents/colir_one/rocket_code/Module/Src/log.c **** #include <stdlib.h>
   3:/home/dat/Documents/colir_one/rocket_code/Module/Src/log.c **** #include <stdarg.h>
   4:/home/dat/Documents/colir_one/rocket_code/Module/Src/log.c **** #include "log.h"
   5:/home/dat/Documents/colir_one/rocket_code/Module/Src/log.c **** #include "util.h"
   6:/home/dat/Documents/colir_one/rocket_code/Module/Src/log.c **** #include "device.h"
   7:/home/dat/Documents/colir_one/rocket_code/Module/Src/log.c **** 
   8:/home/dat/Documents/colir_one/rocket_code/Module/Src/log.c **** #if DEBUG_LEVEL > 0
   9:/home/dat/Documents/colir_one/rocket_code/Module/Src/log.c **** static uint32_t LOGMASK = TAG_FILENO;
  10:/home/dat/Documents/colir_one/rocket_code/Module/Src/log.c **** 
  11:/home/dat/Documents/colir_one/rocket_code/Module/Src/log.c **** 
  12:/home/dat/Documents/colir_one/rocket_code/Module/Src/log.c **** void set_logging_mask(uint32_t mask)
  13:/home/dat/Documents/colir_one/rocket_code/Module/Src/log.c **** {
  30              		.loc 1 13 1 view -0
  31              		.cfi_startproc
  32              		@ args = 0, pretend = 0, frame = 0
  33              		@ frame_needed = 0, uses_anonymous_args = 0
  34              		@ link register save eliminated.
  14:/home/dat/Documents/colir_one/rocket_code/Module/Src/log.c ****     LOGMASK = mask;
  35              		.loc 1 14 5 view .LVU1
  36              		.loc 1 14 13 is_stmt 0 view .LVU2
  37 0000 014B     		ldr	r3, .L2
  38 0002 1860     		str	r0, [r3]
  15:/home/dat/Documents/colir_one/rocket_code/Module/Src/log.c **** }
  39              		.loc 1 15 1 view .LVU3
  40 0004 7047     		bx	lr
  41              	.L3:
  42 0006 00BF     		.align	2
  43              	.L2:
ARM GAS  /tmp/ccbWdis3.s 			page 2


  44 0008 00000000 		.word	LOGMASK
  45              		.cfi_endproc
  46              	.LFE137:
  48              		.section	.text.set_logging_tag,"ax",%progbits
  49              		.align	1
  50              		.weak	set_logging_tag
  51              		.syntax unified
  52              		.thumb
  53              		.thumb_func
  55              	set_logging_tag:
  56              	.LVL1:
  57              	.LFB138:
  16:/home/dat/Documents/colir_one/rocket_code/Module/Src/log.c **** 
  17:/home/dat/Documents/colir_one/rocket_code/Module/Src/log.c **** 
  18:/home/dat/Documents/colir_one/rocket_code/Module/Src/log.c **** struct logtag
  19:/home/dat/Documents/colir_one/rocket_code/Module/Src/log.c **** {
  20:/home/dat/Documents/colir_one/rocket_code/Module/Src/log.c ****     uint32_t tagn;
  21:/home/dat/Documents/colir_one/rocket_code/Module/Src/log.c ****     const char * tag;
  22:/home/dat/Documents/colir_one/rocket_code/Module/Src/log.c **** };
  23:/home/dat/Documents/colir_one/rocket_code/Module/Src/log.c **** 
  24:/home/dat/Documents/colir_one/rocket_code/Module/Src/log.c **** struct logtag tagtable[] = {
  25:/home/dat/Documents/colir_one/rocket_code/Module/Src/log.c ****     {TAG_ERR,"ERR"},
  26:/home/dat/Documents/colir_one/rocket_code/Module/Src/log.c ****     {TAG_USB,"USB"},
  27:/home/dat/Documents/colir_one/rocket_code/Module/Src/log.c ****     {TAG_GREEN,"[1;32mDEBUG[0m"},
  28:/home/dat/Documents/colir_one/rocket_code/Module/Src/log.c ****     {TAG_RED,"[1;31mDEBUG[0m"}
  29:/home/dat/Documents/colir_one/rocket_code/Module/Src/log.c **** };
  30:/home/dat/Documents/colir_one/rocket_code/Module/Src/log.c **** 
  31:/home/dat/Documents/colir_one/rocket_code/Module/Src/log.c **** 
  32:/home/dat/Documents/colir_one/rocket_code/Module/Src/log.c **** __attribute__((weak)) void set_logging_tag(uint32_t tag)
  33:/home/dat/Documents/colir_one/rocket_code/Module/Src/log.c **** {
  58              		.loc 1 33 1 is_stmt 1 view -0
  59              		.cfi_startproc
  60              		@ args = 0, pretend = 0, frame = 0
  61              		@ frame_needed = 0, uses_anonymous_args = 0
  62              		@ link register save eliminated.
  34:/home/dat/Documents/colir_one/rocket_code/Module/Src/log.c ****     // nothing
  35:/home/dat/Documents/colir_one/rocket_code/Module/Src/log.c **** }
  63              		.loc 1 35 1 view .LVU5
  64 0000 7047     		bx	lr
  65              		.cfi_endproc
  66              	.LFE138:
  68              		.section	.rodata.LOG.str1.4,"aMS",%progbits,1
  69              		.align	2
  70              	.LC0:
  71 0000 5B25735D 		.ascii	"[%s] \000"
  71      2000
  72 0006 0000     		.align	2
  73              	.LC1:
  74 0008 494E5641 		.ascii	"INVALID LOG TAG\012\000"
  74      4C494420 
  74      4C4F4720 
  74      5441470A 
  74      00
  75 0019 000000   		.align	2
  76              	.LC2:
  77 001c 2F686F6D 		.ascii	"/home/dat/Documents/colir_one/rocket_code/Module/Sr"
  77      652F6461 
ARM GAS  /tmp/ccbWdis3.s 			page 3


  77      742F446F 
  77      63756D65 
  77      6E74732F 
  78 004f 632F6C6F 		.ascii	"c/log.c\000"
  78      672E6300 
  79 0057 00       		.align	2
  80              	.LC3:
  81 0058 25733A25 		.ascii	"%s:%d: \000"
  81      643A2000 
  82              		.section	.text.LOG,"ax",%progbits
  83              		.align	1
  84              		.global	LOG
  85              		.syntax unified
  86              		.thumb
  87              		.thumb_func
  89              	LOG:
  90              	.LVL2:
  91              	.LFB139:
  36:/home/dat/Documents/colir_one/rocket_code/Module/Src/log.c **** 
  37:/home/dat/Documents/colir_one/rocket_code/Module/Src/log.c **** void LOG(uint32_t tag, const char * filename, int num, const char * fmt, ...)
  38:/home/dat/Documents/colir_one/rocket_code/Module/Src/log.c **** {
  92              		.loc 1 38 1 view -0
  93              		.cfi_startproc
  94              		@ args = 4, pretend = 4, frame = 8
  95              		@ frame_needed = 0, uses_anonymous_args = 1
  96              		.loc 1 38 1 is_stmt 0 view .LVU7
  97 0000 08B4     		push	{r3}
  98              	.LCFI0:
  99              		.cfi_def_cfa_offset 4
 100              		.cfi_offset 3, -4
 101 0002 70B5     		push	{r4, r5, r6, lr}
 102              	.LCFI1:
 103              		.cfi_def_cfa_offset 20
 104              		.cfi_offset 4, -20
 105              		.cfi_offset 5, -16
 106              		.cfi_offset 6, -12
 107              		.cfi_offset 14, -8
 108 0004 83B0     		sub	sp, sp, #12
 109              	.LCFI2:
 110              		.cfi_def_cfa_offset 32
  39:/home/dat/Documents/colir_one/rocket_code/Module/Src/log.c ****     unsigned int i;
 111              		.loc 1 39 5 is_stmt 1 view .LVU8
  40:/home/dat/Documents/colir_one/rocket_code/Module/Src/log.c **** 
  41:/home/dat/Documents/colir_one/rocket_code/Module/Src/log.c ****     if (((tag & 0x7fffffff) & LOGMASK) == 0)
 112              		.loc 1 41 5 view .LVU9
 113              		.loc 1 41 29 is_stmt 0 view .LVU10
 114 0006 1F4B     		ldr	r3, .L18
 115 0008 1B68     		ldr	r3, [r3]
 116 000a 0340     		ands	r3, r3, r0
 117              		.loc 1 41 8 view .LVU11
 118 000c 33F00043 		bics	r3, r3, #-2147483648
 119 0010 24D0     		beq	.L5
 120 0012 0446     		mov	r4, r0
 121 0014 0D46     		mov	r5, r1
 122 0016 1646     		mov	r6, r2
  42:/home/dat/Documents/colir_one/rocket_code/Module/Src/log.c ****     {
  43:/home/dat/Documents/colir_one/rocket_code/Module/Src/log.c ****         return;
ARM GAS  /tmp/ccbWdis3.s 			page 4


  44:/home/dat/Documents/colir_one/rocket_code/Module/Src/log.c ****     }
  45:/home/dat/Documents/colir_one/rocket_code/Module/Src/log.c ****     for (i = 0; i < sizeof(tagtable)/sizeof(struct logtag); i++)
 123              		.loc 1 45 12 view .LVU12
 124 0018 0023     		movs	r3, #0
 125              	.LVL3:
 126              	.L6:
 127              		.loc 1 45 19 is_stmt 1 discriminator 1 view .LVU13
 128 001a 032B     		cmp	r3, #3
 129 001c 13D8     		bhi	.L14
  46:/home/dat/Documents/colir_one/rocket_code/Module/Src/log.c ****     {
  47:/home/dat/Documents/colir_one/rocket_code/Module/Src/log.c ****         if (tag & tagtable[i].tagn)
 130              		.loc 1 47 9 view .LVU14
 131              		.loc 1 47 30 is_stmt 0 view .LVU15
 132 001e 1A48     		ldr	r0, .L18+4
 133 0020 50F83300 		ldr	r0, [r0, r3, lsl #3]
 134              		.loc 1 47 12 view .LVU16
 135 0024 2042     		tst	r0, r4
 136 0026 01D1     		bne	.L15
  45:/home/dat/Documents/colir_one/rocket_code/Module/Src/log.c ****     {
 137              		.loc 1 45 62 is_stmt 1 discriminator 2 view .LVU17
 138 0028 0133     		adds	r3, r3, #1
 139              	.LVL4:
  45:/home/dat/Documents/colir_one/rocket_code/Module/Src/log.c ****     {
 140              		.loc 1 45 62 is_stmt 0 discriminator 2 view .LVU18
 141 002a F6E7     		b	.L6
 142              	.L15:
  48:/home/dat/Documents/colir_one/rocket_code/Module/Src/log.c ****         {
  49:/home/dat/Documents/colir_one/rocket_code/Module/Src/log.c ****             if (tagtable[i].tag[0] && !(tag & TAG_NO_TAG)) printf("[%s] ", tagtable[i].tag);
 143              		.loc 1 49 13 is_stmt 1 view .LVU19
 144              		.loc 1 49 28 is_stmt 0 view .LVU20
 145 002c 164A     		ldr	r2, .L18+4
 146              	.LVL5:
 147              		.loc 1 49 28 view .LVU21
 148 002e 02EBC303 		add	r3, r2, r3, lsl #3
 149              	.LVL6:
 150              		.loc 1 49 28 view .LVU22
 151 0032 5968     		ldr	r1, [r3, #4]
 152              	.LVL7:
 153              		.loc 1 49 32 view .LVU23
 154 0034 0B78     		ldrb	r3, [r1]	@ zero_extendqisi2
 155              		.loc 1 49 16 view .LVU24
 156 0036 3BB1     		cbz	r3, .L9
 157              		.loc 1 49 36 discriminator 1 view .LVU25
 158 0038 14F0804F 		tst	r4, #1073741824
 159 003c 04D1     		bne	.L9
 160              		.loc 1 49 60 is_stmt 1 discriminator 2 view .LVU26
 161 003e 1348     		ldr	r0, .L18+8
 162 0040 FFF7FEFF 		bl	printf
 163              	.LVL8:
 164 0044 00E0     		b	.L9
 165              	.LVL9:
 166              	.L14:
  50:/home/dat/Documents/colir_one/rocket_code/Module/Src/log.c ****             i = 0;
  51:/home/dat/Documents/colir_one/rocket_code/Module/Src/log.c ****             break;
  52:/home/dat/Documents/colir_one/rocket_code/Module/Src/log.c ****         }
  53:/home/dat/Documents/colir_one/rocket_code/Module/Src/log.c ****     }
  54:/home/dat/Documents/colir_one/rocket_code/Module/Src/log.c ****     if (i != 0)
ARM GAS  /tmp/ccbWdis3.s 			page 5


 167              		.loc 1 54 5 view .LVU27
 168              		.loc 1 54 8 is_stmt 0 view .LVU28
 169 0046 73B9     		cbnz	r3, .L16
 170              	.LVL10:
 171              	.L9:
  55:/home/dat/Documents/colir_one/rocket_code/Module/Src/log.c ****     {
  56:/home/dat/Documents/colir_one/rocket_code/Module/Src/log.c ****         printf2(TAG_ERR,"INVALID LOG TAG\n");
  57:/home/dat/Documents/colir_one/rocket_code/Module/Src/log.c ****         exit(1);
  58:/home/dat/Documents/colir_one/rocket_code/Module/Src/log.c ****     }
  59:/home/dat/Documents/colir_one/rocket_code/Module/Src/log.c ****     set_logging_tag(tag);
 172              		.loc 1 59 5 is_stmt 1 view .LVU29
 173 0048 2046     		mov	r0, r4
 174 004a FFF7FEFF 		bl	set_logging_tag
 175              	.LVL11:
  60:/home/dat/Documents/colir_one/rocket_code/Module/Src/log.c **** #ifdef ENABLE_FILE_LOGGING
  61:/home/dat/Documents/colir_one/rocket_code/Module/Src/log.c ****     if (tag & TAG_FILENO)
 176              		.loc 1 61 5 view .LVU30
 177              		.loc 1 61 8 is_stmt 0 view .LVU31
 178 004e 002C     		cmp	r4, #0
 179 0050 12DB     		blt	.L17
 180              	.L11:
  62:/home/dat/Documents/colir_one/rocket_code/Module/Src/log.c ****     {
  63:/home/dat/Documents/colir_one/rocket_code/Module/Src/log.c ****         printf("%s:%d: ", filename, num);
  64:/home/dat/Documents/colir_one/rocket_code/Module/Src/log.c ****     }
  65:/home/dat/Documents/colir_one/rocket_code/Module/Src/log.c **** #endif
  66:/home/dat/Documents/colir_one/rocket_code/Module/Src/log.c ****     va_list args;
 181              		.loc 1 66 5 is_stmt 1 view .LVU32
  67:/home/dat/Documents/colir_one/rocket_code/Module/Src/log.c ****     va_start(args, fmt);
 182              		.loc 1 67 5 view .LVU33
 183 0052 08A9     		add	r1, sp, #32
 184 0054 0191     		str	r1, [sp, #4]
  68:/home/dat/Documents/colir_one/rocket_code/Module/Src/log.c ****     vprintf(fmt, args);
 185              		.loc 1 68 5 view .LVU34
 186 0056 0798     		ldr	r0, [sp, #28]
 187 0058 FFF7FEFF 		bl	vprintf
 188              	.LVL12:
  69:/home/dat/Documents/colir_one/rocket_code/Module/Src/log.c ****     va_end(args);
 189              		.loc 1 69 5 view .LVU35
 190              	.L5:
  70:/home/dat/Documents/colir_one/rocket_code/Module/Src/log.c **** }
 191              		.loc 1 70 1 is_stmt 0 view .LVU36
 192 005c 03B0     		add	sp, sp, #12
 193              	.LCFI3:
 194              		.cfi_remember_state
 195              		.cfi_def_cfa_offset 20
 196              		@ sp needed
 197 005e BDE87040 		pop	{r4, r5, r6, lr}
 198              	.LCFI4:
 199              		.cfi_restore 14
 200              		.cfi_restore 6
 201              		.cfi_restore 5
 202              		.cfi_restore 4
 203              		.cfi_def_cfa_offset 4
 204 0062 01B0     		add	sp, sp, #4
 205              	.LCFI5:
 206              		.cfi_restore 3
 207              		.cfi_def_cfa_offset 0
ARM GAS  /tmp/ccbWdis3.s 			page 6


 208 0064 7047     		bx	lr
 209              	.LVL13:
 210              	.L16:
 211              	.LCFI6:
 212              		.cfi_restore_state
  56:/home/dat/Documents/colir_one/rocket_code/Module/Src/log.c ****         exit(1);
 213              		.loc 1 56 9 is_stmt 1 view .LVU37
 214 0066 0A4B     		ldr	r3, .L18+12
 215              	.LVL14:
  56:/home/dat/Documents/colir_one/rocket_code/Module/Src/log.c ****         exit(1);
 216              		.loc 1 56 9 is_stmt 0 view .LVU38
 217 0068 3822     		movs	r2, #56
 218              	.LVL15:
  56:/home/dat/Documents/colir_one/rocket_code/Module/Src/log.c ****         exit(1);
 219              		.loc 1 56 9 view .LVU39
 220 006a 0A49     		ldr	r1, .L18+16
 221              	.LVL16:
  56:/home/dat/Documents/colir_one/rocket_code/Module/Src/log.c ****         exit(1);
 222              		.loc 1 56 9 view .LVU40
 223 006c 0A48     		ldr	r0, .L18+20
 224 006e FFF7FEFF 		bl	LOG
 225              	.LVL17:
  57:/home/dat/Documents/colir_one/rocket_code/Module/Src/log.c ****     }
 226              		.loc 1 57 9 is_stmt 1 view .LVU41
 227 0072 0120     		movs	r0, #1
 228 0074 FFF7FEFF 		bl	exit
 229              	.LVL18:
 230              	.L17:
  63:/home/dat/Documents/colir_one/rocket_code/Module/Src/log.c ****     }
 231              		.loc 1 63 9 view .LVU42
 232 0078 3246     		mov	r2, r6
 233 007a 2946     		mov	r1, r5
 234 007c 0748     		ldr	r0, .L18+24
 235 007e FFF7FEFF 		bl	printf
 236              	.LVL19:
 237 0082 E6E7     		b	.L11
 238              	.L19:
 239              		.align	2
 240              	.L18:
 241 0084 00000000 		.word	LOGMASK
 242 0088 00000000 		.word	tagtable
 243 008c 00000000 		.word	.LC0
 244 0090 08000000 		.word	.LC1
 245 0094 1C000000 		.word	.LC2
 246 0098 01000080 		.word	-2147483647
 247 009c 58000000 		.word	.LC3
 248              		.cfi_endproc
 249              	.LFE139:
 251              		.section	.text.LOG_HEX,"ax",%progbits
 252              		.align	1
 253              		.global	LOG_HEX
 254              		.syntax unified
 255              		.thumb
 256              		.thumb_func
 258              	LOG_HEX:
 259              	.LVL20:
 260              	.LFB140:
ARM GAS  /tmp/ccbWdis3.s 			page 7


  71:/home/dat/Documents/colir_one/rocket_code/Module/Src/log.c **** 
  72:/home/dat/Documents/colir_one/rocket_code/Module/Src/log.c **** void LOG_HEX(uint32_t tag, uint8_t * data, int length)
  73:/home/dat/Documents/colir_one/rocket_code/Module/Src/log.c **** {
 261              		.loc 1 73 1 view -0
 262              		.cfi_startproc
 263              		@ args = 0, pretend = 0, frame = 0
 264              		@ frame_needed = 0, uses_anonymous_args = 0
 265              		.loc 1 73 1 is_stmt 0 view .LVU44
 266 0000 38B5     		push	{r3, r4, r5, lr}
 267              	.LCFI7:
 268              		.cfi_def_cfa_offset 16
 269              		.cfi_offset 3, -16
 270              		.cfi_offset 4, -12
 271              		.cfi_offset 5, -8
 272              		.cfi_offset 14, -4
  74:/home/dat/Documents/colir_one/rocket_code/Module/Src/log.c ****     if (((tag & 0x7fffffff) & LOGMASK) == 0)
 273              		.loc 1 74 5 is_stmt 1 view .LVU45
 274              		.loc 1 74 29 is_stmt 0 view .LVU46
 275 0002 084B     		ldr	r3, .L24
 276 0004 1B68     		ldr	r3, [r3]
 277 0006 0340     		ands	r3, r3, r0
 278              		.loc 1 74 8 view .LVU47
 279 0008 33F00043 		bics	r3, r3, #-2147483648
 280 000c 00D1     		bne	.L23
 281              	.LVL21:
 282              	.L20:
  75:/home/dat/Documents/colir_one/rocket_code/Module/Src/log.c ****     {
  76:/home/dat/Documents/colir_one/rocket_code/Module/Src/log.c ****         return;
  77:/home/dat/Documents/colir_one/rocket_code/Module/Src/log.c ****     }
  78:/home/dat/Documents/colir_one/rocket_code/Module/Src/log.c ****     set_logging_tag(tag);
  79:/home/dat/Documents/colir_one/rocket_code/Module/Src/log.c ****     dump_hex(data,length);
  80:/home/dat/Documents/colir_one/rocket_code/Module/Src/log.c **** }
 283              		.loc 1 80 1 view .LVU48
 284 000e 38BD     		pop	{r3, r4, r5, pc}
 285              	.LVL22:
 286              	.L23:
 287              		.loc 1 80 1 view .LVU49
 288 0010 0C46     		mov	r4, r1
 289 0012 1546     		mov	r5, r2
  78:/home/dat/Documents/colir_one/rocket_code/Module/Src/log.c ****     dump_hex(data,length);
 290              		.loc 1 78 5 is_stmt 1 view .LVU50
 291 0014 FFF7FEFF 		bl	set_logging_tag
 292              	.LVL23:
  79:/home/dat/Documents/colir_one/rocket_code/Module/Src/log.c **** }
 293              		.loc 1 79 5 view .LVU51
 294 0018 2946     		mov	r1, r5
 295 001a 2046     		mov	r0, r4
 296 001c FFF7FEFF 		bl	dump_hex
 297              	.LVL24:
 298 0020 F5E7     		b	.L20
 299              	.L25:
 300 0022 00BF     		.align	2
 301              	.L24:
 302 0024 00000000 		.word	LOGMASK
 303              		.cfi_endproc
 304              	.LFE140:
 306              		.section	.text.timestamp,"ax",%progbits
ARM GAS  /tmp/ccbWdis3.s 			page 8


 307              		.align	1
 308              		.global	timestamp
 309              		.syntax unified
 310              		.thumb
 311              		.thumb_func
 313              	timestamp:
 314              	.LFB141:
  81:/home/dat/Documents/colir_one/rocket_code/Module/Src/log.c **** 
  82:/home/dat/Documents/colir_one/rocket_code/Module/Src/log.c **** uint32_t timestamp()
  83:/home/dat/Documents/colir_one/rocket_code/Module/Src/log.c **** {
 315              		.loc 1 83 1 view -0
 316              		.cfi_startproc
 317              		@ args = 0, pretend = 0, frame = 0
 318              		@ frame_needed = 0, uses_anonymous_args = 0
 319 0000 08B5     		push	{r3, lr}
 320              	.LCFI8:
 321              		.cfi_def_cfa_offset 8
 322              		.cfi_offset 3, -8
 323              		.cfi_offset 14, -4
  84:/home/dat/Documents/colir_one/rocket_code/Module/Src/log.c ****     static uint32_t t1 = 0;
 324              		.loc 1 84 5 view .LVU53
  85:/home/dat/Documents/colir_one/rocket_code/Module/Src/log.c ****     uint32_t t2 = millis();
 325              		.loc 1 85 5 view .LVU54
 326              		.loc 1 85 19 is_stmt 0 view .LVU55
 327 0002 FFF7FEFF 		bl	millis
 328              	.LVL25:
  86:/home/dat/Documents/colir_one/rocket_code/Module/Src/log.c ****     uint32_t diff = t2 - t1;
 329              		.loc 1 86 5 is_stmt 1 view .LVU56
 330              		.loc 1 86 24 is_stmt 0 view .LVU57
 331 0006 024B     		ldr	r3, .L28
 332 0008 1A68     		ldr	r2, [r3]
 333              	.LVL26:
  87:/home/dat/Documents/colir_one/rocket_code/Module/Src/log.c ****     t1 = t2;
 334              		.loc 1 87 5 is_stmt 1 view .LVU58
 335              		.loc 1 87 8 is_stmt 0 view .LVU59
 336 000a 1860     		str	r0, [r3]
  88:/home/dat/Documents/colir_one/rocket_code/Module/Src/log.c ****     return diff;
 337              		.loc 1 88 5 is_stmt 1 view .LVU60
  89:/home/dat/Documents/colir_one/rocket_code/Module/Src/log.c **** }
 338              		.loc 1 89 1 is_stmt 0 view .LVU61
 339 000c 801A     		subs	r0, r0, r2
 340              	.LVL27:
 341              		.loc 1 89 1 view .LVU62
 342 000e 08BD     		pop	{r3, pc}
 343              	.L29:
 344              		.loc 1 89 1 view .LVU63
 345              		.align	2
 346              	.L28:
 347 0010 00000000 		.word	t1.0
 348              		.cfi_endproc
 349              	.LFE141:
 351              		.section	.bss.t1.0,"aw",%nobits
 352              		.align	2
 355              	t1.0:
 356 0000 00000000 		.space	4
 357              		.global	tagtable
 358              		.section	.rodata.str1.4,"aMS",%progbits,1
ARM GAS  /tmp/ccbWdis3.s 			page 9


 359              		.align	2
 360              	.LC4:
 361 0000 45525200 		.ascii	"ERR\000"
 362              		.align	2
 363              	.LC5:
 364 0004 55534200 		.ascii	"USB\000"
 365              		.align	2
 366              	.LC6:
 367 0008 1B5B313B 		.ascii	"\033[1;32mDEBUG\033[0m\000"
 367      33326D44 
 367      45425547 
 367      1B5B306D 
 367      00
 368 0019 000000   		.align	2
 369              	.LC7:
 370 001c 1B5B313B 		.ascii	"\033[1;31mDEBUG\033[0m\000"
 370      33316D44 
 370      45425547 
 370      1B5B306D 
 370      00
 371              		.section	.data.tagtable,"aw"
 372              		.align	2
 375              	tagtable:
 376 0000 01000000 		.word	1
 377 0004 00000000 		.word	.LC4
 378 0008 08000000 		.word	8
 379 000c 04000000 		.word	.LC5
 380 0010 02000000 		.word	2
 381 0014 08000000 		.word	.LC6
 382 0018 04000000 		.word	4
 383 001c 1C000000 		.word	.LC7
 384              		.section	.data.LOGMASK,"aw"
 385              		.align	2
 388              	LOGMASK:
 389 0000 00000080 		.word	-2147483648
 390              		.text
 391              	.Letext0:
 392              		.file 2 "/home/dat/.config/Code/User/globalStorage/litaitech.stm32-colir-one/@xpack-dev-tools/arm-
 393              		.file 3 "/home/dat/.config/Code/User/globalStorage/litaitech.stm32-colir-one/@xpack-dev-tools/arm-
 394              		.file 4 "/home/dat/.config/Code/User/globalStorage/litaitech.stm32-colir-one/@xpack-dev-tools/arm-
 395              		.file 5 "/home/dat/.config/Code/User/globalStorage/litaitech.stm32-colir-one/@xpack-dev-tools/arm-
 396              		.file 6 "/home/dat/Documents/colir_one/rocket_code/Module/Inc/device.h"
 397              		.file 7 "/home/dat/Documents/colir_one/rocket_code/Module/Inc/util.h"
 398              		.file 8 "/home/dat/.config/Code/User/globalStorage/litaitech.stm32-colir-one/@xpack-dev-tools/arm-
 399              		.file 9 "<built-in>"
 400              		.file 10 "/home/dat/Documents/colir_one/rocket_code/Module/Inc/log.h"
ARM GAS  /tmp/ccbWdis3.s 			page 10

