ARM GAS  /tmp/ccz1Fumd.s 			page 1


   1              		.cpu cortex-m4
   2              		.arch armv7e-m
   3              		.fpu fpv4-sp-d16
   4              		.eabi_attribute 27, 1
   5              		.eabi_attribute 28, 1
   6              		.eabi_attribute 20, 1
   7              		.eabi_attribute 21, 1
   8              		.eabi_attribute 23, 3
   9              		.eabi_attribute 24, 1
  10              		.eabi_attribute 25, 1
  11              		.eabi_attribute 26, 1
  12              		.eabi_attribute 30, 1
  13              		.eabi_attribute 34, 1
  14              		.eabi_attribute 18, 4
  15              		.file	"nmea_parse.c"
  16              		.text
  17              	.Ltext0:
  18              		.cfi_sections	.debug_frame
  19              		.file 1 "/home/dat/Documents/colir_one/rocket_code/Module/Src/nmea_parse.c"
  20              		.section	.text.gps_checksum,"ax",%progbits
  21              		.align	1
  22              		.syntax unified
  23              		.thumb
  24              		.thumb_func
  26              	gps_checksum:
  27              	.LVL0:
  28              	.LFB134:
   1:/home/dat/Documents/colir_one/rocket_code/Module/Src/nmea_parse.c **** //
   2:/home/dat/Documents/colir_one/rocket_code/Module/Src/nmea_parse.c **** // Created by sztuka on 22.01.2023.
   3:/home/dat/Documents/colir_one/rocket_code/Module/Src/nmea_parse.c **** //
   4:/home/dat/Documents/colir_one/rocket_code/Module/Src/nmea_parse.c **** #include "nmea_parse.h"
   5:/home/dat/Documents/colir_one/rocket_code/Module/Src/nmea_parse.c **** 
   6:/home/dat/Documents/colir_one/rocket_code/Module/Src/nmea_parse.c **** 
   7:/home/dat/Documents/colir_one/rocket_code/Module/Src/nmea_parse.c **** 
   8:/home/dat/Documents/colir_one/rocket_code/Module/Src/nmea_parse.c **** char *data[15];
   9:/home/dat/Documents/colir_one/rocket_code/Module/Src/nmea_parse.c **** 
  10:/home/dat/Documents/colir_one/rocket_code/Module/Src/nmea_parse.c **** static int gps_checksum(char *nmea_data)
  11:/home/dat/Documents/colir_one/rocket_code/Module/Src/nmea_parse.c **** {
  29              		.loc 1 11 1 view -0
  30              		.cfi_startproc
  31              		@ args = 0, pretend = 0, frame = 8
  32              		@ frame_needed = 0, uses_anonymous_args = 0
  33              		.loc 1 11 1 is_stmt 0 view .LVU1
  34 0000 70B5     		push	{r4, r5, r6, lr}
  35              	.LCFI0:
  36              		.cfi_def_cfa_offset 16
  37              		.cfi_offset 4, -16
  38              		.cfi_offset 5, -12
  39              		.cfi_offset 6, -8
  40              		.cfi_offset 14, -4
  41 0002 82B0     		sub	sp, sp, #8
  42              	.LCFI1:
  43              		.cfi_def_cfa_offset 24
  44 0004 0546     		mov	r5, r0
  12:/home/dat/Documents/colir_one/rocket_code/Module/Src/nmea_parse.c ****     //if you point a string with less than 5 characters the function will read outside of scope and
  13:/home/dat/Documents/colir_one/rocket_code/Module/Src/nmea_parse.c ****     if(strlen(nmea_data) < 5) return 0;
  45              		.loc 1 13 5 is_stmt 1 view .LVU2
ARM GAS  /tmp/ccz1Fumd.s 			page 2


  46              		.loc 1 13 8 is_stmt 0 view .LVU3
  47 0006 FFF7FEFF 		bl	strlen
  48              	.LVL1:
  49              		.loc 1 13 7 discriminator 1 view .LVU4
  50 000a 0428     		cmp	r0, #4
  51 000c 24D9     		bls	.L5
  14:/home/dat/Documents/colir_one/rocket_code/Module/Src/nmea_parse.c ****     char recv_crc[2];
  52              		.loc 1 14 5 is_stmt 1 view .LVU5
  15:/home/dat/Documents/colir_one/rocket_code/Module/Src/nmea_parse.c ****     recv_crc[0] = nmea_data[strlen(nmea_data) - 4];
  53              		.loc 1 15 5 view .LVU6
  54              		.loc 1 15 28 is_stmt 0 discriminator 1 view .LVU7
  55 000e 2844     		add	r0, r0, r5
  56 0010 10F8043C 		ldrb	r3, [r0, #-4]	@ zero_extendqisi2
  57              		.loc 1 15 17 discriminator 1 view .LVU8
  58 0014 8DF80430 		strb	r3, [sp, #4]
  16:/home/dat/Documents/colir_one/rocket_code/Module/Src/nmea_parse.c ****     recv_crc[1] = nmea_data[strlen(nmea_data) - 3];
  59              		.loc 1 16 5 is_stmt 1 view .LVU9
  60              		.loc 1 16 29 is_stmt 0 view .LVU10
  61 0018 2846     		mov	r0, r5
  62 001a FFF7FEFF 		bl	strlen
  63              	.LVL2:
  64              		.loc 1 16 28 discriminator 1 view .LVU11
  65 001e 2844     		add	r0, r0, r5
  66 0020 10F8033C 		ldrb	r3, [r0, #-3]	@ zero_extendqisi2
  67              		.loc 1 16 17 discriminator 1 view .LVU12
  68 0024 8DF80530 		strb	r3, [sp, #5]
  17:/home/dat/Documents/colir_one/rocket_code/Module/Src/nmea_parse.c ****     int crc = 0;
  69              		.loc 1 17 5 is_stmt 1 view .LVU13
  70              	.LVL3:
  18:/home/dat/Documents/colir_one/rocket_code/Module/Src/nmea_parse.c ****     int i;
  71              		.loc 1 18 5 view .LVU14
  19:/home/dat/Documents/colir_one/rocket_code/Module/Src/nmea_parse.c **** 
  20:/home/dat/Documents/colir_one/rocket_code/Module/Src/nmea_parse.c ****     //exclude the CRLF plus CRC with an * from the end
  21:/home/dat/Documents/colir_one/rocket_code/Module/Src/nmea_parse.c ****     for (i = 0; i < strlen(nmea_data) - 5; i ++) {
  72              		.loc 1 21 5 view .LVU15
  73              		.loc 1 21 12 is_stmt 0 view .LVU16
  74 0028 0024     		movs	r4, #0
  17:/home/dat/Documents/colir_one/rocket_code/Module/Src/nmea_parse.c ****     int i;
  75              		.loc 1 17 9 view .LVU17
  76 002a 2646     		mov	r6, r4
  77              		.loc 1 21 5 view .LVU18
  78 002c 02E0     		b	.L3
  79              	.LVL4:
  80              	.L4:
  22:/home/dat/Documents/colir_one/rocket_code/Module/Src/nmea_parse.c ****         crc ^= nmea_data[i];
  81              		.loc 1 22 9 is_stmt 1 view .LVU19
  82              		.loc 1 22 25 is_stmt 0 view .LVU20
  83 002e 2B5D     		ldrb	r3, [r5, r4]	@ zero_extendqisi2
  84              		.loc 1 22 13 view .LVU21
  85 0030 5E40     		eors	r6, r6, r3
  86              	.LVL5:
  21:/home/dat/Documents/colir_one/rocket_code/Module/Src/nmea_parse.c ****         crc ^= nmea_data[i];
  87              		.loc 1 21 46 is_stmt 1 discriminator 3 view .LVU22
  88 0032 0134     		adds	r4, r4, #1
  89              	.LVL6:
  90              	.L3:
  21:/home/dat/Documents/colir_one/rocket_code/Module/Src/nmea_parse.c ****         crc ^= nmea_data[i];
ARM GAS  /tmp/ccz1Fumd.s 			page 3


  91              		.loc 1 21 19 discriminator 1 view .LVU23
  21:/home/dat/Documents/colir_one/rocket_code/Module/Src/nmea_parse.c ****         crc ^= nmea_data[i];
  92              		.loc 1 21 21 is_stmt 0 discriminator 1 view .LVU24
  93 0034 2846     		mov	r0, r5
  94 0036 FFF7FEFF 		bl	strlen
  95              	.LVL7:
  21:/home/dat/Documents/colir_one/rocket_code/Module/Src/nmea_parse.c ****         crc ^= nmea_data[i];
  96              		.loc 1 21 39 discriminator 1 view .LVU25
  97 003a 0538     		subs	r0, r0, #5
  21:/home/dat/Documents/colir_one/rocket_code/Module/Src/nmea_parse.c ****         crc ^= nmea_data[i];
  98              		.loc 1 21 19 discriminator 1 view .LVU26
  99 003c A042     		cmp	r0, r4
 100 003e F6D8     		bhi	.L4
  23:/home/dat/Documents/colir_one/rocket_code/Module/Src/nmea_parse.c ****     }
  24:/home/dat/Documents/colir_one/rocket_code/Module/Src/nmea_parse.c ****     int receivedHash = strtol(recv_crc, NULL, 16);
 101              		.loc 1 24 5 is_stmt 1 view .LVU27
 102              		.loc 1 24 24 is_stmt 0 view .LVU28
 103 0040 1022     		movs	r2, #16
 104 0042 0021     		movs	r1, #0
 105 0044 01A8     		add	r0, sp, #4
 106 0046 FFF7FEFF 		bl	strtol
 107              	.LVL8:
  25:/home/dat/Documents/colir_one/rocket_code/Module/Src/nmea_parse.c ****     if (crc == receivedHash) {
 108              		.loc 1 25 5 is_stmt 1 view .LVU29
 109              		.loc 1 25 8 is_stmt 0 view .LVU30
 110 004a 8642     		cmp	r6, r0
 111 004c 02D0     		beq	.L8
  26:/home/dat/Documents/colir_one/rocket_code/Module/Src/nmea_parse.c ****         return 1;
  27:/home/dat/Documents/colir_one/rocket_code/Module/Src/nmea_parse.c ****     }
  28:/home/dat/Documents/colir_one/rocket_code/Module/Src/nmea_parse.c ****     else{
  29:/home/dat/Documents/colir_one/rocket_code/Module/Src/nmea_parse.c ****         return 0;
 112              		.loc 1 29 16 view .LVU31
 113 004e 0020     		movs	r0, #0
 114              	.LVL9:
 115              	.L1:
  30:/home/dat/Documents/colir_one/rocket_code/Module/Src/nmea_parse.c ****     }
  31:/home/dat/Documents/colir_one/rocket_code/Module/Src/nmea_parse.c **** }
 116              		.loc 1 31 1 view .LVU32
 117 0050 02B0     		add	sp, sp, #8
 118              	.LCFI2:
 119              		.cfi_remember_state
 120              		.cfi_def_cfa_offset 16
 121              		@ sp needed
 122 0052 70BD     		pop	{r4, r5, r6, pc}
 123              	.LVL10:
 124              	.L8:
 125              	.LCFI3:
 126              		.cfi_restore_state
  26:/home/dat/Documents/colir_one/rocket_code/Module/Src/nmea_parse.c ****         return 1;
 127              		.loc 1 26 16 view .LVU33
 128 0054 0120     		movs	r0, #1
 129              	.LVL11:
  26:/home/dat/Documents/colir_one/rocket_code/Module/Src/nmea_parse.c ****         return 1;
 130              		.loc 1 26 16 view .LVU34
 131 0056 FBE7     		b	.L1
 132              	.LVL12:
 133              	.L5:
ARM GAS  /tmp/ccz1Fumd.s 			page 4


  13:/home/dat/Documents/colir_one/rocket_code/Module/Src/nmea_parse.c ****     char recv_crc[2];
 134              		.loc 1 13 38 discriminator 1 view .LVU35
 135 0058 0020     		movs	r0, #0
 136 005a F9E7     		b	.L1
 137              		.cfi_endproc
 138              	.LFE134:
 140              		.section	.rodata.nmea_GPGSA.str1.4,"aMS",%progbits,1
 141              		.align	2
 142              	.LC0:
 143 0000 2C00     		.ascii	",\000"
 144              		.section	.text.nmea_GPGSA,"ax",%progbits
 145              		.align	1
 146              		.syntax unified
 147              		.thumb
 148              		.thumb_func
 150              	nmea_GPGSA:
 151              	.LVL13:
 152              	.LFB136:
  32:/home/dat/Documents/colir_one/rocket_code/Module/Src/nmea_parse.c **** 
  33:/home/dat/Documents/colir_one/rocket_code/Module/Src/nmea_parse.c **** static int nmea_GPGGA(GPS_t *gps_data, char*inputString){
  34:/home/dat/Documents/colir_one/rocket_code/Module/Src/nmea_parse.c ****     char *values[25];
  35:/home/dat/Documents/colir_one/rocket_code/Module/Src/nmea_parse.c ****     int counter = 0;
  36:/home/dat/Documents/colir_one/rocket_code/Module/Src/nmea_parse.c ****     memset(values, 0, sizeof(values));
  37:/home/dat/Documents/colir_one/rocket_code/Module/Src/nmea_parse.c ****     char *marker = strtok(inputString, ",");
  38:/home/dat/Documents/colir_one/rocket_code/Module/Src/nmea_parse.c ****     while (marker != NULL) {
  39:/home/dat/Documents/colir_one/rocket_code/Module/Src/nmea_parse.c ****         values[counter++] = malloc(strlen(marker) + 1); //free later!!!!!!
  40:/home/dat/Documents/colir_one/rocket_code/Module/Src/nmea_parse.c ****         strcpy(values[counter - 1], marker);
  41:/home/dat/Documents/colir_one/rocket_code/Module/Src/nmea_parse.c ****         marker = strtok(NULL, ",");
  42:/home/dat/Documents/colir_one/rocket_code/Module/Src/nmea_parse.c ****     }
  43:/home/dat/Documents/colir_one/rocket_code/Module/Src/nmea_parse.c ****     char lonSide = values[5][0];
  44:/home/dat/Documents/colir_one/rocket_code/Module/Src/nmea_parse.c ****     char latSide = values[3][0];
  45:/home/dat/Documents/colir_one/rocket_code/Module/Src/nmea_parse.c ****     strcpy(gps_data->lastMeasure, values[1]);
  46:/home/dat/Documents/colir_one/rocket_code/Module/Src/nmea_parse.c ****     if(latSide == 'S' || latSide == 'N'){
  47:/home/dat/Documents/colir_one/rocket_code/Module/Src/nmea_parse.c ****         char lat_d[2];
  48:/home/dat/Documents/colir_one/rocket_code/Module/Src/nmea_parse.c ****         char lat_m[7];
  49:/home/dat/Documents/colir_one/rocket_code/Module/Src/nmea_parse.c ****         for (int z = 0; z < 2; z++) lat_d[z] = values[2][z];
  50:/home/dat/Documents/colir_one/rocket_code/Module/Src/nmea_parse.c ****         for (int z = 0; z < 6; z++) lat_m[z] = values[2][z + 2];
  51:/home/dat/Documents/colir_one/rocket_code/Module/Src/nmea_parse.c **** 
  52:/home/dat/Documents/colir_one/rocket_code/Module/Src/nmea_parse.c ****         int lat_deg_strtol = strtol(lat_d, NULL, 10);
  53:/home/dat/Documents/colir_one/rocket_code/Module/Src/nmea_parse.c ****         float lat_min_strtof = strtof(lat_m, NULL);
  54:/home/dat/Documents/colir_one/rocket_code/Module/Src/nmea_parse.c ****         double lat_deg = lat_deg_strtol + lat_min_strtof / 60;
  55:/home/dat/Documents/colir_one/rocket_code/Module/Src/nmea_parse.c **** 
  56:/home/dat/Documents/colir_one/rocket_code/Module/Src/nmea_parse.c ****         char lon_d[3];
  57:/home/dat/Documents/colir_one/rocket_code/Module/Src/nmea_parse.c ****         char lon_m[7];
  58:/home/dat/Documents/colir_one/rocket_code/Module/Src/nmea_parse.c **** 
  59:/home/dat/Documents/colir_one/rocket_code/Module/Src/nmea_parse.c ****         for (int z = 0; z < 3; z++) lon_d[z] = values[4][z];
  60:/home/dat/Documents/colir_one/rocket_code/Module/Src/nmea_parse.c ****         for (int z = 0; z < 6; z++) lon_m[z] = values[4][z + 3];
  61:/home/dat/Documents/colir_one/rocket_code/Module/Src/nmea_parse.c **** 
  62:/home/dat/Documents/colir_one/rocket_code/Module/Src/nmea_parse.c ****         int lon_deg_strtol = strtol(lon_d, NULL, 10);
  63:/home/dat/Documents/colir_one/rocket_code/Module/Src/nmea_parse.c ****         float lon_min_strtof = strtof(lon_m, NULL);
  64:/home/dat/Documents/colir_one/rocket_code/Module/Src/nmea_parse.c ****         double lon_deg = lon_deg_strtol + lon_min_strtof / 60;
  65:/home/dat/Documents/colir_one/rocket_code/Module/Src/nmea_parse.c **** 
  66:/home/dat/Documents/colir_one/rocket_code/Module/Src/nmea_parse.c ****         if(lat_deg!=0 && lon_deg!=0 && lat_deg<90 && lon_deg<180){
  67:/home/dat/Documents/colir_one/rocket_code/Module/Src/nmea_parse.c ****             gps_data->latitude = lat_deg;
  68:/home/dat/Documents/colir_one/rocket_code/Module/Src/nmea_parse.c ****             gps_data->latSide = latSide;
  69:/home/dat/Documents/colir_one/rocket_code/Module/Src/nmea_parse.c ****             gps_data->longitude = lon_deg;
  70:/home/dat/Documents/colir_one/rocket_code/Module/Src/nmea_parse.c ****             gps_data->lonSide = lonSide;
ARM GAS  /tmp/ccz1Fumd.s 			page 5


  71:/home/dat/Documents/colir_one/rocket_code/Module/Src/nmea_parse.c ****             float altitude = strtof(values[9], NULL);
  72:/home/dat/Documents/colir_one/rocket_code/Module/Src/nmea_parse.c ****             gps_data->altitude = altitude!=0 ? altitude : gps_data->altitude;
  73:/home/dat/Documents/colir_one/rocket_code/Module/Src/nmea_parse.c ****             gps_data->satelliteCount = strtol(values[7], NULL, 10);
  74:/home/dat/Documents/colir_one/rocket_code/Module/Src/nmea_parse.c **** 
  75:/home/dat/Documents/colir_one/rocket_code/Module/Src/nmea_parse.c ****             int fixQuality = strtol(values[6], NULL, 10);
  76:/home/dat/Documents/colir_one/rocket_code/Module/Src/nmea_parse.c ****             gps_data->fix = fixQuality > 0 ? 1 : 0;
  77:/home/dat/Documents/colir_one/rocket_code/Module/Src/nmea_parse.c **** 
  78:/home/dat/Documents/colir_one/rocket_code/Module/Src/nmea_parse.c ****             float hdop = strtof(values[8], NULL);
  79:/home/dat/Documents/colir_one/rocket_code/Module/Src/nmea_parse.c ****             gps_data->hdop = hdop!=0 ? hdop : gps_data->hdop;
  80:/home/dat/Documents/colir_one/rocket_code/Module/Src/nmea_parse.c ****         }
  81:/home/dat/Documents/colir_one/rocket_code/Module/Src/nmea_parse.c ****         else {
  82:/home/dat/Documents/colir_one/rocket_code/Module/Src/nmea_parse.c ****             for(int i=0; i<counter; i++) free(values[i]);
  83:/home/dat/Documents/colir_one/rocket_code/Module/Src/nmea_parse.c ****             return 0;
  84:/home/dat/Documents/colir_one/rocket_code/Module/Src/nmea_parse.c ****         }
  85:/home/dat/Documents/colir_one/rocket_code/Module/Src/nmea_parse.c **** 
  86:/home/dat/Documents/colir_one/rocket_code/Module/Src/nmea_parse.c ****     }
  87:/home/dat/Documents/colir_one/rocket_code/Module/Src/nmea_parse.c **** 
  88:/home/dat/Documents/colir_one/rocket_code/Module/Src/nmea_parse.c ****     for(int i=0; i<counter; i++) free(values[i]);
  89:/home/dat/Documents/colir_one/rocket_code/Module/Src/nmea_parse.c ****     return 1;
  90:/home/dat/Documents/colir_one/rocket_code/Module/Src/nmea_parse.c **** }
  91:/home/dat/Documents/colir_one/rocket_code/Module/Src/nmea_parse.c **** 
  92:/home/dat/Documents/colir_one/rocket_code/Module/Src/nmea_parse.c **** 
  93:/home/dat/Documents/colir_one/rocket_code/Module/Src/nmea_parse.c **** static int nmea_GPGSA(GPS_t *gps_data, char*inputString){
 153              		.loc 1 93 57 is_stmt 1 view -0
 154              		.cfi_startproc
 155              		@ args = 0, pretend = 0, frame = 104
 156              		@ frame_needed = 0, uses_anonymous_args = 0
 157              		.loc 1 93 57 is_stmt 0 view .LVU37
 158 0000 F0B5     		push	{r4, r5, r6, r7, lr}
 159              	.LCFI4:
 160              		.cfi_def_cfa_offset 20
 161              		.cfi_offset 4, -20
 162              		.cfi_offset 5, -16
 163              		.cfi_offset 6, -12
 164              		.cfi_offset 7, -8
 165              		.cfi_offset 14, -4
 166 0002 9BB0     		sub	sp, sp, #108
 167              	.LCFI5:
 168              		.cfi_def_cfa_offset 128
 169 0004 0646     		mov	r6, r0
 170 0006 0C46     		mov	r4, r1
  94:/home/dat/Documents/colir_one/rocket_code/Module/Src/nmea_parse.c ****     char *values[25];
 171              		.loc 1 94 5 is_stmt 1 view .LVU38
  95:/home/dat/Documents/colir_one/rocket_code/Module/Src/nmea_parse.c ****     int counter = 0;
 172              		.loc 1 95 5 view .LVU39
 173              	.LVL14:
  96:/home/dat/Documents/colir_one/rocket_code/Module/Src/nmea_parse.c ****     memset(values, 0, sizeof(values));
 174              		.loc 1 96 5 view .LVU40
 175 0008 6422     		movs	r2, #100
 176 000a 0021     		movs	r1, #0
 177              	.LVL15:
 178              		.loc 1 96 5 is_stmt 0 view .LVU41
 179 000c 01A8     		add	r0, sp, #4
 180              	.LVL16:
 181              		.loc 1 96 5 view .LVU42
 182 000e FFF7FEFF 		bl	memset
 183              	.LVL17:
ARM GAS  /tmp/ccz1Fumd.s 			page 6


  97:/home/dat/Documents/colir_one/rocket_code/Module/Src/nmea_parse.c ****     char *marker = strtok(inputString, ",");
 184              		.loc 1 97 5 is_stmt 1 view .LVU43
 185              		.loc 1 97 20 is_stmt 0 view .LVU44
 186 0012 2449     		ldr	r1, .L19
 187 0014 2046     		mov	r0, r4
 188 0016 FFF7FEFF 		bl	strtok
 189              	.LVL18:
 190 001a 0446     		mov	r4, r0
 191              	.LVL19:
  98:/home/dat/Documents/colir_one/rocket_code/Module/Src/nmea_parse.c ****     while (marker != NULL) {
 192              		.loc 1 98 5 is_stmt 1 view .LVU45
  95:/home/dat/Documents/colir_one/rocket_code/Module/Src/nmea_parse.c ****     memset(values, 0, sizeof(values));
 193              		.loc 1 95 9 is_stmt 0 view .LVU46
 194 001c 0025     		movs	r5, #0
 195              		.loc 1 98 11 view .LVU47
 196 001e 14E0     		b	.L10
 197              	.LVL20:
 198              	.L11:
  99:/home/dat/Documents/colir_one/rocket_code/Module/Src/nmea_parse.c ****         values[counter++] = malloc(strlen(marker) + 1); //free later!!!!!!
 199              		.loc 1 99 9 is_stmt 1 view .LVU48
 200              		.loc 1 99 36 is_stmt 0 view .LVU49
 201 0020 2046     		mov	r0, r4
 202              	.LVL21:
 203              		.loc 1 99 36 view .LVU50
 204 0022 FFF7FEFF 		bl	strlen
 205              	.LVL22:
 206              		.loc 1 99 23 discriminator 1 view .LVU51
 207 0026 6F1C     		adds	r7, r5, #1
 208              	.LVL23:
 209              		.loc 1 99 29 discriminator 1 view .LVU52
 210 0028 0130     		adds	r0, r0, #1
 211 002a FFF7FEFF 		bl	malloc
 212              	.LVL24:
 213              		.loc 1 99 27 discriminator 2 view .LVU53
 214 002e 1AAB     		add	r3, sp, #104
 215 0030 03EB8505 		add	r5, r3, r5, lsl #2
 216 0034 45F8640C 		str	r0, [r5, #-100]
 100:/home/dat/Documents/colir_one/rocket_code/Module/Src/nmea_parse.c ****         strcpy(values[counter - 1], marker);
 217              		.loc 1 100 9 is_stmt 1 view .LVU54
 218 0038 2146     		mov	r1, r4
 219 003a FFF7FEFF 		bl	strcpy
 220              	.LVL25:
 101:/home/dat/Documents/colir_one/rocket_code/Module/Src/nmea_parse.c ****         marker = strtok(NULL, ",");
 221              		.loc 1 101 9 view .LVU55
 222              		.loc 1 101 18 is_stmt 0 view .LVU56
 223 003e 1949     		ldr	r1, .L19
 224 0040 0020     		movs	r0, #0
 225 0042 FFF7FEFF 		bl	strtok
 226              	.LVL26:
 227 0046 0446     		mov	r4, r0
 228              	.LVL27:
  99:/home/dat/Documents/colir_one/rocket_code/Module/Src/nmea_parse.c ****         values[counter++] = malloc(strlen(marker) + 1); //free later!!!!!!
 229              		.loc 1 99 23 discriminator 1 view .LVU57
 230 0048 3D46     		mov	r5, r7
 231              	.LVL28:
 232              	.L10:
  98:/home/dat/Documents/colir_one/rocket_code/Module/Src/nmea_parse.c ****         values[counter++] = malloc(strlen(marker) + 1); //free later!!!!!!
ARM GAS  /tmp/ccz1Fumd.s 			page 7


 233              		.loc 1 98 19 is_stmt 1 view .LVU58
 234 004a 002C     		cmp	r4, #0
 235 004c E8D1     		bne	.L11
 102:/home/dat/Documents/colir_one/rocket_code/Module/Src/nmea_parse.c ****     }
 103:/home/dat/Documents/colir_one/rocket_code/Module/Src/nmea_parse.c ****     int fix = strtol(values[2], NULL, 10);
 236              		.loc 1 103 5 view .LVU59
 237              		.loc 1 103 15 is_stmt 0 view .LVU60
 238 004e 0A22     		movs	r2, #10
 239 0050 0021     		movs	r1, #0
 240 0052 0398     		ldr	r0, [sp, #12]
 241              	.LVL29:
 242              		.loc 1 103 15 view .LVU61
 243 0054 FFF7FEFF 		bl	strtol
 244              	.LVL30:
 104:/home/dat/Documents/colir_one/rocket_code/Module/Src/nmea_parse.c ****     gps_data->fix = fix > 1 ? 1 : 0;
 245              		.loc 1 104 5 is_stmt 1 view .LVU62
 246              		.loc 1 104 33 is_stmt 0 view .LVU63
 247 0058 0128     		cmp	r0, #1
 248 005a D4BF     		ite	le
 249 005c 0020     		movle	r0, #0
 250              	.LVL31:
 251              		.loc 1 104 33 view .LVU64
 252 005e 0120     		movgt	r0, #1
 253              		.loc 1 104 19 view .LVU65
 254 0060 B062     		str	r0, [r6, #40]
 105:/home/dat/Documents/colir_one/rocket_code/Module/Src/nmea_parse.c ****     int satelliteCount = 0;
 255              		.loc 1 105 5 is_stmt 1 view .LVU66
 256              	.LVL32:
 106:/home/dat/Documents/colir_one/rocket_code/Module/Src/nmea_parse.c ****     for(int i=3; i<15; i++){
 257              		.loc 1 106 5 view .LVU67
 258              	.LBB2:
 259              		.loc 1 106 9 view .LVU68
 260              		.loc 1 106 13 is_stmt 0 view .LVU69
 261 0062 0323     		movs	r3, #3
 262              	.LBE2:
 105:/home/dat/Documents/colir_one/rocket_code/Module/Src/nmea_parse.c ****     int satelliteCount = 0;
 263              		.loc 1 105 9 view .LVU70
 264 0064 0021     		movs	r1, #0
 265              	.LBB3:
 266              		.loc 1 106 5 view .LVU71
 267 0066 00E0     		b	.L12
 268              	.LVL33:
 269              	.L13:
 270              		.loc 1 106 25 is_stmt 1 discriminator 2 view .LVU72
 271 0068 0133     		adds	r3, r3, #1
 272              	.LVL34:
 273              	.L12:
 274              		.loc 1 106 19 discriminator 1 view .LVU73
 275 006a 0E2B     		cmp	r3, #14
 276 006c 09DC     		bgt	.L18
 107:/home/dat/Documents/colir_one/rocket_code/Module/Src/nmea_parse.c ****         if(values[i][0] != '\0'){
 277              		.loc 1 107 9 view .LVU74
 278              		.loc 1 107 18 is_stmt 0 view .LVU75
 279 006e 1AAA     		add	r2, sp, #104
 280 0070 02EB8302 		add	r2, r2, r3, lsl #2
 281 0074 52F8642C 		ldr	r2, [r2, #-100]
 282              		.loc 1 107 21 view .LVU76
ARM GAS  /tmp/ccz1Fumd.s 			page 8


 283 0078 1278     		ldrb	r2, [r2]	@ zero_extendqisi2
 284              		.loc 1 107 11 view .LVU77
 285 007a 002A     		cmp	r2, #0
 286 007c F4D0     		beq	.L13
 108:/home/dat/Documents/colir_one/rocket_code/Module/Src/nmea_parse.c ****             satelliteCount++;
 287              		.loc 1 108 13 is_stmt 1 view .LVU78
 288              		.loc 1 108 27 is_stmt 0 view .LVU79
 289 007e 0131     		adds	r1, r1, #1
 290              	.LVL35:
 291              		.loc 1 108 27 view .LVU80
 292 0080 F2E7     		b	.L13
 293              	.L18:
 294              		.loc 1 108 27 view .LVU81
 295              	.LBE3:
 109:/home/dat/Documents/colir_one/rocket_code/Module/Src/nmea_parse.c ****         }
 110:/home/dat/Documents/colir_one/rocket_code/Module/Src/nmea_parse.c ****     }
 111:/home/dat/Documents/colir_one/rocket_code/Module/Src/nmea_parse.c ****     gps_data->satelliteCount = satelliteCount;
 296              		.loc 1 111 5 is_stmt 1 view .LVU82
 297              		.loc 1 111 30 is_stmt 0 view .LVU83
 298 0082 7162     		str	r1, [r6, #36]
 112:/home/dat/Documents/colir_one/rocket_code/Module/Src/nmea_parse.c ****     for(int i=0; i<counter; i++) free(values[i]);
 299              		.loc 1 112 5 is_stmt 1 view .LVU84
 300              	.LBB4:
 301              		.loc 1 112 9 view .LVU85
 302              	.LVL36:
 303              		.loc 1 112 13 is_stmt 0 view .LVU86
 304 0084 0024     		movs	r4, #0
 305              	.LVL37:
 306              		.loc 1 112 5 view .LVU87
 307 0086 07E0     		b	.L15
 308              	.LVL38:
 309              	.L16:
 310              		.loc 1 112 34 is_stmt 1 discriminator 3 view .LVU88
 311              		.loc 1 112 45 is_stmt 0 discriminator 3 view .LVU89
 312 0088 1AAB     		add	r3, sp, #104
 313 008a 03EB8403 		add	r3, r3, r4, lsl #2
 314              		.loc 1 112 34 discriminator 3 view .LVU90
 315 008e 53F8640C 		ldr	r0, [r3, #-100]
 316 0092 FFF7FEFF 		bl	free
 317              	.LVL39:
 318              		.loc 1 112 30 is_stmt 1 discriminator 3 view .LVU91
 319 0096 0134     		adds	r4, r4, #1
 320              	.LVL40:
 321              	.L15:
 322              		.loc 1 112 19 discriminator 2 view .LVU92
 323 0098 A542     		cmp	r5, r4
 324 009a F5DC     		bgt	.L16
 325              	.LBE4:
 113:/home/dat/Documents/colir_one/rocket_code/Module/Src/nmea_parse.c ****     return 1;
 326              		.loc 1 113 5 view .LVU93
 114:/home/dat/Documents/colir_one/rocket_code/Module/Src/nmea_parse.c **** }
 327              		.loc 1 114 1 is_stmt 0 view .LVU94
 328 009c 0120     		movs	r0, #1
 329 009e 1BB0     		add	sp, sp, #108
 330              	.LCFI6:
 331              		.cfi_def_cfa_offset 20
 332              		@ sp needed
ARM GAS  /tmp/ccz1Fumd.s 			page 9


 333 00a0 F0BD     		pop	{r4, r5, r6, r7, pc}
 334              	.LVL41:
 335              	.L20:
 336              		.loc 1 114 1 view .LVU95
 337 00a2 00BF     		.align	2
 338              	.L19:
 339 00a4 00000000 		.word	.LC0
 340              		.cfi_endproc
 341              	.LFE136:
 343              		.global	__aeabi_f2d
 344              		.section	.text.nmea_GPGLL,"ax",%progbits
 345              		.align	1
 346              		.syntax unified
 347              		.thumb
 348              		.thumb_func
 350              	nmea_GPGLL:
 351              	.LVL42:
 352              	.LFB137:
 115:/home/dat/Documents/colir_one/rocket_code/Module/Src/nmea_parse.c **** 
 116:/home/dat/Documents/colir_one/rocket_code/Module/Src/nmea_parse.c **** 
 117:/home/dat/Documents/colir_one/rocket_code/Module/Src/nmea_parse.c **** 
 118:/home/dat/Documents/colir_one/rocket_code/Module/Src/nmea_parse.c **** static int nmea_GPGLL(GPS_t *gps_data, char*inputString) {
 353              		.loc 1 118 58 is_stmt 1 view -0
 354              		.cfi_startproc
 355              		@ args = 0, pretend = 0, frame = 128
 356              		@ frame_needed = 0, uses_anonymous_args = 0
 357              		.loc 1 118 58 is_stmt 0 view .LVU97
 358 0000 2DE9F04F 		push	{r4, r5, r6, r7, r8, r9, r10, fp, lr}
 359              	.LCFI7:
 360              		.cfi_def_cfa_offset 36
 361              		.cfi_offset 4, -36
 362              		.cfi_offset 5, -32
 363              		.cfi_offset 6, -28
 364              		.cfi_offset 7, -24
 365              		.cfi_offset 8, -20
 366              		.cfi_offset 9, -16
 367              		.cfi_offset 10, -12
 368              		.cfi_offset 11, -8
 369              		.cfi_offset 14, -4
 370 0004 2DED028B 		vpush.64	{d8}
 371              	.LCFI8:
 372              		.cfi_def_cfa_offset 44
 373              		.cfi_offset 80, -44
 374              		.cfi_offset 81, -40
 375 0008 A1B0     		sub	sp, sp, #132
 376              	.LCFI9:
 377              		.cfi_def_cfa_offset 176
 378 000a 0746     		mov	r7, r0
 379 000c 0C46     		mov	r4, r1
 119:/home/dat/Documents/colir_one/rocket_code/Module/Src/nmea_parse.c **** 
 120:/home/dat/Documents/colir_one/rocket_code/Module/Src/nmea_parse.c ****     char *values[25];
 380              		.loc 1 120 5 is_stmt 1 view .LVU98
 121:/home/dat/Documents/colir_one/rocket_code/Module/Src/nmea_parse.c ****     int counter = 0;
 381              		.loc 1 121 5 view .LVU99
 382              	.LVL43:
 122:/home/dat/Documents/colir_one/rocket_code/Module/Src/nmea_parse.c ****     memset(values, 0, sizeof(values));
 383              		.loc 1 122 5 view .LVU100
ARM GAS  /tmp/ccz1Fumd.s 			page 10


 384 000e 6422     		movs	r2, #100
 385 0010 0021     		movs	r1, #0
 386              	.LVL44:
 387              		.loc 1 122 5 is_stmt 0 view .LVU101
 388 0012 07A8     		add	r0, sp, #28
 389              	.LVL45:
 390              		.loc 1 122 5 view .LVU102
 391 0014 FFF7FEFF 		bl	memset
 392              	.LVL46:
 123:/home/dat/Documents/colir_one/rocket_code/Module/Src/nmea_parse.c ****     char *marker = strtok(inputString, ",");
 393              		.loc 1 123 5 is_stmt 1 view .LVU103
 394              		.loc 1 123 20 is_stmt 0 view .LVU104
 395 0018 6649     		ldr	r1, .L50
 396 001a 2046     		mov	r0, r4
 397 001c FFF7FEFF 		bl	strtok
 398              	.LVL47:
 399 0020 0446     		mov	r4, r0
 400              	.LVL48:
 124:/home/dat/Documents/colir_one/rocket_code/Module/Src/nmea_parse.c ****     while (marker != NULL) {
 401              		.loc 1 124 5 is_stmt 1 view .LVU105
 121:/home/dat/Documents/colir_one/rocket_code/Module/Src/nmea_parse.c ****     memset(values, 0, sizeof(values));
 402              		.loc 1 121 9 is_stmt 0 view .LVU106
 403 0022 0025     		movs	r5, #0
 404              		.loc 1 124 11 view .LVU107
 405 0024 14E0     		b	.L22
 406              	.LVL49:
 407              	.L23:
 125:/home/dat/Documents/colir_one/rocket_code/Module/Src/nmea_parse.c ****         values[counter++] = malloc(strlen(marker) + 1); //free later!!!!!!
 408              		.loc 1 125 9 is_stmt 1 view .LVU108
 409              		.loc 1 125 36 is_stmt 0 view .LVU109
 410 0026 2046     		mov	r0, r4
 411              	.LVL50:
 412              		.loc 1 125 36 view .LVU110
 413 0028 FFF7FEFF 		bl	strlen
 414              	.LVL51:
 415              		.loc 1 125 23 discriminator 1 view .LVU111
 416 002c 6E1C     		adds	r6, r5, #1
 417              	.LVL52:
 418              		.loc 1 125 29 discriminator 1 view .LVU112
 419 002e 0130     		adds	r0, r0, #1
 420 0030 FFF7FEFF 		bl	malloc
 421              	.LVL53:
 422              		.loc 1 125 27 discriminator 2 view .LVU113
 423 0034 20AB     		add	r3, sp, #128
 424 0036 03EB8505 		add	r5, r3, r5, lsl #2
 425 003a 45F8640C 		str	r0, [r5, #-100]
 126:/home/dat/Documents/colir_one/rocket_code/Module/Src/nmea_parse.c ****         strcpy(values[counter - 1], marker);
 426              		.loc 1 126 9 is_stmt 1 view .LVU114
 427 003e 2146     		mov	r1, r4
 428 0040 FFF7FEFF 		bl	strcpy
 429              	.LVL54:
 127:/home/dat/Documents/colir_one/rocket_code/Module/Src/nmea_parse.c ****         marker = strtok(NULL, ",");
 430              		.loc 1 127 9 view .LVU115
 431              		.loc 1 127 18 is_stmt 0 view .LVU116
 432 0044 5B49     		ldr	r1, .L50
 433 0046 0020     		movs	r0, #0
 434 0048 FFF7FEFF 		bl	strtok
ARM GAS  /tmp/ccz1Fumd.s 			page 11


 435              	.LVL55:
 436 004c 0446     		mov	r4, r0
 437              	.LVL56:
 125:/home/dat/Documents/colir_one/rocket_code/Module/Src/nmea_parse.c ****         values[counter++] = malloc(strlen(marker) + 1); //free later!!!!!!
 438              		.loc 1 125 23 discriminator 1 view .LVU117
 439 004e 3546     		mov	r5, r6
 440              	.LVL57:
 441              	.L22:
 124:/home/dat/Documents/colir_one/rocket_code/Module/Src/nmea_parse.c ****         values[counter++] = malloc(strlen(marker) + 1); //free later!!!!!!
 442              		.loc 1 124 19 is_stmt 1 view .LVU118
 443 0050 002C     		cmp	r4, #0
 444 0052 E8D1     		bne	.L23
 128:/home/dat/Documents/colir_one/rocket_code/Module/Src/nmea_parse.c ****     }
 129:/home/dat/Documents/colir_one/rocket_code/Module/Src/nmea_parse.c ****     char latSide = values[2][0];
 445              		.loc 1 129 5 view .LVU119
 446              		.loc 1 129 26 is_stmt 0 view .LVU120
 447 0054 099B     		ldr	r3, [sp, #36]
 448              		.loc 1 129 10 view .LVU121
 449 0056 93F80080 		ldrb	r8, [r3]	@ zero_extendqisi2
 450              	.LVL58:
 130:/home/dat/Documents/colir_one/rocket_code/Module/Src/nmea_parse.c ****     if (latSide == 'S' || latSide == 'N') { //check if data is sorta intact
 451              		.loc 1 130 5 is_stmt 1 view .LVU122
 452              		.loc 1 130 8 is_stmt 0 view .LVU123
 453 005a B8F1530F 		cmp	r8, #83
 454 005e 1BD0     		beq	.L41
 455              		.loc 1 130 24 discriminator 1 view .LVU124
 456 0060 B8F14E0F 		cmp	r8, #78
 457 0064 1AD0     		beq	.L42
 131:/home/dat/Documents/colir_one/rocket_code/Module/Src/nmea_parse.c ****         char lat_d[2];
 132:/home/dat/Documents/colir_one/rocket_code/Module/Src/nmea_parse.c ****         char lat_m[7];
 133:/home/dat/Documents/colir_one/rocket_code/Module/Src/nmea_parse.c ****         for (int z = 0; z < 2; z++) lat_d[z] = values[1][z];
 134:/home/dat/Documents/colir_one/rocket_code/Module/Src/nmea_parse.c ****         for (int z = 0; z < 6; z++) lat_m[z] = values[1][z + 2];
 135:/home/dat/Documents/colir_one/rocket_code/Module/Src/nmea_parse.c **** 
 136:/home/dat/Documents/colir_one/rocket_code/Module/Src/nmea_parse.c ****         int lat_deg_strtol = strtol(lat_d, NULL, 10);
 137:/home/dat/Documents/colir_one/rocket_code/Module/Src/nmea_parse.c ****         float lat_min_strtof = strtof(lat_m, NULL);
 138:/home/dat/Documents/colir_one/rocket_code/Module/Src/nmea_parse.c ****         double lat_deg = lat_deg_strtol + lat_min_strtof / 60;
 139:/home/dat/Documents/colir_one/rocket_code/Module/Src/nmea_parse.c **** 
 140:/home/dat/Documents/colir_one/rocket_code/Module/Src/nmea_parse.c ****         char lon_d[3];
 141:/home/dat/Documents/colir_one/rocket_code/Module/Src/nmea_parse.c ****         char lon_m[7];
 142:/home/dat/Documents/colir_one/rocket_code/Module/Src/nmea_parse.c ****         char lonSide = values[4][0];
 143:/home/dat/Documents/colir_one/rocket_code/Module/Src/nmea_parse.c ****         for (int z = 0; z < 3; z++) lon_d[z] = values[3][z];
 144:/home/dat/Documents/colir_one/rocket_code/Module/Src/nmea_parse.c ****         for (int z = 0; z < 6; z++) lon_m[z] = values[3][z + 3];
 145:/home/dat/Documents/colir_one/rocket_code/Module/Src/nmea_parse.c **** 
 146:/home/dat/Documents/colir_one/rocket_code/Module/Src/nmea_parse.c ****         int lon_deg_strtol = strtol(lon_d, NULL, 10);
 147:/home/dat/Documents/colir_one/rocket_code/Module/Src/nmea_parse.c ****         float lon_min_strtof = strtof(lon_m, NULL);
 148:/home/dat/Documents/colir_one/rocket_code/Module/Src/nmea_parse.c ****         double lon_deg = lon_deg_strtol + lon_min_strtof / 60;
 149:/home/dat/Documents/colir_one/rocket_code/Module/Src/nmea_parse.c ****         //confirm that we aren't on null island
 150:/home/dat/Documents/colir_one/rocket_code/Module/Src/nmea_parse.c ****         if(lon_deg_strtol == 0 || lon_min_strtof == 0 || lat_deg_strtol == 0 || lat_min_strtof == 0
 151:/home/dat/Documents/colir_one/rocket_code/Module/Src/nmea_parse.c ****             for(int i = 0; i<counter; i++) free(values[i]);
 152:/home/dat/Documents/colir_one/rocket_code/Module/Src/nmea_parse.c ****             return 0;
 153:/home/dat/Documents/colir_one/rocket_code/Module/Src/nmea_parse.c ****         }
 154:/home/dat/Documents/colir_one/rocket_code/Module/Src/nmea_parse.c ****         else{
 155:/home/dat/Documents/colir_one/rocket_code/Module/Src/nmea_parse.c ****             gps_data->latitude = lat_deg;
 156:/home/dat/Documents/colir_one/rocket_code/Module/Src/nmea_parse.c ****             gps_data->longitude = lon_deg;
 157:/home/dat/Documents/colir_one/rocket_code/Module/Src/nmea_parse.c ****             gps_data->latSide = latSide;
 158:/home/dat/Documents/colir_one/rocket_code/Module/Src/nmea_parse.c ****             gps_data->lonSide = lonSide;
 159:/home/dat/Documents/colir_one/rocket_code/Module/Src/nmea_parse.c ****             for(int i = 0; i<counter; i++) free(values[i]);
ARM GAS  /tmp/ccz1Fumd.s 			page 12


 160:/home/dat/Documents/colir_one/rocket_code/Module/Src/nmea_parse.c ****             return 1;
 161:/home/dat/Documents/colir_one/rocket_code/Module/Src/nmea_parse.c ****         }
 162:/home/dat/Documents/colir_one/rocket_code/Module/Src/nmea_parse.c ****     }
 163:/home/dat/Documents/colir_one/rocket_code/Module/Src/nmea_parse.c ****     else return 0;
 458              		.loc 1 163 17 view .LVU125
 459 0066 0020     		movs	r0, #0
 460              	.LVL59:
 461              		.loc 1 163 17 view .LVU126
 462 0068 8DE0     		b	.L21
 463              	.LVL60:
 464              	.L27:
 465              	.LBB5:
 466              	.LBB6:
 133:/home/dat/Documents/colir_one/rocket_code/Module/Src/nmea_parse.c ****         for (int z = 0; z < 6; z++) lat_m[z] = values[1][z + 2];
 467              		.loc 1 133 37 is_stmt 1 discriminator 3 view .LVU127
 133:/home/dat/Documents/colir_one/rocket_code/Module/Src/nmea_parse.c ****         for (int z = 0; z < 6; z++) lat_m[z] = values[1][z + 2];
 468              		.loc 1 133 54 is_stmt 0 discriminator 3 view .LVU128
 469 006a 089A     		ldr	r2, [sp, #32]
 133:/home/dat/Documents/colir_one/rocket_code/Module/Src/nmea_parse.c ****         for (int z = 0; z < 6; z++) lat_m[z] = values[1][z + 2];
 470              		.loc 1 133 57 discriminator 3 view .LVU129
 471 006c D15C     		ldrb	r1, [r2, r3]	@ zero_extendqisi2
 133:/home/dat/Documents/colir_one/rocket_code/Module/Src/nmea_parse.c ****         for (int z = 0; z < 6; z++) lat_m[z] = values[1][z + 2];
 472              		.loc 1 133 46 discriminator 3 view .LVU130
 473 006e 03F18002 		add	r2, r3, #128
 474 0072 6A44     		add	r2, sp, r2
 475 0074 02F87C1C 		strb	r1, [r2, #-124]
 133:/home/dat/Documents/colir_one/rocket_code/Module/Src/nmea_parse.c ****         for (int z = 0; z < 6; z++) lat_m[z] = values[1][z + 2];
 476              		.loc 1 133 33 is_stmt 1 discriminator 3 view .LVU131
 477 0078 0133     		adds	r3, r3, #1
 478              	.LVL61:
 479              	.L26:
 133:/home/dat/Documents/colir_one/rocket_code/Module/Src/nmea_parse.c ****         for (int z = 0; z < 6; z++) lat_m[z] = values[1][z + 2];
 480              		.loc 1 133 27 discriminator 1 view .LVU132
 481 007a 012B     		cmp	r3, #1
 482 007c F5DD     		ble	.L27
 483              	.LBE6:
 484              	.LBB7:
 134:/home/dat/Documents/colir_one/rocket_code/Module/Src/nmea_parse.c **** 
 485              		.loc 1 134 18 is_stmt 0 view .LVU133
 486 007e 0023     		movs	r3, #0
 487              	.LVL62:
 488              	.L28:
 134:/home/dat/Documents/colir_one/rocket_code/Module/Src/nmea_parse.c **** 
 489              		.loc 1 134 27 is_stmt 1 discriminator 1 view .LVU134
 490 0080 052B     		cmp	r3, #5
 491 0082 0DDC     		bgt	.L48
 134:/home/dat/Documents/colir_one/rocket_code/Module/Src/nmea_parse.c **** 
 492              		.loc 1 134 37 discriminator 3 view .LVU135
 134:/home/dat/Documents/colir_one/rocket_code/Module/Src/nmea_parse.c **** 
 493              		.loc 1 134 54 is_stmt 0 discriminator 3 view .LVU136
 494 0084 089A     		ldr	r2, [sp, #32]
 134:/home/dat/Documents/colir_one/rocket_code/Module/Src/nmea_parse.c **** 
 495              		.loc 1 134 57 discriminator 3 view .LVU137
 496 0086 1A44     		add	r2, r2, r3
 497 0088 9178     		ldrb	r1, [r2, #2]	@ zero_extendqisi2
 134:/home/dat/Documents/colir_one/rocket_code/Module/Src/nmea_parse.c **** 
 498              		.loc 1 134 46 discriminator 3 view .LVU138
ARM GAS  /tmp/ccz1Fumd.s 			page 13


 499 008a 03F18002 		add	r2, r3, #128
 500 008e 6A44     		add	r2, sp, r2
 501 0090 02F8741C 		strb	r1, [r2, #-116]
 134:/home/dat/Documents/colir_one/rocket_code/Module/Src/nmea_parse.c **** 
 502              		.loc 1 134 33 is_stmt 1 discriminator 3 view .LVU139
 503 0094 0133     		adds	r3, r3, #1
 504              	.LVL63:
 134:/home/dat/Documents/colir_one/rocket_code/Module/Src/nmea_parse.c **** 
 505              		.loc 1 134 33 is_stmt 0 discriminator 3 view .LVU140
 506 0096 F3E7     		b	.L28
 507              	.LVL64:
 508              	.L41:
 134:/home/dat/Documents/colir_one/rocket_code/Module/Src/nmea_parse.c **** 
 509              		.loc 1 134 33 discriminator 3 view .LVU141
 510              	.LBE7:
 511              	.LBE5:
 512 0098 0023     		movs	r3, #0
 513 009a EEE7     		b	.L26
 514              	.L42:
 515 009c 0023     		movs	r3, #0
 516 009e ECE7     		b	.L26
 517              	.LVL65:
 518              	.L48:
 519              	.LBB13:
 136:/home/dat/Documents/colir_one/rocket_code/Module/Src/nmea_parse.c ****         float lat_min_strtof = strtof(lat_m, NULL);
 520              		.loc 1 136 9 is_stmt 1 view .LVU142
 136:/home/dat/Documents/colir_one/rocket_code/Module/Src/nmea_parse.c ****         float lat_min_strtof = strtof(lat_m, NULL);
 521              		.loc 1 136 30 is_stmt 0 view .LVU143
 522 00a0 0A22     		movs	r2, #10
 523 00a2 0021     		movs	r1, #0
 524 00a4 01A8     		add	r0, sp, #4
 525              	.LVL66:
 136:/home/dat/Documents/colir_one/rocket_code/Module/Src/nmea_parse.c ****         float lat_min_strtof = strtof(lat_m, NULL);
 526              		.loc 1 136 30 view .LVU144
 527 00a6 FFF7FEFF 		bl	strtol
 528              	.LVL67:
 136:/home/dat/Documents/colir_one/rocket_code/Module/Src/nmea_parse.c ****         float lat_min_strtof = strtof(lat_m, NULL);
 529              		.loc 1 136 30 view .LVU145
 530 00aa 0646     		mov	r6, r0
 531              	.LVL68:
 137:/home/dat/Documents/colir_one/rocket_code/Module/Src/nmea_parse.c ****         double lat_deg = lat_deg_strtol + lat_min_strtof / 60;
 532              		.loc 1 137 9 is_stmt 1 view .LVU146
 137:/home/dat/Documents/colir_one/rocket_code/Module/Src/nmea_parse.c ****         double lat_deg = lat_deg_strtol + lat_min_strtof / 60;
 533              		.loc 1 137 32 is_stmt 0 view .LVU147
 534 00ac 0021     		movs	r1, #0
 535 00ae 03A8     		add	r0, sp, #12
 536              	.LVL69:
 137:/home/dat/Documents/colir_one/rocket_code/Module/Src/nmea_parse.c ****         double lat_deg = lat_deg_strtol + lat_min_strtof / 60;
 537              		.loc 1 137 32 view .LVU148
 538 00b0 FFF7FEFF 		bl	strtof
 539              	.LVL70:
 540 00b4 F0EE408A 		vmov.f32	s17, s0
 541              	.LVL71:
 138:/home/dat/Documents/colir_one/rocket_code/Module/Src/nmea_parse.c **** 
 542              		.loc 1 138 9 is_stmt 1 view .LVU149
 138:/home/dat/Documents/colir_one/rocket_code/Module/Src/nmea_parse.c **** 
 543              		.loc 1 138 58 is_stmt 0 view .LVU150
ARM GAS  /tmp/ccz1Fumd.s 			page 14


 544 00b8 9FED3F7A 		vldr.32	s14, .L50+4
 545 00bc C0EE077A 		vdiv.f32	s15, s0, s14
 138:/home/dat/Documents/colir_one/rocket_code/Module/Src/nmea_parse.c **** 
 546              		.loc 1 138 41 view .LVU151
 547 00c0 07EE106A 		vmov	s14, r6	@ int
 548 00c4 B8EEC77A 		vcvt.f32.s32	s14, s14
 138:/home/dat/Documents/colir_one/rocket_code/Module/Src/nmea_parse.c **** 
 549              		.loc 1 138 16 view .LVU152
 550 00c8 77EE277A 		vadd.f32	s15, s14, s15
 551 00cc 17EE900A 		vmov	r0, s15
 552 00d0 FFF7FEFF 		bl	__aeabi_f2d
 553              	.LVL72:
 138:/home/dat/Documents/colir_one/rocket_code/Module/Src/nmea_parse.c **** 
 554              		.loc 1 138 16 view .LVU153
 555 00d4 8246     		mov	r10, r0
 556 00d6 8B46     		mov	fp, r1
 557              	.LVL73:
 140:/home/dat/Documents/colir_one/rocket_code/Module/Src/nmea_parse.c ****         char lon_m[7];
 558              		.loc 1 140 9 is_stmt 1 view .LVU154
 141:/home/dat/Documents/colir_one/rocket_code/Module/Src/nmea_parse.c ****         char lonSide = values[4][0];
 559              		.loc 1 141 9 view .LVU155
 142:/home/dat/Documents/colir_one/rocket_code/Module/Src/nmea_parse.c ****         for (int z = 0; z < 3; z++) lon_d[z] = values[3][z];
 560              		.loc 1 142 9 view .LVU156
 142:/home/dat/Documents/colir_one/rocket_code/Module/Src/nmea_parse.c ****         for (int z = 0; z < 3; z++) lon_d[z] = values[3][z];
 561              		.loc 1 142 30 is_stmt 0 view .LVU157
 562 00d8 0B9B     		ldr	r3, [sp, #44]
 142:/home/dat/Documents/colir_one/rocket_code/Module/Src/nmea_parse.c ****         for (int z = 0; z < 3; z++) lon_d[z] = values[3][z];
 563              		.loc 1 142 14 view .LVU158
 564 00da 93F80090 		ldrb	r9, [r3]	@ zero_extendqisi2
 565              	.LVL74:
 143:/home/dat/Documents/colir_one/rocket_code/Module/Src/nmea_parse.c ****         for (int z = 0; z < 6; z++) lon_m[z] = values[3][z + 3];
 566              		.loc 1 143 9 is_stmt 1 view .LVU159
 567              	.LBB8:
 143:/home/dat/Documents/colir_one/rocket_code/Module/Src/nmea_parse.c ****         for (int z = 0; z < 6; z++) lon_m[z] = values[3][z + 3];
 568              		.loc 1 143 14 view .LVU160
 143:/home/dat/Documents/colir_one/rocket_code/Module/Src/nmea_parse.c ****         for (int z = 0; z < 6; z++) lon_m[z] = values[3][z + 3];
 569              		.loc 1 143 18 is_stmt 0 view .LVU161
 570 00de 0023     		movs	r3, #0
 143:/home/dat/Documents/colir_one/rocket_code/Module/Src/nmea_parse.c ****         for (int z = 0; z < 6; z++) lon_m[z] = values[3][z + 3];
 571              		.loc 1 143 9 view .LVU162
 572 00e0 07E0     		b	.L30
 573              	.LVL75:
 574              	.L31:
 143:/home/dat/Documents/colir_one/rocket_code/Module/Src/nmea_parse.c ****         for (int z = 0; z < 6; z++) lon_m[z] = values[3][z + 3];
 575              		.loc 1 143 37 is_stmt 1 discriminator 3 view .LVU163
 143:/home/dat/Documents/colir_one/rocket_code/Module/Src/nmea_parse.c ****         for (int z = 0; z < 6; z++) lon_m[z] = values[3][z + 3];
 576              		.loc 1 143 54 is_stmt 0 discriminator 3 view .LVU164
 577 00e2 0A9A     		ldr	r2, [sp, #40]
 143:/home/dat/Documents/colir_one/rocket_code/Module/Src/nmea_parse.c ****         for (int z = 0; z < 6; z++) lon_m[z] = values[3][z + 3];
 578              		.loc 1 143 57 discriminator 3 view .LVU165
 579 00e4 D15C     		ldrb	r1, [r2, r3]	@ zero_extendqisi2
 143:/home/dat/Documents/colir_one/rocket_code/Module/Src/nmea_parse.c ****         for (int z = 0; z < 6; z++) lon_m[z] = values[3][z + 3];
 580              		.loc 1 143 46 discriminator 3 view .LVU166
 581 00e6 03F18002 		add	r2, r3, #128
 582 00ea 6A44     		add	r2, sp, r2
 583 00ec 02F8781C 		strb	r1, [r2, #-120]
 143:/home/dat/Documents/colir_one/rocket_code/Module/Src/nmea_parse.c ****         for (int z = 0; z < 6; z++) lon_m[z] = values[3][z + 3];
ARM GAS  /tmp/ccz1Fumd.s 			page 15


 584              		.loc 1 143 33 is_stmt 1 discriminator 3 view .LVU167
 585 00f0 0133     		adds	r3, r3, #1
 586              	.LVL76:
 587              	.L30:
 143:/home/dat/Documents/colir_one/rocket_code/Module/Src/nmea_parse.c ****         for (int z = 0; z < 6; z++) lon_m[z] = values[3][z + 3];
 588              		.loc 1 143 27 discriminator 1 view .LVU168
 589 00f2 022B     		cmp	r3, #2
 590 00f4 F5DD     		ble	.L31
 591              	.LBE8:
 592              	.LBB9:
 144:/home/dat/Documents/colir_one/rocket_code/Module/Src/nmea_parse.c **** 
 593              		.loc 1 144 18 is_stmt 0 view .LVU169
 594 00f6 0023     		movs	r3, #0
 595              	.LVL77:
 596              	.L32:
 144:/home/dat/Documents/colir_one/rocket_code/Module/Src/nmea_parse.c **** 
 597              		.loc 1 144 27 is_stmt 1 discriminator 1 view .LVU170
 598 00f8 052B     		cmp	r3, #5
 599 00fa 09DC     		bgt	.L49
 144:/home/dat/Documents/colir_one/rocket_code/Module/Src/nmea_parse.c **** 
 600              		.loc 1 144 37 discriminator 3 view .LVU171
 144:/home/dat/Documents/colir_one/rocket_code/Module/Src/nmea_parse.c **** 
 601              		.loc 1 144 54 is_stmt 0 discriminator 3 view .LVU172
 602 00fc 0A9A     		ldr	r2, [sp, #40]
 144:/home/dat/Documents/colir_one/rocket_code/Module/Src/nmea_parse.c **** 
 603              		.loc 1 144 57 discriminator 3 view .LVU173
 604 00fe 1A44     		add	r2, r2, r3
 605 0100 D178     		ldrb	r1, [r2, #3]	@ zero_extendqisi2
 144:/home/dat/Documents/colir_one/rocket_code/Module/Src/nmea_parse.c **** 
 606              		.loc 1 144 46 discriminator 3 view .LVU174
 607 0102 03F18002 		add	r2, r3, #128
 608 0106 6A44     		add	r2, sp, r2
 609 0108 02F86C1C 		strb	r1, [r2, #-108]
 144:/home/dat/Documents/colir_one/rocket_code/Module/Src/nmea_parse.c **** 
 610              		.loc 1 144 33 is_stmt 1 discriminator 3 view .LVU175
 611 010c 0133     		adds	r3, r3, #1
 612              	.LVL78:
 144:/home/dat/Documents/colir_one/rocket_code/Module/Src/nmea_parse.c **** 
 613              		.loc 1 144 33 is_stmt 0 discriminator 3 view .LVU176
 614 010e F3E7     		b	.L32
 615              	.L49:
 144:/home/dat/Documents/colir_one/rocket_code/Module/Src/nmea_parse.c **** 
 616              		.loc 1 144 33 discriminator 3 view .LVU177
 617              	.LBE9:
 146:/home/dat/Documents/colir_one/rocket_code/Module/Src/nmea_parse.c ****         float lon_min_strtof = strtof(lon_m, NULL);
 618              		.loc 1 146 9 is_stmt 1 view .LVU178
 146:/home/dat/Documents/colir_one/rocket_code/Module/Src/nmea_parse.c ****         float lon_min_strtof = strtof(lon_m, NULL);
 619              		.loc 1 146 30 is_stmt 0 view .LVU179
 620 0110 0A22     		movs	r2, #10
 621 0112 0021     		movs	r1, #0
 622 0114 02A8     		add	r0, sp, #8
 623 0116 FFF7FEFF 		bl	strtol
 624              	.LVL79:
 146:/home/dat/Documents/colir_one/rocket_code/Module/Src/nmea_parse.c ****         float lon_min_strtof = strtof(lon_m, NULL);
 625              		.loc 1 146 30 view .LVU180
 626 011a 0446     		mov	r4, r0
 627              	.LVL80:
ARM GAS  /tmp/ccz1Fumd.s 			page 16


 147:/home/dat/Documents/colir_one/rocket_code/Module/Src/nmea_parse.c ****         double lon_deg = lon_deg_strtol + lon_min_strtof / 60;
 628              		.loc 1 147 9 is_stmt 1 view .LVU181
 147:/home/dat/Documents/colir_one/rocket_code/Module/Src/nmea_parse.c ****         double lon_deg = lon_deg_strtol + lon_min_strtof / 60;
 629              		.loc 1 147 32 is_stmt 0 view .LVU182
 630 011c 0021     		movs	r1, #0
 631 011e 05A8     		add	r0, sp, #20
 632              	.LVL81:
 147:/home/dat/Documents/colir_one/rocket_code/Module/Src/nmea_parse.c ****         double lon_deg = lon_deg_strtol + lon_min_strtof / 60;
 633              		.loc 1 147 32 view .LVU183
 634 0120 FFF7FEFF 		bl	strtof
 635              	.LVL82:
 636 0124 B0EE408A 		vmov.f32	s16, s0
 637              	.LVL83:
 148:/home/dat/Documents/colir_one/rocket_code/Module/Src/nmea_parse.c ****         //confirm that we aren't on null island
 638              		.loc 1 148 9 is_stmt 1 view .LVU184
 148:/home/dat/Documents/colir_one/rocket_code/Module/Src/nmea_parse.c ****         //confirm that we aren't on null island
 639              		.loc 1 148 58 is_stmt 0 view .LVU185
 640 0128 9FED237A 		vldr.32	s14, .L50+4
 641 012c C0EE077A 		vdiv.f32	s15, s0, s14
 148:/home/dat/Documents/colir_one/rocket_code/Module/Src/nmea_parse.c ****         //confirm that we aren't on null island
 642              		.loc 1 148 41 view .LVU186
 643 0130 07EE104A 		vmov	s14, r4	@ int
 644 0134 B8EEC77A 		vcvt.f32.s32	s14, s14
 148:/home/dat/Documents/colir_one/rocket_code/Module/Src/nmea_parse.c ****         //confirm that we aren't on null island
 645              		.loc 1 148 16 view .LVU187
 646 0138 77EE277A 		vadd.f32	s15, s14, s15
 647 013c 17EE900A 		vmov	r0, s15
 648 0140 FFF7FEFF 		bl	__aeabi_f2d
 649              	.LVL84:
 150:/home/dat/Documents/colir_one/rocket_code/Module/Src/nmea_parse.c ****             for(int i = 0; i<counter; i++) free(values[i]);
 650              		.loc 1 150 9 is_stmt 1 view .LVU188
 150:/home/dat/Documents/colir_one/rocket_code/Module/Src/nmea_parse.c ****             for(int i = 0; i<counter; i++) free(values[i]);
 651              		.loc 1 150 11 is_stmt 0 view .LVU189
 652 0144 E4B1     		cbz	r4, .L36
 150:/home/dat/Documents/colir_one/rocket_code/Module/Src/nmea_parse.c ****             for(int i = 0; i<counter; i++) free(values[i]);
 653              		.loc 1 150 32 discriminator 1 view .LVU190
 654 0146 B5EE408A 		vcmp.f32	s16, #0
 655 014a F1EE10FA 		vmrs	APSR_nzcv, FPSCR
 656 014e 1FD0     		beq	.L43
 150:/home/dat/Documents/colir_one/rocket_code/Module/Src/nmea_parse.c ****             for(int i = 0; i<counter; i++) free(values[i]);
 657              		.loc 1 150 55 discriminator 2 view .LVU191
 658 0150 06B3     		cbz	r6, .L44
 150:/home/dat/Documents/colir_one/rocket_code/Module/Src/nmea_parse.c ****             for(int i = 0; i<counter; i++) free(values[i]);
 659              		.loc 1 150 78 discriminator 3 view .LVU192
 660 0152 F5EE408A 		vcmp.f32	s17, #0
 661 0156 F1EE10FA 		vmrs	APSR_nzcv, FPSCR
 662 015a 1DD0     		beq	.L45
 155:/home/dat/Documents/colir_one/rocket_code/Module/Src/nmea_parse.c ****             gps_data->longitude = lon_deg;
 663              		.loc 1 155 13 is_stmt 1 view .LVU193
 155:/home/dat/Documents/colir_one/rocket_code/Module/Src/nmea_parse.c ****             gps_data->longitude = lon_deg;
 664              		.loc 1 155 32 is_stmt 0 view .LVU194
 665 015c C7E900AB 		strd	r10, [r7]
 156:/home/dat/Documents/colir_one/rocket_code/Module/Src/nmea_parse.c ****             gps_data->latSide = latSide;
 666              		.loc 1 156 13 is_stmt 1 view .LVU195
 156:/home/dat/Documents/colir_one/rocket_code/Module/Src/nmea_parse.c ****             gps_data->latSide = latSide;
 667              		.loc 1 156 33 is_stmt 0 view .LVU196
 668 0160 C7E90401 		strd	r0, [r7, #16]
ARM GAS  /tmp/ccz1Fumd.s 			page 17


 157:/home/dat/Documents/colir_one/rocket_code/Module/Src/nmea_parse.c ****             gps_data->lonSide = lonSide;
 669              		.loc 1 157 13 is_stmt 1 view .LVU197
 157:/home/dat/Documents/colir_one/rocket_code/Module/Src/nmea_parse.c ****             gps_data->lonSide = lonSide;
 670              		.loc 1 157 31 is_stmt 0 view .LVU198
 671 0164 87F80880 		strb	r8, [r7, #8]
 158:/home/dat/Documents/colir_one/rocket_code/Module/Src/nmea_parse.c ****             for(int i = 0; i<counter; i++) free(values[i]);
 672              		.loc 1 158 13 is_stmt 1 view .LVU199
 158:/home/dat/Documents/colir_one/rocket_code/Module/Src/nmea_parse.c ****             for(int i = 0; i<counter; i++) free(values[i]);
 673              		.loc 1 158 31 is_stmt 0 view .LVU200
 674 0168 87F81890 		strb	r9, [r7, #24]
 159:/home/dat/Documents/colir_one/rocket_code/Module/Src/nmea_parse.c ****             return 1;
 675              		.loc 1 159 13 is_stmt 1 view .LVU201
 676              	.LBB10:
 159:/home/dat/Documents/colir_one/rocket_code/Module/Src/nmea_parse.c ****             return 1;
 677              		.loc 1 159 17 view .LVU202
 678              	.LVL85:
 159:/home/dat/Documents/colir_one/rocket_code/Module/Src/nmea_parse.c ****             return 1;
 679              		.loc 1 159 21 is_stmt 0 view .LVU203
 680 016c 0024     		movs	r4, #0
 681              	.LVL86:
 159:/home/dat/Documents/colir_one/rocket_code/Module/Src/nmea_parse.c ****             return 1;
 682              		.loc 1 159 13 view .LVU204
 683 016e 1DE0     		b	.L39
 684              	.LVL87:
 685              	.L37:
 159:/home/dat/Documents/colir_one/rocket_code/Module/Src/nmea_parse.c ****             return 1;
 686              		.loc 1 159 13 view .LVU205
 687              	.LBE10:
 688              	.LBB11:
 151:/home/dat/Documents/colir_one/rocket_code/Module/Src/nmea_parse.c ****             return 0;
 689              		.loc 1 151 44 is_stmt 1 discriminator 3 view .LVU206
 151:/home/dat/Documents/colir_one/rocket_code/Module/Src/nmea_parse.c ****             return 0;
 690              		.loc 1 151 55 is_stmt 0 discriminator 3 view .LVU207
 691 0170 20AB     		add	r3, sp, #128
 692 0172 03EB8403 		add	r3, r3, r4, lsl #2
 151:/home/dat/Documents/colir_one/rocket_code/Module/Src/nmea_parse.c ****             return 0;
 693              		.loc 1 151 44 discriminator 3 view .LVU208
 694 0176 53F8640C 		ldr	r0, [r3, #-100]
 695 017a FFF7FEFF 		bl	free
 696              	.LVL88:
 151:/home/dat/Documents/colir_one/rocket_code/Module/Src/nmea_parse.c ****             return 0;
 697              		.loc 1 151 40 is_stmt 1 discriminator 3 view .LVU209
 698 017e 0134     		adds	r4, r4, #1
 699              	.LVL89:
 700              	.L36:
 151:/home/dat/Documents/colir_one/rocket_code/Module/Src/nmea_parse.c ****             return 0;
 701              		.loc 1 151 29 discriminator 2 view .LVU210
 702 0180 A542     		cmp	r5, r4
 703 0182 F5DC     		bgt	.L37
 704              	.LBE11:
 152:/home/dat/Documents/colir_one/rocket_code/Module/Src/nmea_parse.c ****         }
 705              		.loc 1 152 20 is_stmt 0 view .LVU211
 706 0184 0020     		movs	r0, #0
 707              	.LVL90:
 708              	.L21:
 152:/home/dat/Documents/colir_one/rocket_code/Module/Src/nmea_parse.c ****         }
 709              		.loc 1 152 20 view .LVU212
ARM GAS  /tmp/ccz1Fumd.s 			page 18


 710              	.LBE13:
 164:/home/dat/Documents/colir_one/rocket_code/Module/Src/nmea_parse.c **** }
 711              		.loc 1 164 1 view .LVU213
 712 0186 21B0     		add	sp, sp, #132
 713              	.LCFI10:
 714              		.cfi_remember_state
 715              		.cfi_def_cfa_offset 44
 716              		@ sp needed
 717 0188 BDEC028B 		vldm	sp!, {d8}
 718              	.LCFI11:
 719              		.cfi_restore 80
 720              		.cfi_restore 81
 721              		.cfi_def_cfa_offset 36
 722 018c BDE8F08F 		pop	{r4, r5, r6, r7, r8, r9, r10, fp, pc}
 723              	.LVL91:
 724              	.L43:
 725              	.LCFI12:
 726              		.cfi_restore_state
 727              	.LBB14:
 728              		.loc 1 164 1 view .LVU214
 729 0190 0024     		movs	r4, #0
 730              	.LVL92:
 731              		.loc 1 164 1 view .LVU215
 732 0192 F5E7     		b	.L36
 733              	.LVL93:
 734              	.L44:
 735              		.loc 1 164 1 view .LVU216
 736 0194 3446     		mov	r4, r6
 737              	.LVL94:
 738              		.loc 1 164 1 view .LVU217
 739 0196 F3E7     		b	.L36
 740              	.LVL95:
 741              	.L45:
 742              		.loc 1 164 1 view .LVU218
 743 0198 0024     		movs	r4, #0
 744              	.LVL96:
 745              		.loc 1 164 1 view .LVU219
 746 019a F1E7     		b	.L36
 747              	.LVL97:
 748              	.L40:
 749              	.LBB12:
 159:/home/dat/Documents/colir_one/rocket_code/Module/Src/nmea_parse.c ****             return 1;
 750              		.loc 1 159 44 is_stmt 1 discriminator 3 view .LVU220
 159:/home/dat/Documents/colir_one/rocket_code/Module/Src/nmea_parse.c ****             return 1;
 751              		.loc 1 159 55 is_stmt 0 discriminator 3 view .LVU221
 752 019c 20AB     		add	r3, sp, #128
 753 019e 03EB8403 		add	r3, r3, r4, lsl #2
 159:/home/dat/Documents/colir_one/rocket_code/Module/Src/nmea_parse.c ****             return 1;
 754              		.loc 1 159 44 discriminator 3 view .LVU222
 755 01a2 53F8640C 		ldr	r0, [r3, #-100]
 756 01a6 FFF7FEFF 		bl	free
 757              	.LVL98:
 159:/home/dat/Documents/colir_one/rocket_code/Module/Src/nmea_parse.c ****             return 1;
 758              		.loc 1 159 40 is_stmt 1 discriminator 3 view .LVU223
 759 01aa 0134     		adds	r4, r4, #1
 760              	.LVL99:
 761              	.L39:
ARM GAS  /tmp/ccz1Fumd.s 			page 19


 159:/home/dat/Documents/colir_one/rocket_code/Module/Src/nmea_parse.c ****             return 1;
 762              		.loc 1 159 29 discriminator 2 view .LVU224
 763 01ac A542     		cmp	r5, r4
 764 01ae F5DC     		bgt	.L40
 765              	.LBE12:
 160:/home/dat/Documents/colir_one/rocket_code/Module/Src/nmea_parse.c ****         }
 766              		.loc 1 160 20 is_stmt 0 view .LVU225
 767 01b0 0120     		movs	r0, #1
 768 01b2 E8E7     		b	.L21
 769              	.L51:
 770              		.align	2
 771              	.L50:
 772 01b4 00000000 		.word	.LC0
 773 01b8 00007042 		.word	1114636288
 774              	.LBE14:
 775              		.cfi_endproc
 776              	.LFE137:
 778              		.section	.text.nmea_GPGGA,"ax",%progbits
 779              		.align	1
 780              		.syntax unified
 781              		.thumb
 782              		.thumb_func
 784              	nmea_GPGGA:
 785              	.LVL100:
 786              	.LFB135:
  33:/home/dat/Documents/colir_one/rocket_code/Module/Src/nmea_parse.c ****     char *values[25];
 787              		.loc 1 33 57 is_stmt 1 view -0
 788              		.cfi_startproc
 789              		@ args = 0, pretend = 0, frame = 128
 790              		@ frame_needed = 0, uses_anonymous_args = 0
  33:/home/dat/Documents/colir_one/rocket_code/Module/Src/nmea_parse.c ****     char *values[25];
 791              		.loc 1 33 57 is_stmt 0 view .LVU227
 792 0000 2DE9F043 		push	{r4, r5, r6, r7, r8, r9, lr}
 793              	.LCFI13:
 794              		.cfi_def_cfa_offset 28
 795              		.cfi_offset 4, -28
 796              		.cfi_offset 5, -24
 797              		.cfi_offset 6, -20
 798              		.cfi_offset 7, -16
 799              		.cfi_offset 8, -12
 800              		.cfi_offset 9, -8
 801              		.cfi_offset 14, -4
 802 0004 2DED028B 		vpush.64	{d8}
 803              	.LCFI14:
 804              		.cfi_def_cfa_offset 36
 805              		.cfi_offset 80, -36
 806              		.cfi_offset 81, -32
 807 0008 A1B0     		sub	sp, sp, #132
 808              	.LCFI15:
 809              		.cfi_def_cfa_offset 168
 810 000a 0746     		mov	r7, r0
 811 000c 0C46     		mov	r4, r1
  34:/home/dat/Documents/colir_one/rocket_code/Module/Src/nmea_parse.c ****     int counter = 0;
 812              		.loc 1 34 5 is_stmt 1 view .LVU228
  35:/home/dat/Documents/colir_one/rocket_code/Module/Src/nmea_parse.c ****     memset(values, 0, sizeof(values));
 813              		.loc 1 35 5 view .LVU229
 814              	.LVL101:
ARM GAS  /tmp/ccz1Fumd.s 			page 20


  36:/home/dat/Documents/colir_one/rocket_code/Module/Src/nmea_parse.c ****     char *marker = strtok(inputString, ",");
 815              		.loc 1 36 5 view .LVU230
 816 000e 6422     		movs	r2, #100
 817 0010 0021     		movs	r1, #0
 818              	.LVL102:
  36:/home/dat/Documents/colir_one/rocket_code/Module/Src/nmea_parse.c ****     char *marker = strtok(inputString, ",");
 819              		.loc 1 36 5 is_stmt 0 view .LVU231
 820 0012 07A8     		add	r0, sp, #28
 821              	.LVL103:
  36:/home/dat/Documents/colir_one/rocket_code/Module/Src/nmea_parse.c ****     char *marker = strtok(inputString, ",");
 822              		.loc 1 36 5 view .LVU232
 823 0014 FFF7FEFF 		bl	memset
 824              	.LVL104:
  37:/home/dat/Documents/colir_one/rocket_code/Module/Src/nmea_parse.c ****     while (marker != NULL) {
 825              		.loc 1 37 5 is_stmt 1 view .LVU233
  37:/home/dat/Documents/colir_one/rocket_code/Module/Src/nmea_parse.c ****     while (marker != NULL) {
 826              		.loc 1 37 20 is_stmt 0 view .LVU234
 827 0018 7E49     		ldr	r1, .L88
 828 001a 2046     		mov	r0, r4
 829 001c FFF7FEFF 		bl	strtok
 830              	.LVL105:
 831 0020 0446     		mov	r4, r0
 832              	.LVL106:
  38:/home/dat/Documents/colir_one/rocket_code/Module/Src/nmea_parse.c ****         values[counter++] = malloc(strlen(marker) + 1); //free later!!!!!!
 833              		.loc 1 38 5 is_stmt 1 view .LVU235
  35:/home/dat/Documents/colir_one/rocket_code/Module/Src/nmea_parse.c ****     memset(values, 0, sizeof(values));
 834              		.loc 1 35 9 is_stmt 0 view .LVU236
 835 0022 0025     		movs	r5, #0
  38:/home/dat/Documents/colir_one/rocket_code/Module/Src/nmea_parse.c ****         values[counter++] = malloc(strlen(marker) + 1); //free later!!!!!!
 836              		.loc 1 38 11 view .LVU237
 837 0024 14E0     		b	.L53
 838              	.LVL107:
 839              	.L54:
  39:/home/dat/Documents/colir_one/rocket_code/Module/Src/nmea_parse.c ****         strcpy(values[counter - 1], marker);
 840              		.loc 1 39 9 is_stmt 1 view .LVU238
  39:/home/dat/Documents/colir_one/rocket_code/Module/Src/nmea_parse.c ****         strcpy(values[counter - 1], marker);
 841              		.loc 1 39 36 is_stmt 0 view .LVU239
 842 0026 2046     		mov	r0, r4
 843              	.LVL108:
  39:/home/dat/Documents/colir_one/rocket_code/Module/Src/nmea_parse.c ****         strcpy(values[counter - 1], marker);
 844              		.loc 1 39 36 view .LVU240
 845 0028 FFF7FEFF 		bl	strlen
 846              	.LVL109:
  39:/home/dat/Documents/colir_one/rocket_code/Module/Src/nmea_parse.c ****         strcpy(values[counter - 1], marker);
 847              		.loc 1 39 23 discriminator 1 view .LVU241
 848 002c 6E1C     		adds	r6, r5, #1
 849              	.LVL110:
  39:/home/dat/Documents/colir_one/rocket_code/Module/Src/nmea_parse.c ****         strcpy(values[counter - 1], marker);
 850              		.loc 1 39 29 discriminator 1 view .LVU242
 851 002e 0130     		adds	r0, r0, #1
 852 0030 FFF7FEFF 		bl	malloc
 853              	.LVL111:
  39:/home/dat/Documents/colir_one/rocket_code/Module/Src/nmea_parse.c ****         strcpy(values[counter - 1], marker);
 854              		.loc 1 39 27 discriminator 2 view .LVU243
 855 0034 20AB     		add	r3, sp, #128
 856 0036 03EB8505 		add	r5, r3, r5, lsl #2
 857 003a 45F8640C 		str	r0, [r5, #-100]
ARM GAS  /tmp/ccz1Fumd.s 			page 21


  40:/home/dat/Documents/colir_one/rocket_code/Module/Src/nmea_parse.c ****         marker = strtok(NULL, ",");
 858              		.loc 1 40 9 is_stmt 1 view .LVU244
 859 003e 2146     		mov	r1, r4
 860 0040 FFF7FEFF 		bl	strcpy
 861              	.LVL112:
  41:/home/dat/Documents/colir_one/rocket_code/Module/Src/nmea_parse.c ****     }
 862              		.loc 1 41 9 view .LVU245
  41:/home/dat/Documents/colir_one/rocket_code/Module/Src/nmea_parse.c ****     }
 863              		.loc 1 41 18 is_stmt 0 view .LVU246
 864 0044 7349     		ldr	r1, .L88
 865 0046 0020     		movs	r0, #0
 866 0048 FFF7FEFF 		bl	strtok
 867              	.LVL113:
 868 004c 0446     		mov	r4, r0
 869              	.LVL114:
  39:/home/dat/Documents/colir_one/rocket_code/Module/Src/nmea_parse.c ****         strcpy(values[counter - 1], marker);
 870              		.loc 1 39 23 discriminator 1 view .LVU247
 871 004e 3546     		mov	r5, r6
 872              	.LVL115:
 873              	.L53:
  38:/home/dat/Documents/colir_one/rocket_code/Module/Src/nmea_parse.c ****         values[counter++] = malloc(strlen(marker) + 1); //free later!!!!!!
 874              		.loc 1 38 19 is_stmt 1 view .LVU248
 875 0050 002C     		cmp	r4, #0
 876 0052 E8D1     		bne	.L54
  43:/home/dat/Documents/colir_one/rocket_code/Module/Src/nmea_parse.c ****     char latSide = values[3][0];
 877              		.loc 1 43 5 view .LVU249
  43:/home/dat/Documents/colir_one/rocket_code/Module/Src/nmea_parse.c ****     char latSide = values[3][0];
 878              		.loc 1 43 26 is_stmt 0 view .LVU250
 879 0054 0C9B     		ldr	r3, [sp, #48]
  43:/home/dat/Documents/colir_one/rocket_code/Module/Src/nmea_parse.c ****     char latSide = values[3][0];
 880              		.loc 1 43 10 view .LVU251
 881 0056 1E78     		ldrb	r6, [r3]	@ zero_extendqisi2
 882              	.LVL116:
  44:/home/dat/Documents/colir_one/rocket_code/Module/Src/nmea_parse.c ****     strcpy(gps_data->lastMeasure, values[1]);
 883              		.loc 1 44 5 is_stmt 1 view .LVU252
  44:/home/dat/Documents/colir_one/rocket_code/Module/Src/nmea_parse.c ****     strcpy(gps_data->lastMeasure, values[1]);
 884              		.loc 1 44 26 is_stmt 0 view .LVU253
 885 0058 0A9B     		ldr	r3, [sp, #40]
  44:/home/dat/Documents/colir_one/rocket_code/Module/Src/nmea_parse.c ****     strcpy(gps_data->lastMeasure, values[1]);
 886              		.loc 1 44 10 view .LVU254
 887 005a 1C78     		ldrb	r4, [r3]	@ zero_extendqisi2
 888              	.LVL117:
  45:/home/dat/Documents/colir_one/rocket_code/Module/Src/nmea_parse.c ****     if(latSide == 'S' || latSide == 'N'){
 889              		.loc 1 45 5 is_stmt 1 view .LVU255
 890 005c 0899     		ldr	r1, [sp, #32]
 891 005e 07F12C00 		add	r0, r7, #44
 892              	.LVL118:
  45:/home/dat/Documents/colir_one/rocket_code/Module/Src/nmea_parse.c ****     if(latSide == 'S' || latSide == 'N'){
 893              		.loc 1 45 5 is_stmt 0 view .LVU256
 894 0062 FFF7FEFF 		bl	strcpy
 895              	.LVL119:
  46:/home/dat/Documents/colir_one/rocket_code/Module/Src/nmea_parse.c ****         char lat_d[2];
 896              		.loc 1 46 5 is_stmt 1 view .LVU257
  46:/home/dat/Documents/colir_one/rocket_code/Module/Src/nmea_parse.c ****         char lat_d[2];
 897              		.loc 1 46 7 is_stmt 0 view .LVU258
 898 0066 532C     		cmp	r4, #83
 899 0068 0FD0     		beq	.L75
ARM GAS  /tmp/ccz1Fumd.s 			page 22


  46:/home/dat/Documents/colir_one/rocket_code/Module/Src/nmea_parse.c ****         char lat_d[2];
 900              		.loc 1 46 23 discriminator 1 view .LVU259
 901 006a 4E2C     		cmp	r4, #78
 902 006c 0FD0     		beq	.L86
 903              	.L56:
 904              	.LBB15:
 905 006e 0024     		movs	r4, #0
 906              	.LVL120:
  46:/home/dat/Documents/colir_one/rocket_code/Module/Src/nmea_parse.c ****         char lat_d[2];
 907              		.loc 1 46 23 discriminator 1 view .LVU260
 908 0070 C8E0     		b	.L70
 909              	.LVL121:
 910              	.L58:
 911              	.LBB16:
  49:/home/dat/Documents/colir_one/rocket_code/Module/Src/nmea_parse.c ****         for (int z = 0; z < 6; z++) lat_m[z] = values[2][z + 2];
 912              		.loc 1 49 37 is_stmt 1 discriminator 3 view .LVU261
  49:/home/dat/Documents/colir_one/rocket_code/Module/Src/nmea_parse.c ****         for (int z = 0; z < 6; z++) lat_m[z] = values[2][z + 2];
 913              		.loc 1 49 54 is_stmt 0 discriminator 3 view .LVU262
 914 0072 099A     		ldr	r2, [sp, #36]
  49:/home/dat/Documents/colir_one/rocket_code/Module/Src/nmea_parse.c ****         for (int z = 0; z < 6; z++) lat_m[z] = values[2][z + 2];
 915              		.loc 1 49 57 discriminator 3 view .LVU263
 916 0074 D15C     		ldrb	r1, [r2, r3]	@ zero_extendqisi2
  49:/home/dat/Documents/colir_one/rocket_code/Module/Src/nmea_parse.c ****         for (int z = 0; z < 6; z++) lat_m[z] = values[2][z + 2];
 917              		.loc 1 49 46 discriminator 3 view .LVU264
 918 0076 03F18002 		add	r2, r3, #128
 919 007a 6A44     		add	r2, sp, r2
 920 007c 02F87C1C 		strb	r1, [r2, #-124]
  49:/home/dat/Documents/colir_one/rocket_code/Module/Src/nmea_parse.c ****         for (int z = 0; z < 6; z++) lat_m[z] = values[2][z + 2];
 921              		.loc 1 49 33 is_stmt 1 discriminator 3 view .LVU265
 922 0080 0133     		adds	r3, r3, #1
 923              	.LVL122:
 924              	.L57:
  49:/home/dat/Documents/colir_one/rocket_code/Module/Src/nmea_parse.c ****         for (int z = 0; z < 6; z++) lat_m[z] = values[2][z + 2];
 925              		.loc 1 49 27 discriminator 1 view .LVU266
 926 0082 012B     		cmp	r3, #1
 927 0084 F5DD     		ble	.L58
 928              	.LBE16:
 929              	.LBB17:
  50:/home/dat/Documents/colir_one/rocket_code/Module/Src/nmea_parse.c **** 
 930              		.loc 1 50 18 is_stmt 0 view .LVU267
 931 0086 0023     		movs	r3, #0
 932              	.LVL123:
  50:/home/dat/Documents/colir_one/rocket_code/Module/Src/nmea_parse.c **** 
 933              		.loc 1 50 18 view .LVU268
 934 0088 0CE0     		b	.L59
 935              	.LVL124:
 936              	.L75:
  50:/home/dat/Documents/colir_one/rocket_code/Module/Src/nmea_parse.c **** 
 937              		.loc 1 50 18 view .LVU269
 938              	.LBE17:
 939              	.LBE15:
 940 008a 0023     		movs	r3, #0
 941 008c F9E7     		b	.L57
 942              	.L86:
 943 008e 0023     		movs	r3, #0
 944 0090 F7E7     		b	.L57
 945              	.LVL125:
ARM GAS  /tmp/ccz1Fumd.s 			page 23


 946              	.L60:
 947              	.LBB23:
 948              	.LBB18:
  50:/home/dat/Documents/colir_one/rocket_code/Module/Src/nmea_parse.c **** 
 949              		.loc 1 50 37 is_stmt 1 discriminator 3 view .LVU270
  50:/home/dat/Documents/colir_one/rocket_code/Module/Src/nmea_parse.c **** 
 950              		.loc 1 50 54 is_stmt 0 discriminator 3 view .LVU271
 951 0092 099A     		ldr	r2, [sp, #36]
  50:/home/dat/Documents/colir_one/rocket_code/Module/Src/nmea_parse.c **** 
 952              		.loc 1 50 57 discriminator 3 view .LVU272
 953 0094 1A44     		add	r2, r2, r3
 954 0096 9178     		ldrb	r1, [r2, #2]	@ zero_extendqisi2
  50:/home/dat/Documents/colir_one/rocket_code/Module/Src/nmea_parse.c **** 
 955              		.loc 1 50 46 discriminator 3 view .LVU273
 956 0098 03F18002 		add	r2, r3, #128
 957 009c 6A44     		add	r2, sp, r2
 958 009e 02F8741C 		strb	r1, [r2, #-116]
  50:/home/dat/Documents/colir_one/rocket_code/Module/Src/nmea_parse.c **** 
 959              		.loc 1 50 33 is_stmt 1 discriminator 3 view .LVU274
 960 00a2 0133     		adds	r3, r3, #1
 961              	.LVL126:
 962              	.L59:
  50:/home/dat/Documents/colir_one/rocket_code/Module/Src/nmea_parse.c **** 
 963              		.loc 1 50 27 discriminator 1 view .LVU275
 964 00a4 052B     		cmp	r3, #5
 965 00a6 F4DD     		ble	.L60
 966              	.LBE18:
  52:/home/dat/Documents/colir_one/rocket_code/Module/Src/nmea_parse.c ****         float lat_min_strtof = strtof(lat_m, NULL);
 967              		.loc 1 52 9 view .LVU276
  52:/home/dat/Documents/colir_one/rocket_code/Module/Src/nmea_parse.c ****         float lat_min_strtof = strtof(lat_m, NULL);
 968              		.loc 1 52 30 is_stmt 0 view .LVU277
 969 00a8 0A22     		movs	r2, #10
 970 00aa 0021     		movs	r1, #0
 971 00ac 01A8     		add	r0, sp, #4
 972 00ae FFF7FEFF 		bl	strtol
 973              	.LVL127:
  52:/home/dat/Documents/colir_one/rocket_code/Module/Src/nmea_parse.c ****         float lat_min_strtof = strtof(lat_m, NULL);
 974              		.loc 1 52 30 view .LVU278
 975 00b2 08EE100A 		vmov	s16, r0	@ int
 976              	.LVL128:
  53:/home/dat/Documents/colir_one/rocket_code/Module/Src/nmea_parse.c ****         double lat_deg = lat_deg_strtol + lat_min_strtof / 60;
 977              		.loc 1 53 9 is_stmt 1 view .LVU279
  53:/home/dat/Documents/colir_one/rocket_code/Module/Src/nmea_parse.c ****         double lat_deg = lat_deg_strtol + lat_min_strtof / 60;
 978              		.loc 1 53 32 is_stmt 0 view .LVU280
 979 00b6 0021     		movs	r1, #0
 980 00b8 03A8     		add	r0, sp, #12
 981              	.LVL129:
  53:/home/dat/Documents/colir_one/rocket_code/Module/Src/nmea_parse.c ****         double lat_deg = lat_deg_strtol + lat_min_strtof / 60;
 982              		.loc 1 53 32 view .LVU281
 983 00ba FFF7FEFF 		bl	strtof
 984              	.LVL130:
  54:/home/dat/Documents/colir_one/rocket_code/Module/Src/nmea_parse.c **** 
 985              		.loc 1 54 9 is_stmt 1 view .LVU282
  54:/home/dat/Documents/colir_one/rocket_code/Module/Src/nmea_parse.c **** 
 986              		.loc 1 54 58 is_stmt 0 view .LVU283
 987 00be 9FED567A 		vldr.32	s14, .L88+4
 988 00c2 C0EE077A 		vdiv.f32	s15, s0, s14
ARM GAS  /tmp/ccz1Fumd.s 			page 24


  54:/home/dat/Documents/colir_one/rocket_code/Module/Src/nmea_parse.c **** 
 989              		.loc 1 54 41 view .LVU284
 990 00c6 B8EEC88A 		vcvt.f32.s32	s16, s16
 991              	.LVL131:
  54:/home/dat/Documents/colir_one/rocket_code/Module/Src/nmea_parse.c **** 
 992              		.loc 1 54 41 view .LVU285
 993 00ca 38EE278A 		vadd.f32	s16, s16, s15
  54:/home/dat/Documents/colir_one/rocket_code/Module/Src/nmea_parse.c **** 
 994              		.loc 1 54 16 view .LVU286
 995 00ce 18EE100A 		vmov	r0, s16
 996 00d2 FFF7FEFF 		bl	__aeabi_f2d
 997              	.LVL132:
  54:/home/dat/Documents/colir_one/rocket_code/Module/Src/nmea_parse.c **** 
 998              		.loc 1 54 16 view .LVU287
 999 00d6 8046     		mov	r8, r0
 1000 00d8 8946     		mov	r9, r1
 1001              	.LVL133:
  56:/home/dat/Documents/colir_one/rocket_code/Module/Src/nmea_parse.c ****         char lon_m[7];
 1002              		.loc 1 56 9 is_stmt 1 view .LVU288
  57:/home/dat/Documents/colir_one/rocket_code/Module/Src/nmea_parse.c **** 
 1003              		.loc 1 57 9 view .LVU289
  59:/home/dat/Documents/colir_one/rocket_code/Module/Src/nmea_parse.c ****         for (int z = 0; z < 6; z++) lon_m[z] = values[4][z + 3];
 1004              		.loc 1 59 9 view .LVU290
 1005              	.LBB19:
  59:/home/dat/Documents/colir_one/rocket_code/Module/Src/nmea_parse.c ****         for (int z = 0; z < 6; z++) lon_m[z] = values[4][z + 3];
 1006              		.loc 1 59 14 view .LVU291
  59:/home/dat/Documents/colir_one/rocket_code/Module/Src/nmea_parse.c ****         for (int z = 0; z < 6; z++) lon_m[z] = values[4][z + 3];
 1007              		.loc 1 59 18 is_stmt 0 view .LVU292
 1008 00da 0023     		movs	r3, #0
  59:/home/dat/Documents/colir_one/rocket_code/Module/Src/nmea_parse.c ****         for (int z = 0; z < 6; z++) lon_m[z] = values[4][z + 3];
 1009              		.loc 1 59 9 view .LVU293
 1010 00dc 07E0     		b	.L61
 1011              	.LVL134:
 1012              	.L62:
  59:/home/dat/Documents/colir_one/rocket_code/Module/Src/nmea_parse.c ****         for (int z = 0; z < 6; z++) lon_m[z] = values[4][z + 3];
 1013              		.loc 1 59 37 is_stmt 1 discriminator 3 view .LVU294
  59:/home/dat/Documents/colir_one/rocket_code/Module/Src/nmea_parse.c ****         for (int z = 0; z < 6; z++) lon_m[z] = values[4][z + 3];
 1014              		.loc 1 59 54 is_stmt 0 discriminator 3 view .LVU295
 1015 00de 0B9A     		ldr	r2, [sp, #44]
  59:/home/dat/Documents/colir_one/rocket_code/Module/Src/nmea_parse.c ****         for (int z = 0; z < 6; z++) lon_m[z] = values[4][z + 3];
 1016              		.loc 1 59 57 discriminator 3 view .LVU296
 1017 00e0 D15C     		ldrb	r1, [r2, r3]	@ zero_extendqisi2
  59:/home/dat/Documents/colir_one/rocket_code/Module/Src/nmea_parse.c ****         for (int z = 0; z < 6; z++) lon_m[z] = values[4][z + 3];
 1018              		.loc 1 59 46 discriminator 3 view .LVU297
 1019 00e2 03F18002 		add	r2, r3, #128
 1020 00e6 6A44     		add	r2, sp, r2
 1021 00e8 02F8781C 		strb	r1, [r2, #-120]
  59:/home/dat/Documents/colir_one/rocket_code/Module/Src/nmea_parse.c ****         for (int z = 0; z < 6; z++) lon_m[z] = values[4][z + 3];
 1022              		.loc 1 59 33 is_stmt 1 discriminator 3 view .LVU298
 1023 00ec 0133     		adds	r3, r3, #1
 1024              	.LVL135:
 1025              	.L61:
  59:/home/dat/Documents/colir_one/rocket_code/Module/Src/nmea_parse.c ****         for (int z = 0; z < 6; z++) lon_m[z] = values[4][z + 3];
 1026              		.loc 1 59 27 discriminator 1 view .LVU299
 1027 00ee 022B     		cmp	r3, #2
 1028 00f0 F5DD     		ble	.L62
 1029              	.LBE19:
ARM GAS  /tmp/ccz1Fumd.s 			page 25


 1030              	.LBB20:
  60:/home/dat/Documents/colir_one/rocket_code/Module/Src/nmea_parse.c **** 
 1031              		.loc 1 60 18 is_stmt 0 view .LVU300
 1032 00f2 0023     		movs	r3, #0
 1033              	.LVL136:
  60:/home/dat/Documents/colir_one/rocket_code/Module/Src/nmea_parse.c **** 
 1034              		.loc 1 60 18 view .LVU301
 1035 00f4 08E0     		b	.L63
 1036              	.LVL137:
 1037              	.L64:
  60:/home/dat/Documents/colir_one/rocket_code/Module/Src/nmea_parse.c **** 
 1038              		.loc 1 60 37 is_stmt 1 discriminator 3 view .LVU302
  60:/home/dat/Documents/colir_one/rocket_code/Module/Src/nmea_parse.c **** 
 1039              		.loc 1 60 54 is_stmt 0 discriminator 3 view .LVU303
 1040 00f6 0B9A     		ldr	r2, [sp, #44]
  60:/home/dat/Documents/colir_one/rocket_code/Module/Src/nmea_parse.c **** 
 1041              		.loc 1 60 57 discriminator 3 view .LVU304
 1042 00f8 1A44     		add	r2, r2, r3
 1043 00fa D178     		ldrb	r1, [r2, #3]	@ zero_extendqisi2
  60:/home/dat/Documents/colir_one/rocket_code/Module/Src/nmea_parse.c **** 
 1044              		.loc 1 60 46 discriminator 3 view .LVU305
 1045 00fc 03F18002 		add	r2, r3, #128
 1046 0100 6A44     		add	r2, sp, r2
 1047 0102 02F86C1C 		strb	r1, [r2, #-108]
  60:/home/dat/Documents/colir_one/rocket_code/Module/Src/nmea_parse.c **** 
 1048              		.loc 1 60 33 is_stmt 1 discriminator 3 view .LVU306
 1049 0106 0133     		adds	r3, r3, #1
 1050              	.LVL138:
 1051              	.L63:
  60:/home/dat/Documents/colir_one/rocket_code/Module/Src/nmea_parse.c **** 
 1052              		.loc 1 60 27 discriminator 1 view .LVU307
 1053 0108 052B     		cmp	r3, #5
 1054 010a F4DD     		ble	.L64
 1055              	.LBE20:
  62:/home/dat/Documents/colir_one/rocket_code/Module/Src/nmea_parse.c ****         float lon_min_strtof = strtof(lon_m, NULL);
 1056              		.loc 1 62 9 view .LVU308
  62:/home/dat/Documents/colir_one/rocket_code/Module/Src/nmea_parse.c ****         float lon_min_strtof = strtof(lon_m, NULL);
 1057              		.loc 1 62 30 is_stmt 0 view .LVU309
 1058 010c 0A22     		movs	r2, #10
 1059 010e 0021     		movs	r1, #0
 1060 0110 02A8     		add	r0, sp, #8
 1061 0112 FFF7FEFF 		bl	strtol
 1062              	.LVL139:
  62:/home/dat/Documents/colir_one/rocket_code/Module/Src/nmea_parse.c ****         float lon_min_strtof = strtof(lon_m, NULL);
 1063              		.loc 1 62 30 view .LVU310
 1064 0116 08EE900A 		vmov	s17, r0	@ int
 1065              	.LVL140:
  63:/home/dat/Documents/colir_one/rocket_code/Module/Src/nmea_parse.c ****         double lon_deg = lon_deg_strtol + lon_min_strtof / 60;
 1066              		.loc 1 63 9 is_stmt 1 view .LVU311
  63:/home/dat/Documents/colir_one/rocket_code/Module/Src/nmea_parse.c ****         double lon_deg = lon_deg_strtol + lon_min_strtof / 60;
 1067              		.loc 1 63 32 is_stmt 0 view .LVU312
 1068 011a 0021     		movs	r1, #0
 1069 011c 05A8     		add	r0, sp, #20
 1070              	.LVL141:
  63:/home/dat/Documents/colir_one/rocket_code/Module/Src/nmea_parse.c ****         double lon_deg = lon_deg_strtol + lon_min_strtof / 60;
 1071              		.loc 1 63 32 view .LVU313
 1072 011e FFF7FEFF 		bl	strtof
ARM GAS  /tmp/ccz1Fumd.s 			page 26


 1073              	.LVL142:
  64:/home/dat/Documents/colir_one/rocket_code/Module/Src/nmea_parse.c **** 
 1074              		.loc 1 64 9 is_stmt 1 view .LVU314
  64:/home/dat/Documents/colir_one/rocket_code/Module/Src/nmea_parse.c **** 
 1075              		.loc 1 64 58 is_stmt 0 view .LVU315
 1076 0122 9FED3D7A 		vldr.32	s14, .L88+4
 1077 0126 C0EE077A 		vdiv.f32	s15, s0, s14
  64:/home/dat/Documents/colir_one/rocket_code/Module/Src/nmea_parse.c **** 
 1078              		.loc 1 64 41 view .LVU316
 1079 012a F8EEE88A 		vcvt.f32.s32	s17, s17
 1080              	.LVL143:
  64:/home/dat/Documents/colir_one/rocket_code/Module/Src/nmea_parse.c **** 
 1081              		.loc 1 64 41 view .LVU317
 1082 012e 78EEA78A 		vadd.f32	s17, s17, s15
  64:/home/dat/Documents/colir_one/rocket_code/Module/Src/nmea_parse.c **** 
 1083              		.loc 1 64 16 view .LVU318
 1084 0132 18EE900A 		vmov	r0, s17
 1085 0136 FFF7FEFF 		bl	__aeabi_f2d
 1086              	.LVL144:
  66:/home/dat/Documents/colir_one/rocket_code/Module/Src/nmea_parse.c ****             gps_data->latitude = lat_deg;
 1087              		.loc 1 66 9 is_stmt 1 view .LVU319
  66:/home/dat/Documents/colir_one/rocket_code/Module/Src/nmea_parse.c ****             gps_data->latitude = lat_deg;
 1088              		.loc 1 66 11 is_stmt 0 view .LVU320
 1089 013a B5EE408A 		vcmp.f32	s16, #0
 1090 013e F1EE10FA 		vmrs	APSR_nzcv, FPSCR
 1091 0142 51D0     		beq	.L77
  66:/home/dat/Documents/colir_one/rocket_code/Module/Src/nmea_parse.c ****             gps_data->latitude = lat_deg;
 1092              		.loc 1 66 23 discriminator 1 view .LVU321
 1093 0144 F5EE408A 		vcmp.f32	s17, #0
 1094 0148 F1EE10FA 		vmrs	APSR_nzcv, FPSCR
 1095 014c 4ED0     		beq	.L78
  66:/home/dat/Documents/colir_one/rocket_code/Module/Src/nmea_parse.c ****             gps_data->latitude = lat_deg;
 1096              		.loc 1 66 37 discriminator 2 view .LVU322
 1097 014e DFED337A 		vldr.32	s15, .L88+8
 1098 0152 B4EEE78A 		vcmpe.f32	s16, s15
 1099 0156 F1EE10FA 		vmrs	APSR_nzcv, FPSCR
 1100 015a 49D5     		bpl	.L83
  66:/home/dat/Documents/colir_one/rocket_code/Module/Src/nmea_parse.c ****             gps_data->latitude = lat_deg;
 1101              		.loc 1 66 51 discriminator 3 view .LVU323
 1102 015c DFED307A 		vldr.32	s15, .L88+12
 1103 0160 F4EEE78A 		vcmpe.f32	s17, s15
 1104 0164 F1EE10FA 		vmrs	APSR_nzcv, FPSCR
 1105 0168 01D4     		bmi	.L87
 1106 016a 0024     		movs	r4, #0
 1107              	.LVL145:
  66:/home/dat/Documents/colir_one/rocket_code/Module/Src/nmea_parse.c ****             gps_data->latitude = lat_deg;
 1108              		.loc 1 66 51 discriminator 3 view .LVU324
 1109 016c 38E0     		b	.L71
 1110              	.LVL146:
 1111              	.L87:
 1112              	.LBB21:
  67:/home/dat/Documents/colir_one/rocket_code/Module/Src/nmea_parse.c ****             gps_data->latSide = latSide;
 1113              		.loc 1 67 13 is_stmt 1 view .LVU325
  67:/home/dat/Documents/colir_one/rocket_code/Module/Src/nmea_parse.c ****             gps_data->latSide = latSide;
 1114              		.loc 1 67 32 is_stmt 0 view .LVU326
 1115 016e C7E90089 		strd	r8, [r7]
  68:/home/dat/Documents/colir_one/rocket_code/Module/Src/nmea_parse.c ****             gps_data->longitude = lon_deg;
ARM GAS  /tmp/ccz1Fumd.s 			page 27


 1116              		.loc 1 68 13 is_stmt 1 view .LVU327
  68:/home/dat/Documents/colir_one/rocket_code/Module/Src/nmea_parse.c ****             gps_data->longitude = lon_deg;
 1117              		.loc 1 68 31 is_stmt 0 view .LVU328
 1118 0172 3C72     		strb	r4, [r7, #8]
  69:/home/dat/Documents/colir_one/rocket_code/Module/Src/nmea_parse.c ****             gps_data->lonSide = lonSide;
 1119              		.loc 1 69 13 is_stmt 1 view .LVU329
  69:/home/dat/Documents/colir_one/rocket_code/Module/Src/nmea_parse.c ****             gps_data->lonSide = lonSide;
 1120              		.loc 1 69 33 is_stmt 0 view .LVU330
 1121 0174 C7E90401 		strd	r0, [r7, #16]
  70:/home/dat/Documents/colir_one/rocket_code/Module/Src/nmea_parse.c ****             float altitude = strtof(values[9], NULL);
 1122              		.loc 1 70 13 is_stmt 1 view .LVU331
  70:/home/dat/Documents/colir_one/rocket_code/Module/Src/nmea_parse.c ****             float altitude = strtof(values[9], NULL);
 1123              		.loc 1 70 31 is_stmt 0 view .LVU332
 1124 0178 3E76     		strb	r6, [r7, #24]
  71:/home/dat/Documents/colir_one/rocket_code/Module/Src/nmea_parse.c ****             gps_data->altitude = altitude!=0 ? altitude : gps_data->altitude;
 1125              		.loc 1 71 13 is_stmt 1 view .LVU333
  71:/home/dat/Documents/colir_one/rocket_code/Module/Src/nmea_parse.c ****             gps_data->altitude = altitude!=0 ? altitude : gps_data->altitude;
 1126              		.loc 1 71 30 is_stmt 0 view .LVU334
 1127 017a 0021     		movs	r1, #0
 1128 017c 1098     		ldr	r0, [sp, #64]
 1129              	.LVL147:
  71:/home/dat/Documents/colir_one/rocket_code/Module/Src/nmea_parse.c ****             gps_data->altitude = altitude!=0 ? altitude : gps_data->altitude;
 1130              		.loc 1 71 30 view .LVU335
 1131 017e FFF7FEFF 		bl	strtof
 1132              	.LVL148:
  72:/home/dat/Documents/colir_one/rocket_code/Module/Src/nmea_parse.c ****             gps_data->satelliteCount = strtol(values[7], NULL, 10);
 1133              		.loc 1 72 13 is_stmt 1 view .LVU336
  72:/home/dat/Documents/colir_one/rocket_code/Module/Src/nmea_parse.c ****             gps_data->satelliteCount = strtol(values[7], NULL, 10);
 1134              		.loc 1 72 57 is_stmt 0 view .LVU337
 1135 0182 B5EE400A 		vcmp.f32	s0, #0
 1136 0186 F1EE10FA 		vmrs	APSR_nzcv, FPSCR
 1137 018a 01D1     		bne	.L68
  72:/home/dat/Documents/colir_one/rocket_code/Module/Src/nmea_parse.c ****             gps_data->satelliteCount = strtol(values[7], NULL, 10);
 1138              		.loc 1 72 57 discriminator 1 view .LVU338
 1139 018c 97ED070A 		vldr.32	s0, [r7, #28]
 1140              	.LVL149:
 1141              	.L68:
  72:/home/dat/Documents/colir_one/rocket_code/Module/Src/nmea_parse.c ****             gps_data->satelliteCount = strtol(values[7], NULL, 10);
 1142              		.loc 1 72 32 discriminator 4 view .LVU339
 1143 0190 87ED070A 		vstr.32	s0, [r7, #28]
  73:/home/dat/Documents/colir_one/rocket_code/Module/Src/nmea_parse.c **** 
 1144              		.loc 1 73 13 is_stmt 1 view .LVU340
  73:/home/dat/Documents/colir_one/rocket_code/Module/Src/nmea_parse.c **** 
 1145              		.loc 1 73 40 is_stmt 0 view .LVU341
 1146 0194 0A22     		movs	r2, #10
 1147 0196 0021     		movs	r1, #0
 1148 0198 0E98     		ldr	r0, [sp, #56]
 1149 019a FFF7FEFF 		bl	strtol
 1150              	.LVL150:
  73:/home/dat/Documents/colir_one/rocket_code/Module/Src/nmea_parse.c **** 
 1151              		.loc 1 73 38 discriminator 1 view .LVU342
 1152 019e 7862     		str	r0, [r7, #36]
  75:/home/dat/Documents/colir_one/rocket_code/Module/Src/nmea_parse.c ****             gps_data->fix = fixQuality > 0 ? 1 : 0;
 1153              		.loc 1 75 13 is_stmt 1 view .LVU343
  75:/home/dat/Documents/colir_one/rocket_code/Module/Src/nmea_parse.c ****             gps_data->fix = fixQuality > 0 ? 1 : 0;
 1154              		.loc 1 75 30 is_stmt 0 view .LVU344
 1155 01a0 0A22     		movs	r2, #10
ARM GAS  /tmp/ccz1Fumd.s 			page 28


 1156 01a2 0021     		movs	r1, #0
 1157 01a4 0D98     		ldr	r0, [sp, #52]
 1158 01a6 FFF7FEFF 		bl	strtol
 1159              	.LVL151:
  76:/home/dat/Documents/colir_one/rocket_code/Module/Src/nmea_parse.c **** 
 1160              		.loc 1 76 13 is_stmt 1 view .LVU345
  76:/home/dat/Documents/colir_one/rocket_code/Module/Src/nmea_parse.c **** 
 1161              		.loc 1 76 48 is_stmt 0 view .LVU346
 1162 01aa 0028     		cmp	r0, #0
 1163 01ac D4BF     		ite	le
 1164 01ae 0020     		movle	r0, #0
 1165              	.LVL152:
  76:/home/dat/Documents/colir_one/rocket_code/Module/Src/nmea_parse.c **** 
 1166              		.loc 1 76 48 view .LVU347
 1167 01b0 0120     		movgt	r0, #1
  76:/home/dat/Documents/colir_one/rocket_code/Module/Src/nmea_parse.c **** 
 1168              		.loc 1 76 27 view .LVU348
 1169 01b2 B862     		str	r0, [r7, #40]
  78:/home/dat/Documents/colir_one/rocket_code/Module/Src/nmea_parse.c ****             gps_data->hdop = hdop!=0 ? hdop : gps_data->hdop;
 1170              		.loc 1 78 13 is_stmt 1 view .LVU349
  78:/home/dat/Documents/colir_one/rocket_code/Module/Src/nmea_parse.c ****             gps_data->hdop = hdop!=0 ? hdop : gps_data->hdop;
 1171              		.loc 1 78 26 is_stmt 0 view .LVU350
 1172 01b4 0021     		movs	r1, #0
 1173 01b6 0F98     		ldr	r0, [sp, #60]
 1174 01b8 FFF7FEFF 		bl	strtof
 1175              	.LVL153:
  79:/home/dat/Documents/colir_one/rocket_code/Module/Src/nmea_parse.c ****         }
 1176              		.loc 1 79 13 is_stmt 1 view .LVU351
  79:/home/dat/Documents/colir_one/rocket_code/Module/Src/nmea_parse.c ****         }
 1177              		.loc 1 79 45 is_stmt 0 view .LVU352
 1178 01bc B5EE400A 		vcmp.f32	s0, #0
 1179 01c0 F1EE10FA 		vmrs	APSR_nzcv, FPSCR
 1180 01c4 01D1     		bne	.L69
  79:/home/dat/Documents/colir_one/rocket_code/Module/Src/nmea_parse.c ****         }
 1181              		.loc 1 79 45 discriminator 1 view .LVU353
 1182 01c6 97ED080A 		vldr.32	s0, [r7, #32]
 1183              	.LVL154:
 1184              	.L69:
  79:/home/dat/Documents/colir_one/rocket_code/Module/Src/nmea_parse.c ****         }
 1185              		.loc 1 79 28 discriminator 4 view .LVU354
 1186 01ca 87ED080A 		vstr.32	s0, [r7, #32]
 1187              	.LBE21:
 1188 01ce 4EE7     		b	.L56
 1189              	.LVL155:
 1190              	.L72:
 1191              	.LBB22:
  82:/home/dat/Documents/colir_one/rocket_code/Module/Src/nmea_parse.c ****             return 0;
 1192              		.loc 1 82 42 is_stmt 1 discriminator 3 view .LVU355
  82:/home/dat/Documents/colir_one/rocket_code/Module/Src/nmea_parse.c ****             return 0;
 1193              		.loc 1 82 53 is_stmt 0 discriminator 3 view .LVU356
 1194 01d0 20AB     		add	r3, sp, #128
 1195 01d2 03EB8403 		add	r3, r3, r4, lsl #2
  82:/home/dat/Documents/colir_one/rocket_code/Module/Src/nmea_parse.c ****             return 0;
 1196              		.loc 1 82 42 discriminator 3 view .LVU357
 1197 01d6 53F8640C 		ldr	r0, [r3, #-100]
 1198 01da FFF7FEFF 		bl	free
 1199              	.LVL156:
ARM GAS  /tmp/ccz1Fumd.s 			page 29


  82:/home/dat/Documents/colir_one/rocket_code/Module/Src/nmea_parse.c ****             return 0;
 1200              		.loc 1 82 38 is_stmt 1 discriminator 3 view .LVU358
 1201 01de 0134     		adds	r4, r4, #1
 1202              	.LVL157:
 1203              	.L71:
  82:/home/dat/Documents/colir_one/rocket_code/Module/Src/nmea_parse.c ****             return 0;
 1204              		.loc 1 82 27 discriminator 2 view .LVU359
 1205 01e0 A542     		cmp	r5, r4
 1206 01e2 F5DC     		bgt	.L72
 1207              	.LBE22:
  83:/home/dat/Documents/colir_one/rocket_code/Module/Src/nmea_parse.c ****         }
 1208              		.loc 1 83 13 view .LVU360
  83:/home/dat/Documents/colir_one/rocket_code/Module/Src/nmea_parse.c ****         }
 1209              		.loc 1 83 20 is_stmt 0 view .LVU361
 1210 01e4 0020     		movs	r0, #0
 1211 01e6 10E0     		b	.L52
 1212              	.LVL158:
 1213              	.L77:
  83:/home/dat/Documents/colir_one/rocket_code/Module/Src/nmea_parse.c ****         }
 1214              		.loc 1 83 20 view .LVU362
 1215 01e8 0024     		movs	r4, #0
 1216              	.LVL159:
  83:/home/dat/Documents/colir_one/rocket_code/Module/Src/nmea_parse.c ****         }
 1217              		.loc 1 83 20 view .LVU363
 1218 01ea F9E7     		b	.L71
 1219              	.LVL160:
 1220              	.L78:
  83:/home/dat/Documents/colir_one/rocket_code/Module/Src/nmea_parse.c ****         }
 1221              		.loc 1 83 20 view .LVU364
 1222 01ec 0024     		movs	r4, #0
 1223              	.LVL161:
  83:/home/dat/Documents/colir_one/rocket_code/Module/Src/nmea_parse.c ****         }
 1224              		.loc 1 83 20 view .LVU365
 1225 01ee F7E7     		b	.L71
 1226              	.LVL162:
 1227              	.L83:
  83:/home/dat/Documents/colir_one/rocket_code/Module/Src/nmea_parse.c ****         }
 1228              		.loc 1 83 20 view .LVU366
 1229 01f0 0024     		movs	r4, #0
 1230              	.LVL163:
  83:/home/dat/Documents/colir_one/rocket_code/Module/Src/nmea_parse.c ****         }
 1231              		.loc 1 83 20 view .LVU367
 1232 01f2 F5E7     		b	.L71
 1233              	.LVL164:
 1234              	.L74:
  83:/home/dat/Documents/colir_one/rocket_code/Module/Src/nmea_parse.c ****         }
 1235              		.loc 1 83 20 view .LVU368
 1236              	.LBE23:
 1237              	.LBB24:
  88:/home/dat/Documents/colir_one/rocket_code/Module/Src/nmea_parse.c ****     return 1;
 1238              		.loc 1 88 34 is_stmt 1 discriminator 3 view .LVU369
  88:/home/dat/Documents/colir_one/rocket_code/Module/Src/nmea_parse.c ****     return 1;
 1239              		.loc 1 88 45 is_stmt 0 discriminator 3 view .LVU370
 1240 01f4 20AB     		add	r3, sp, #128
 1241 01f6 03EB8403 		add	r3, r3, r4, lsl #2
  88:/home/dat/Documents/colir_one/rocket_code/Module/Src/nmea_parse.c ****     return 1;
 1242              		.loc 1 88 34 discriminator 3 view .LVU371
ARM GAS  /tmp/ccz1Fumd.s 			page 30


 1243 01fa 53F8640C 		ldr	r0, [r3, #-100]
 1244 01fe FFF7FEFF 		bl	free
 1245              	.LVL165:
  88:/home/dat/Documents/colir_one/rocket_code/Module/Src/nmea_parse.c ****     return 1;
 1246              		.loc 1 88 30 is_stmt 1 discriminator 3 view .LVU372
 1247 0202 0134     		adds	r4, r4, #1
 1248              	.LVL166:
 1249              	.L70:
  88:/home/dat/Documents/colir_one/rocket_code/Module/Src/nmea_parse.c ****     return 1;
 1250              		.loc 1 88 19 discriminator 2 view .LVU373
 1251 0204 A542     		cmp	r5, r4
 1252 0206 F5DC     		bgt	.L74
 1253              	.LBE24:
  89:/home/dat/Documents/colir_one/rocket_code/Module/Src/nmea_parse.c **** }
 1254              		.loc 1 89 12 is_stmt 0 view .LVU374
 1255 0208 0120     		movs	r0, #1
 1256              	.LVL167:
 1257              	.L52:
  90:/home/dat/Documents/colir_one/rocket_code/Module/Src/nmea_parse.c **** 
 1258              		.loc 1 90 1 view .LVU375
 1259 020a 21B0     		add	sp, sp, #132
 1260              	.LCFI16:
 1261              		.cfi_def_cfa_offset 36
 1262              		@ sp needed
 1263 020c BDEC028B 		vldm	sp!, {d8}
 1264              	.LCFI17:
 1265              		.cfi_restore 80
 1266              		.cfi_restore 81
 1267              		.cfi_def_cfa_offset 28
 1268 0210 BDE8F083 		pop	{r4, r5, r6, r7, r8, r9, pc}
 1269              	.LVL168:
 1270              	.L89:
  90:/home/dat/Documents/colir_one/rocket_code/Module/Src/nmea_parse.c **** 
 1271              		.loc 1 90 1 view .LVU376
 1272              		.align	2
 1273              	.L88:
 1274 0214 00000000 		.word	.LC0
 1275 0218 00007042 		.word	1114636288
 1276 021c 0000B442 		.word	1119092736
 1277 0220 00003443 		.word	1127481344
 1278              		.cfi_endproc
 1279              	.LFE135:
 1281              		.section	.rodata.nmea_parse.str1.4,"aMS",%progbits,1
 1282              		.align	2
 1283              	.LC1:
 1284 0000 2400     		.ascii	"$\000"
 1285 0002 0000     		.align	2
 1286              	.LC2:
 1287 0004 0D0A00   		.ascii	"\015\012\000"
 1288 0007 00       		.align	2
 1289              	.LC3:
 1290 0008 4750474C 		.ascii	"GPGLL\000"
 1290      4C00
 1291 000e 0000     		.align	2
 1292              	.LC4:
 1293 0010 47504753 		.ascii	"GPGSA\000"
 1293      4100
ARM GAS  /tmp/ccz1Fumd.s 			page 31


 1294 0016 0000     		.align	2
 1295              	.LC5:
 1296 0018 47504747 		.ascii	"GPGGA\000"
 1296      4100
 1297              		.section	.text.nmea_parse,"ax",%progbits
 1298              		.align	1
 1299              		.global	nmea_parse
 1300              		.syntax unified
 1301              		.thumb
 1302              		.thumb_func
 1304              	nmea_parse:
 1305              	.LVL169:
 1306              	.LFB138:
 165:/home/dat/Documents/colir_one/rocket_code/Module/Src/nmea_parse.c **** 
 166:/home/dat/Documents/colir_one/rocket_code/Module/Src/nmea_parse.c **** void nmea_parse(GPS_t *gps_data, uint8_t *buffer){
 1307              		.loc 1 166 50 is_stmt 1 view -0
 1308              		.cfi_startproc
 1309              		@ args = 0, pretend = 0, frame = 0
 1310              		@ frame_needed = 0, uses_anonymous_args = 0
 1311              		.loc 1 166 50 is_stmt 0 view .LVU378
 1312 0000 F8B5     		push	{r3, r4, r5, r6, r7, lr}
 1313              	.LCFI18:
 1314              		.cfi_def_cfa_offset 24
 1315              		.cfi_offset 3, -24
 1316              		.cfi_offset 4, -20
 1317              		.cfi_offset 5, -16
 1318              		.cfi_offset 6, -12
 1319              		.cfi_offset 7, -8
 1320              		.cfi_offset 14, -4
 1321 0002 0746     		mov	r7, r0
 1322 0004 0C46     		mov	r4, r1
 167:/home/dat/Documents/colir_one/rocket_code/Module/Src/nmea_parse.c ****     memset(data, 0, sizeof(data));
 1323              		.loc 1 167 5 is_stmt 1 view .LVU379
 1324 0006 3C22     		movs	r2, #60
 1325 0008 0021     		movs	r1, #0
 1326              	.LVL170:
 1327              		.loc 1 167 5 is_stmt 0 view .LVU380
 1328 000a 3048     		ldr	r0, .L104
 1329              	.LVL171:
 1330              		.loc 1 167 5 view .LVU381
 1331 000c FFF7FEFF 		bl	memset
 1332              	.LVL172:
 168:/home/dat/Documents/colir_one/rocket_code/Module/Src/nmea_parse.c ****     char * token = strtok((char*)buffer, "$");
 1333              		.loc 1 168 5 is_stmt 1 view .LVU382
 1334              		.loc 1 168 20 is_stmt 0 view .LVU383
 1335 0010 2F49     		ldr	r1, .L104+4
 1336 0012 2046     		mov	r0, r4
 1337 0014 FFF7FEFF 		bl	strtok
 1338              	.LVL173:
 1339 0018 0446     		mov	r4, r0
 1340              	.LVL174:
 169:/home/dat/Documents/colir_one/rocket_code/Module/Src/nmea_parse.c ****     int cnt = 0;
 1341              		.loc 1 169 5 is_stmt 1 view .LVU384
 170:/home/dat/Documents/colir_one/rocket_code/Module/Src/nmea_parse.c ****     while(token !=NULL){
 1342              		.loc 1 170 5 view .LVU385
 169:/home/dat/Documents/colir_one/rocket_code/Module/Src/nmea_parse.c ****     int cnt = 0;
 1343              		.loc 1 169 9 is_stmt 0 view .LVU386
ARM GAS  /tmp/ccz1Fumd.s 			page 32


 1344 001a 0025     		movs	r5, #0
 1345              		.loc 1 170 10 view .LVU387
 1346 001c 12E0     		b	.L91
 1347              	.LVL175:
 1348              	.L92:
 171:/home/dat/Documents/colir_one/rocket_code/Module/Src/nmea_parse.c ****         data[cnt++] = malloc(strlen(token)+1); //free later!!!!!
 1349              		.loc 1 171 9 is_stmt 1 view .LVU388
 1350              		.loc 1 171 30 is_stmt 0 view .LVU389
 1351 001e 2046     		mov	r0, r4
 1352              	.LVL176:
 1353              		.loc 1 171 30 view .LVU390
 1354 0020 FFF7FEFF 		bl	strlen
 1355              	.LVL177:
 1356              		.loc 1 171 17 discriminator 1 view .LVU391
 1357 0024 6E1C     		adds	r6, r5, #1
 1358              	.LVL178:
 1359              		.loc 1 171 23 discriminator 1 view .LVU392
 1360 0026 0130     		adds	r0, r0, #1
 1361 0028 FFF7FEFF 		bl	malloc
 1362              	.LVL179:
 1363              		.loc 1 171 21 discriminator 2 view .LVU393
 1364 002c 274B     		ldr	r3, .L104
 1365 002e 43F82500 		str	r0, [r3, r5, lsl #2]
 172:/home/dat/Documents/colir_one/rocket_code/Module/Src/nmea_parse.c ****         strcpy(data[cnt-1], token);
 1366              		.loc 1 172 9 is_stmt 1 view .LVU394
 1367 0032 2146     		mov	r1, r4
 1368 0034 FFF7FEFF 		bl	strcpy
 1369              	.LVL180:
 173:/home/dat/Documents/colir_one/rocket_code/Module/Src/nmea_parse.c ****         token = strtok(NULL, "$");
 1370              		.loc 1 173 9 view .LVU395
 1371              		.loc 1 173 17 is_stmt 0 view .LVU396
 1372 0038 2549     		ldr	r1, .L104+4
 1373 003a 0020     		movs	r0, #0
 1374 003c FFF7FEFF 		bl	strtok
 1375              	.LVL181:
 1376 0040 0446     		mov	r4, r0
 1377              	.LVL182:
 171:/home/dat/Documents/colir_one/rocket_code/Module/Src/nmea_parse.c ****         data[cnt++] = malloc(strlen(token)+1); //free later!!!!!
 1378              		.loc 1 171 17 discriminator 1 view .LVU397
 1379 0042 3546     		mov	r5, r6
 1380              	.LVL183:
 1381              	.L91:
 170:/home/dat/Documents/colir_one/rocket_code/Module/Src/nmea_parse.c ****         data[cnt++] = malloc(strlen(token)+1); //free later!!!!!
 1382              		.loc 1 170 17 is_stmt 1 view .LVU398
 1383 0044 002C     		cmp	r4, #0
 1384 0046 EAD1     		bne	.L92
 170:/home/dat/Documents/colir_one/rocket_code/Module/Src/nmea_parse.c ****         data[cnt++] = malloc(strlen(token)+1); //free later!!!!!
 1385              		.loc 1 170 17 is_stmt 0 view .LVU399
 1386 0048 09E0     		b	.L93
 1387              	.LVL184:
 1388              	.L95:
 1389              	.LBB25:
 174:/home/dat/Documents/colir_one/rocket_code/Module/Src/nmea_parse.c ****     }
 175:/home/dat/Documents/colir_one/rocket_code/Module/Src/nmea_parse.c ****     for(int i = 0; i<cnt; i++){
 176:/home/dat/Documents/colir_one/rocket_code/Module/Src/nmea_parse.c ****        if(strstr(data[i], "\r\n")!=NULL && gps_checksum(data[i])){
 177:/home/dat/Documents/colir_one/rocket_code/Module/Src/nmea_parse.c ****            if(strstr(data[i], "GPGLL")!=NULL){
 178:/home/dat/Documents/colir_one/rocket_code/Module/Src/nmea_parse.c ****                nmea_GPGLL(gps_data, data[i]);
ARM GAS  /tmp/ccz1Fumd.s 			page 33


 179:/home/dat/Documents/colir_one/rocket_code/Module/Src/nmea_parse.c ****            }
 180:/home/dat/Documents/colir_one/rocket_code/Module/Src/nmea_parse.c ****            else if(strstr(data[i], "GPGSA")!=NULL){
 1390              		.loc 1 180 17 is_stmt 1 view .LVU400
 1391              		.loc 1 180 20 is_stmt 0 view .LVU401
 1392 004a 2249     		ldr	r1, .L104+8
 1393 004c 3046     		mov	r0, r6
 1394 004e FFF7FEFF 		bl	strstr
 1395              	.LVL185:
 1396              		.loc 1 180 19 discriminator 1 view .LVU402
 1397 0052 10B3     		cbz	r0, .L96
 181:/home/dat/Documents/colir_one/rocket_code/Module/Src/nmea_parse.c ****                nmea_GPGSA(gps_data, data[i]);
 1398              		.loc 1 181 16 is_stmt 1 view .LVU403
 1399 0054 3146     		mov	r1, r6
 1400 0056 3846     		mov	r0, r7
 1401 0058 FFF7FEFF 		bl	nmea_GPGSA
 1402              	.LVL186:
 1403              	.L94:
 175:/home/dat/Documents/colir_one/rocket_code/Module/Src/nmea_parse.c ****        if(strstr(data[i], "\r\n")!=NULL && gps_checksum(data[i])){
 1404              		.loc 1 175 28 discriminator 2 view .LVU404
 1405 005c 0134     		adds	r4, r4, #1
 1406              	.LVL187:
 1407              	.L93:
 175:/home/dat/Documents/colir_one/rocket_code/Module/Src/nmea_parse.c ****        if(strstr(data[i], "\r\n")!=NULL && gps_checksum(data[i])){
 1408              		.loc 1 175 21 discriminator 1 view .LVU405
 1409 005e A542     		cmp	r5, r4
 1410 0060 26DD     		ble	.L102
 176:/home/dat/Documents/colir_one/rocket_code/Module/Src/nmea_parse.c ****            if(strstr(data[i], "GPGLL")!=NULL){
 1411              		.loc 1 176 8 view .LVU406
 176:/home/dat/Documents/colir_one/rocket_code/Module/Src/nmea_parse.c ****            if(strstr(data[i], "GPGLL")!=NULL){
 1412              		.loc 1 176 22 is_stmt 0 view .LVU407
 1413 0062 1A4B     		ldr	r3, .L104
 1414 0064 53F82460 		ldr	r6, [r3, r4, lsl #2]
 176:/home/dat/Documents/colir_one/rocket_code/Module/Src/nmea_parse.c ****            if(strstr(data[i], "GPGLL")!=NULL){
 1415              		.loc 1 176 11 view .LVU408
 1416 0068 1B49     		ldr	r1, .L104+12
 1417 006a 3046     		mov	r0, r6
 1418 006c FFF7FEFF 		bl	strstr
 1419              	.LVL188:
 176:/home/dat/Documents/colir_one/rocket_code/Module/Src/nmea_parse.c ****            if(strstr(data[i], "GPGLL")!=NULL){
 1420              		.loc 1 176 10 discriminator 1 view .LVU409
 1421 0070 0028     		cmp	r0, #0
 1422 0072 F3D0     		beq	.L94
 176:/home/dat/Documents/colir_one/rocket_code/Module/Src/nmea_parse.c ****            if(strstr(data[i], "GPGLL")!=NULL){
 1423              		.loc 1 176 44 discriminator 1 view .LVU410
 1424 0074 3046     		mov	r0, r6
 1425 0076 FFF7FEFF 		bl	gps_checksum
 1426              	.LVL189:
 176:/home/dat/Documents/colir_one/rocket_code/Module/Src/nmea_parse.c ****            if(strstr(data[i], "GPGLL")!=NULL){
 1427              		.loc 1 176 41 discriminator 1 view .LVU411
 1428 007a 0028     		cmp	r0, #0
 1429 007c EED0     		beq	.L94
 177:/home/dat/Documents/colir_one/rocket_code/Module/Src/nmea_parse.c ****                nmea_GPGLL(gps_data, data[i]);
 1430              		.loc 1 177 12 is_stmt 1 view .LVU412
 177:/home/dat/Documents/colir_one/rocket_code/Module/Src/nmea_parse.c ****                nmea_GPGLL(gps_data, data[i]);
 1431              		.loc 1 177 26 is_stmt 0 view .LVU413
 1432 007e 134B     		ldr	r3, .L104
 1433 0080 53F82460 		ldr	r6, [r3, r4, lsl #2]
ARM GAS  /tmp/ccz1Fumd.s 			page 34


 177:/home/dat/Documents/colir_one/rocket_code/Module/Src/nmea_parse.c ****                nmea_GPGLL(gps_data, data[i]);
 1434              		.loc 1 177 15 view .LVU414
 1435 0084 1549     		ldr	r1, .L104+16
 1436 0086 3046     		mov	r0, r6
 1437 0088 FFF7FEFF 		bl	strstr
 1438              	.LVL190:
 177:/home/dat/Documents/colir_one/rocket_code/Module/Src/nmea_parse.c ****                nmea_GPGLL(gps_data, data[i]);
 1439              		.loc 1 177 14 discriminator 1 view .LVU415
 1440 008c 0028     		cmp	r0, #0
 1441 008e DCD0     		beq	.L95
 178:/home/dat/Documents/colir_one/rocket_code/Module/Src/nmea_parse.c ****            }
 1442              		.loc 1 178 16 is_stmt 1 view .LVU416
 1443 0090 3146     		mov	r1, r6
 1444 0092 3846     		mov	r0, r7
 1445 0094 FFF7FEFF 		bl	nmea_GPGLL
 1446              	.LVL191:
 1447 0098 E0E7     		b	.L94
 1448              	.L96:
 182:/home/dat/Documents/colir_one/rocket_code/Module/Src/nmea_parse.c ****            }
 183:/home/dat/Documents/colir_one/rocket_code/Module/Src/nmea_parse.c ****            else if(strstr(data[i], "GPGGA")!=NULL){
 1449              		.loc 1 183 17 view .LVU417
 1450              		.loc 1 183 20 is_stmt 0 view .LVU418
 1451 009a 1149     		ldr	r1, .L104+20
 1452 009c 3046     		mov	r0, r6
 1453 009e FFF7FEFF 		bl	strstr
 1454              	.LVL192:
 1455              		.loc 1 183 19 discriminator 1 view .LVU419
 1456 00a2 0028     		cmp	r0, #0
 1457 00a4 DAD0     		beq	.L94
 184:/home/dat/Documents/colir_one/rocket_code/Module/Src/nmea_parse.c ****                nmea_GPGGA(gps_data, data[i]);
 1458              		.loc 1 184 16 is_stmt 1 view .LVU420
 1459 00a6 3146     		mov	r1, r6
 1460 00a8 3846     		mov	r0, r7
 1461 00aa FFF7FEFF 		bl	nmea_GPGGA
 1462              	.LVL193:
 1463 00ae D5E7     		b	.L94
 1464              	.L102:
 1465              		.loc 1 184 16 is_stmt 0 view .LVU421
 1466              	.LBE25:
 1467              	.LBB26:
 185:/home/dat/Documents/colir_one/rocket_code/Module/Src/nmea_parse.c ****            }
 186:/home/dat/Documents/colir_one/rocket_code/Module/Src/nmea_parse.c ****        }
 187:/home/dat/Documents/colir_one/rocket_code/Module/Src/nmea_parse.c **** 
 188:/home/dat/Documents/colir_one/rocket_code/Module/Src/nmea_parse.c ****     }
 189:/home/dat/Documents/colir_one/rocket_code/Module/Src/nmea_parse.c ****     for(int i = 0; i<cnt; i++) {
 1468              		.loc 1 189 13 view .LVU422
 1469 00b0 0024     		movs	r4, #0
 1470              	.LVL194:
 1471              		.loc 1 189 13 view .LVU423
 1472 00b2 00E0     		b	.L98
 1473              	.LVL195:
 1474              	.L99:
 1475              		.loc 1 189 28 is_stmt 1 discriminator 2 view .LVU424
 1476 00b4 0134     		adds	r4, r4, #1
 1477              	.LVL196:
 1478              	.L98:
 1479              		.loc 1 189 21 discriminator 1 view .LVU425
ARM GAS  /tmp/ccz1Fumd.s 			page 35


 1480 00b6 A542     		cmp	r5, r4
 1481 00b8 07DD     		ble	.L103
 1482              	.LBB27:
 190:/home/dat/Documents/colir_one/rocket_code/Module/Src/nmea_parse.c ****     	int a = sizeof(data);
 1483              		.loc 1 190 6 view .LVU426
 1484              	.LVL197:
 191:/home/dat/Documents/colir_one/rocket_code/Module/Src/nmea_parse.c ****     	if(i < sizeof(data) - 1)
 1485              		.loc 1 191 6 view .LVU427
 1486              		.loc 1 191 8 is_stmt 0 view .LVU428
 1487 00ba 3A2C     		cmp	r4, #58
 1488 00bc FAD8     		bhi	.L99
 192:/home/dat/Documents/colir_one/rocket_code/Module/Src/nmea_parse.c ****     		free(data[i]);
 1489              		.loc 1 192 7 is_stmt 1 view .LVU429
 1490 00be 034B     		ldr	r3, .L104
 1491 00c0 53F82400 		ldr	r0, [r3, r4, lsl #2]
 1492 00c4 FFF7FEFF 		bl	free
 1493              	.LVL198:
 1494 00c8 F4E7     		b	.L99
 1495              	.LVL199:
 1496              	.L103:
 1497              		.loc 1 192 7 is_stmt 0 view .LVU430
 1498              	.LBE27:
 1499              	.LBE26:
 193:/home/dat/Documents/colir_one/rocket_code/Module/Src/nmea_parse.c ****     }
 194:/home/dat/Documents/colir_one/rocket_code/Module/Src/nmea_parse.c **** 
 195:/home/dat/Documents/colir_one/rocket_code/Module/Src/nmea_parse.c **** 
 196:/home/dat/Documents/colir_one/rocket_code/Module/Src/nmea_parse.c **** }
 1500              		.loc 1 196 1 view .LVU431
 1501 00ca F8BD     		pop	{r3, r4, r5, r6, r7, pc}
 1502              	.LVL200:
 1503              	.L105:
 1504              		.loc 1 196 1 view .LVU432
 1505              		.align	2
 1506              	.L104:
 1507 00cc 00000000 		.word	data
 1508 00d0 00000000 		.word	.LC1
 1509 00d4 10000000 		.word	.LC4
 1510 00d8 04000000 		.word	.LC2
 1511 00dc 08000000 		.word	.LC3
 1512 00e0 18000000 		.word	.LC5
 1513              		.cfi_endproc
 1514              	.LFE138:
 1516              		.global	data
 1517              		.section	.bss.data,"aw",%nobits
 1518              		.align	2
 1521              	data:
 1522 0000 00000000 		.space	60
 1522      00000000 
 1522      00000000 
 1522      00000000 
 1522      00000000 
 1523              		.text
 1524              	.Letext0:
 1525              		.file 2 "/home/dat/.config/Code/User/globalStorage/litaitech.stm32-colir-one/@xpack-dev-tools/arm-
 1526              		.file 3 "/home/dat/.config/Code/User/globalStorage/litaitech.stm32-colir-one/@xpack-dev-tools/arm-
 1527              		.file 4 "/home/dat/.config/Code/User/globalStorage/litaitech.stm32-colir-one/@xpack-dev-tools/arm-
 1528              		.file 5 "/home/dat/Documents/colir_one/rocket_code/Module/Inc/nmea_parse.h"
ARM GAS  /tmp/ccz1Fumd.s 			page 36


 1529              		.file 6 "/home/dat/.config/Code/User/globalStorage/litaitech.stm32-colir-one/@xpack-dev-tools/arm-
 1530              		.file 7 "/home/dat/.config/Code/User/globalStorage/litaitech.stm32-colir-one/@xpack-dev-tools/arm-
 1531              		.file 8 "<built-in>"
ARM GAS  /tmp/ccz1Fumd.s 			page 37

