ARM GAS  /tmp/ccRmczbm.s 			page 1


   1              		.cpu cortex-m4
   2              		.arch armv7e-m
   3              		.fpu fpv4-sp-d16
   4              		.eabi_attribute 27, 1
   5              		.eabi_attribute 28, 1
   6              		.eabi_attribute 20, 1
   7              		.eabi_attribute 21, 1
   8              		.eabi_attribute 23, 3
   9              		.eabi_attribute 24, 1
  10              		.eabi_attribute 25, 1
  11              		.eabi_attribute 26, 1
  12              		.eabi_attribute 30, 1
  13              		.eabi_attribute 34, 1
  14              		.eabi_attribute 18, 4
  15              		.file	"ff_gen_drv.c"
  16              		.text
  17              	.Ltext0:
  18              		.cfi_sections	.debug_frame
  19              		.file 1 "/home/dat/Documents/colir_one/rocket_code/Middlewares/Third_Party/FatFs/src/ff_gen_drv.c"
  20              		.section	.text.FATFS_LinkDriverEx,"ax",%progbits
  21              		.align	1
  22              		.global	FATFS_LinkDriverEx
  23              		.syntax unified
  24              		.thumb
  25              		.thumb_func
  27              	FATFS_LinkDriverEx:
  28              	.LVL0:
  29              	.LFB134:
   1:/home/dat/Documents/colir_one/rocket_code/Middlewares/Third_Party/FatFs/src/ff_gen_drv.c **** /**
   2:/home/dat/Documents/colir_one/rocket_code/Middlewares/Third_Party/FatFs/src/ff_gen_drv.c ****   ******************************************************************************
   3:/home/dat/Documents/colir_one/rocket_code/Middlewares/Third_Party/FatFs/src/ff_gen_drv.c ****   * @file    ff_gen_drv.c
   4:/home/dat/Documents/colir_one/rocket_code/Middlewares/Third_Party/FatFs/src/ff_gen_drv.c ****   * @author  MCD Application Team
   5:/home/dat/Documents/colir_one/rocket_code/Middlewares/Third_Party/FatFs/src/ff_gen_drv.c ****   * @brief   FatFs generic low level driver.
   6:/home/dat/Documents/colir_one/rocket_code/Middlewares/Third_Party/FatFs/src/ff_gen_drv.c ****   *****************************************************************************
   7:/home/dat/Documents/colir_one/rocket_code/Middlewares/Third_Party/FatFs/src/ff_gen_drv.c ****   * @attention
   8:/home/dat/Documents/colir_one/rocket_code/Middlewares/Third_Party/FatFs/src/ff_gen_drv.c ****   *
   9:/home/dat/Documents/colir_one/rocket_code/Middlewares/Third_Party/FatFs/src/ff_gen_drv.c ****   * Copyright (c) 2017 STMicroelectronics. All rights reserved.
  10:/home/dat/Documents/colir_one/rocket_code/Middlewares/Third_Party/FatFs/src/ff_gen_drv.c ****   *
  11:/home/dat/Documents/colir_one/rocket_code/Middlewares/Third_Party/FatFs/src/ff_gen_drv.c ****   * This software component is licensed by ST under BSD 3-Clause license,
  12:/home/dat/Documents/colir_one/rocket_code/Middlewares/Third_Party/FatFs/src/ff_gen_drv.c ****   * the "License"; You may not use this file except in compliance with the
  13:/home/dat/Documents/colir_one/rocket_code/Middlewares/Third_Party/FatFs/src/ff_gen_drv.c ****   * License. You may obtain a copy of the License at:
  14:/home/dat/Documents/colir_one/rocket_code/Middlewares/Third_Party/FatFs/src/ff_gen_drv.c ****   *                       opensource.org/licenses/BSD-3-Clause
  15:/home/dat/Documents/colir_one/rocket_code/Middlewares/Third_Party/FatFs/src/ff_gen_drv.c ****   *
  16:/home/dat/Documents/colir_one/rocket_code/Middlewares/Third_Party/FatFs/src/ff_gen_drv.c ****   ******************************************************************************
  17:/home/dat/Documents/colir_one/rocket_code/Middlewares/Third_Party/FatFs/src/ff_gen_drv.c **** **/
  18:/home/dat/Documents/colir_one/rocket_code/Middlewares/Third_Party/FatFs/src/ff_gen_drv.c **** /* Includes ------------------------------------------------------------------*/
  19:/home/dat/Documents/colir_one/rocket_code/Middlewares/Third_Party/FatFs/src/ff_gen_drv.c **** #include "ff_gen_drv.h"
  20:/home/dat/Documents/colir_one/rocket_code/Middlewares/Third_Party/FatFs/src/ff_gen_drv.c **** 
  21:/home/dat/Documents/colir_one/rocket_code/Middlewares/Third_Party/FatFs/src/ff_gen_drv.c **** /* Private typedef -----------------------------------------------------------*/
  22:/home/dat/Documents/colir_one/rocket_code/Middlewares/Third_Party/FatFs/src/ff_gen_drv.c **** /* Private define ------------------------------------------------------------*/
  23:/home/dat/Documents/colir_one/rocket_code/Middlewares/Third_Party/FatFs/src/ff_gen_drv.c **** /* Private variables ---------------------------------------------------------*/
  24:/home/dat/Documents/colir_one/rocket_code/Middlewares/Third_Party/FatFs/src/ff_gen_drv.c **** Disk_drvTypeDef disk = {{0},{0},{0},0};
  25:/home/dat/Documents/colir_one/rocket_code/Middlewares/Third_Party/FatFs/src/ff_gen_drv.c **** 
  26:/home/dat/Documents/colir_one/rocket_code/Middlewares/Third_Party/FatFs/src/ff_gen_drv.c **** /* Private function prototypes -----------------------------------------------*/
  27:/home/dat/Documents/colir_one/rocket_code/Middlewares/Third_Party/FatFs/src/ff_gen_drv.c **** /* Private functions ---------------------------------------------------------*/
  28:/home/dat/Documents/colir_one/rocket_code/Middlewares/Third_Party/FatFs/src/ff_gen_drv.c **** 
  29:/home/dat/Documents/colir_one/rocket_code/Middlewares/Third_Party/FatFs/src/ff_gen_drv.c **** /**
ARM GAS  /tmp/ccRmczbm.s 			page 2


  30:/home/dat/Documents/colir_one/rocket_code/Middlewares/Third_Party/FatFs/src/ff_gen_drv.c ****   * @brief  Links a compatible diskio driver/lun id and increments the number of active
  31:/home/dat/Documents/colir_one/rocket_code/Middlewares/Third_Party/FatFs/src/ff_gen_drv.c ****   *         linked drivers.
  32:/home/dat/Documents/colir_one/rocket_code/Middlewares/Third_Party/FatFs/src/ff_gen_drv.c ****   * @note   The number of linked drivers (volumes) is up to 10 due to FatFs limits.
  33:/home/dat/Documents/colir_one/rocket_code/Middlewares/Third_Party/FatFs/src/ff_gen_drv.c ****   * @param  drv: pointer to the disk IO Driver structure
  34:/home/dat/Documents/colir_one/rocket_code/Middlewares/Third_Party/FatFs/src/ff_gen_drv.c ****   * @param  path: pointer to the logical drive path
  35:/home/dat/Documents/colir_one/rocket_code/Middlewares/Third_Party/FatFs/src/ff_gen_drv.c ****   * @param  lun : only used for USB Key Disk to add multi-lun management
  36:/home/dat/Documents/colir_one/rocket_code/Middlewares/Third_Party/FatFs/src/ff_gen_drv.c ****             else the parameter must be equal to 0
  37:/home/dat/Documents/colir_one/rocket_code/Middlewares/Third_Party/FatFs/src/ff_gen_drv.c ****   * @retval Returns 0 in case of success, otherwise 1.
  38:/home/dat/Documents/colir_one/rocket_code/Middlewares/Third_Party/FatFs/src/ff_gen_drv.c ****   */
  39:/home/dat/Documents/colir_one/rocket_code/Middlewares/Third_Party/FatFs/src/ff_gen_drv.c **** uint8_t FATFS_LinkDriverEx(const Diskio_drvTypeDef *drv, char *path, uint8_t lun)
  40:/home/dat/Documents/colir_one/rocket_code/Middlewares/Third_Party/FatFs/src/ff_gen_drv.c **** {
  30              		.loc 1 40 1 view -0
  31              		.cfi_startproc
  32              		@ args = 0, pretend = 0, frame = 0
  33              		@ frame_needed = 0, uses_anonymous_args = 0
  41:/home/dat/Documents/colir_one/rocket_code/Middlewares/Third_Party/FatFs/src/ff_gen_drv.c ****   uint8_t ret = 1;
  34              		.loc 1 41 3 view .LVU1
  42:/home/dat/Documents/colir_one/rocket_code/Middlewares/Third_Party/FatFs/src/ff_gen_drv.c ****   uint8_t DiskNum = 0;
  35              		.loc 1 42 3 view .LVU2
  43:/home/dat/Documents/colir_one/rocket_code/Middlewares/Third_Party/FatFs/src/ff_gen_drv.c **** 
  44:/home/dat/Documents/colir_one/rocket_code/Middlewares/Third_Party/FatFs/src/ff_gen_drv.c ****   if(disk.nbr < _VOLUMES)
  36              		.loc 1 44 3 view .LVU3
  37              		.loc 1 44 10 is_stmt 0 view .LVU4
  38 0000 134B     		ldr	r3, .L8
  39 0002 5B7A     		ldrb	r3, [r3, #9]	@ zero_extendqisi2
  40              		.loc 1 44 5 view .LVU5
  41 0004 13BB     		cbnz	r3, .L3
  40:/home/dat/Documents/colir_one/rocket_code/Middlewares/Third_Party/FatFs/src/ff_gen_drv.c ****   uint8_t ret = 1;
  42              		.loc 1 40 1 view .LVU6
  43 0006 10B5     		push	{r4, lr}
  44              	.LCFI0:
  45              		.cfi_def_cfa_offset 8
  46              		.cfi_offset 4, -8
  47              		.cfi_offset 14, -4
  48 0008 0446     		mov	r4, r0
  49 000a 03F0FF00 		and	r0, r3, #255
  50              	.LVL1:
  45:/home/dat/Documents/colir_one/rocket_code/Middlewares/Third_Party/FatFs/src/ff_gen_drv.c ****   {
  46:/home/dat/Documents/colir_one/rocket_code/Middlewares/Third_Party/FatFs/src/ff_gen_drv.c ****     disk.is_initialized[disk.nbr] = 0;
  51              		.loc 1 46 5 is_stmt 1 view .LVU7
  52              		.loc 1 46 29 is_stmt 0 view .LVU8
  53 000e 104B     		ldr	r3, .L8
  54 0010 93F809C0 		ldrb	ip, [r3, #9]	@ zero_extendqisi2
  55 0014 5FFA8CFC 		uxtb	ip, ip
  56              		.loc 1 46 35 view .LVU9
  57 0018 4FF0000E 		mov	lr, #0
  58 001c 03F80CE0 		strb	lr, [r3, ip]
  47:/home/dat/Documents/colir_one/rocket_code/Middlewares/Third_Party/FatFs/src/ff_gen_drv.c ****     disk.drv[disk.nbr] = drv;
  59              		.loc 1 47 5 is_stmt 1 view .LVU10
  60              		.loc 1 47 18 is_stmt 0 view .LVU11
  61 0020 93F809C0 		ldrb	ip, [r3, #9]	@ zero_extendqisi2
  62              		.loc 1 47 24 view .LVU12
  63 0024 03EB8C0C 		add	ip, r3, ip, lsl #2
  64 0028 CCF80440 		str	r4, [ip, #4]
  48:/home/dat/Documents/colir_one/rocket_code/Middlewares/Third_Party/FatFs/src/ff_gen_drv.c ****     disk.lun[disk.nbr] = lun;
  65              		.loc 1 48 5 is_stmt 1 view .LVU13
  66              		.loc 1 48 18 is_stmt 0 view .LVU14
ARM GAS  /tmp/ccRmczbm.s 			page 3


  67 002c 5C7A     		ldrb	r4, [r3, #9]	@ zero_extendqisi2
  68              	.LVL2:
  69              		.loc 1 48 24 view .LVU15
  70 002e 1C44     		add	r4, r4, r3
  71 0030 2272     		strb	r2, [r4, #8]
  49:/home/dat/Documents/colir_one/rocket_code/Middlewares/Third_Party/FatFs/src/ff_gen_drv.c ****     DiskNum = disk.nbr++;
  72              		.loc 1 49 5 is_stmt 1 view .LVU16
  73              		.loc 1 49 19 is_stmt 0 view .LVU17
  74 0032 5A7A     		ldrb	r2, [r3, #9]	@ zero_extendqisi2
  75              	.LVL3:
  76              		.loc 1 49 23 view .LVU18
  77 0034 541C     		adds	r4, r2, #1
  78              	.LVL4:
  79              		.loc 1 49 23 view .LVU19
  80 0036 E4B2     		uxtb	r4, r4
  81 0038 5C72     		strb	r4, [r3, #9]
  82              	.LVL5:
  50:/home/dat/Documents/colir_one/rocket_code/Middlewares/Third_Party/FatFs/src/ff_gen_drv.c ****     path[0] = DiskNum + '0';
  83              		.loc 1 50 5 is_stmt 1 view .LVU20
  84              		.loc 1 50 23 is_stmt 0 view .LVU21
  85 003a 3032     		adds	r2, r2, #48
  86              	.LVL6:
  87              		.loc 1 50 13 view .LVU22
  88 003c 0A70     		strb	r2, [r1]
  89              	.LVL7:
  51:/home/dat/Documents/colir_one/rocket_code/Middlewares/Third_Party/FatFs/src/ff_gen_drv.c ****     path[1] = ':';
  90              		.loc 1 51 5 is_stmt 1 view .LVU23
  91              		.loc 1 51 13 is_stmt 0 view .LVU24
  92 003e 3A23     		movs	r3, #58
  93 0040 4B70     		strb	r3, [r1, #1]
  52:/home/dat/Documents/colir_one/rocket_code/Middlewares/Third_Party/FatFs/src/ff_gen_drv.c ****     path[2] = '/';
  94              		.loc 1 52 5 is_stmt 1 view .LVU25
  95              		.loc 1 52 13 is_stmt 0 view .LVU26
  96 0042 2F23     		movs	r3, #47
  97 0044 8B70     		strb	r3, [r1, #2]
  53:/home/dat/Documents/colir_one/rocket_code/Middlewares/Third_Party/FatFs/src/ff_gen_drv.c ****     path[3] = 0;
  98              		.loc 1 53 5 is_stmt 1 view .LVU27
  99              		.loc 1 53 13 is_stmt 0 view .LVU28
 100 0046 81F803E0 		strb	lr, [r1, #3]
  54:/home/dat/Documents/colir_one/rocket_code/Middlewares/Third_Party/FatFs/src/ff_gen_drv.c ****     ret = 0;
 101              		.loc 1 54 5 is_stmt 1 view .LVU29
 102              	.LVL8:
  55:/home/dat/Documents/colir_one/rocket_code/Middlewares/Third_Party/FatFs/src/ff_gen_drv.c ****   }
  56:/home/dat/Documents/colir_one/rocket_code/Middlewares/Third_Party/FatFs/src/ff_gen_drv.c **** 
  57:/home/dat/Documents/colir_one/rocket_code/Middlewares/Third_Party/FatFs/src/ff_gen_drv.c ****   return ret;
 103              		.loc 1 57 3 view .LVU30
  58:/home/dat/Documents/colir_one/rocket_code/Middlewares/Third_Party/FatFs/src/ff_gen_drv.c **** }
 104              		.loc 1 58 1 is_stmt 0 view .LVU31
 105 004a 10BD     		pop	{r4, pc}
 106              	.LVL9:
 107              	.L3:
 108              	.LCFI1:
 109              		.cfi_def_cfa_offset 0
 110              		.cfi_restore 4
 111              		.cfi_restore 14
  41:/home/dat/Documents/colir_one/rocket_code/Middlewares/Third_Party/FatFs/src/ff_gen_drv.c ****   uint8_t DiskNum = 0;
 112              		.loc 1 41 11 view .LVU32
ARM GAS  /tmp/ccRmczbm.s 			page 4


 113 004c 0120     		movs	r0, #1
 114              	.LVL10:
  57:/home/dat/Documents/colir_one/rocket_code/Middlewares/Third_Party/FatFs/src/ff_gen_drv.c **** }
 115              		.loc 1 57 3 is_stmt 1 view .LVU33
 116              		.loc 1 58 1 is_stmt 0 view .LVU34
 117 004e 7047     		bx	lr
 118              	.L9:
 119              		.align	2
 120              	.L8:
 121 0050 00000000 		.word	disk
 122              		.cfi_endproc
 123              	.LFE134:
 125              		.section	.text.FATFS_LinkDriver,"ax",%progbits
 126              		.align	1
 127              		.global	FATFS_LinkDriver
 128              		.syntax unified
 129              		.thumb
 130              		.thumb_func
 132              	FATFS_LinkDriver:
 133              	.LVL11:
 134              	.LFB135:
  59:/home/dat/Documents/colir_one/rocket_code/Middlewares/Third_Party/FatFs/src/ff_gen_drv.c **** 
  60:/home/dat/Documents/colir_one/rocket_code/Middlewares/Third_Party/FatFs/src/ff_gen_drv.c **** /**
  61:/home/dat/Documents/colir_one/rocket_code/Middlewares/Third_Party/FatFs/src/ff_gen_drv.c ****   * @brief  Links a compatible diskio driver and increments the number of active
  62:/home/dat/Documents/colir_one/rocket_code/Middlewares/Third_Party/FatFs/src/ff_gen_drv.c ****   *         linked drivers.
  63:/home/dat/Documents/colir_one/rocket_code/Middlewares/Third_Party/FatFs/src/ff_gen_drv.c ****   * @note   The number of linked drivers (volumes) is up to 10 due to FatFs limits
  64:/home/dat/Documents/colir_one/rocket_code/Middlewares/Third_Party/FatFs/src/ff_gen_drv.c ****   * @param  drv: pointer to the disk IO Driver structure
  65:/home/dat/Documents/colir_one/rocket_code/Middlewares/Third_Party/FatFs/src/ff_gen_drv.c ****   * @param  path: pointer to the logical drive path
  66:/home/dat/Documents/colir_one/rocket_code/Middlewares/Third_Party/FatFs/src/ff_gen_drv.c ****   * @retval Returns 0 in case of success, otherwise 1.
  67:/home/dat/Documents/colir_one/rocket_code/Middlewares/Third_Party/FatFs/src/ff_gen_drv.c ****   */
  68:/home/dat/Documents/colir_one/rocket_code/Middlewares/Third_Party/FatFs/src/ff_gen_drv.c **** uint8_t FATFS_LinkDriver(const Diskio_drvTypeDef *drv, char *path)
  69:/home/dat/Documents/colir_one/rocket_code/Middlewares/Third_Party/FatFs/src/ff_gen_drv.c **** {
 135              		.loc 1 69 1 is_stmt 1 view -0
 136              		.cfi_startproc
 137              		@ args = 0, pretend = 0, frame = 0
 138              		@ frame_needed = 0, uses_anonymous_args = 0
 139              		.loc 1 69 1 is_stmt 0 view .LVU36
 140 0000 08B5     		push	{r3, lr}
 141              	.LCFI2:
 142              		.cfi_def_cfa_offset 8
 143              		.cfi_offset 3, -8
 144              		.cfi_offset 14, -4
  70:/home/dat/Documents/colir_one/rocket_code/Middlewares/Third_Party/FatFs/src/ff_gen_drv.c ****   return FATFS_LinkDriverEx(drv, path, 0);
 145              		.loc 1 70 3 is_stmt 1 view .LVU37
 146              		.loc 1 70 10 is_stmt 0 view .LVU38
 147 0002 0022     		movs	r2, #0
 148 0004 FFF7FEFF 		bl	FATFS_LinkDriverEx
 149              	.LVL12:
  71:/home/dat/Documents/colir_one/rocket_code/Middlewares/Third_Party/FatFs/src/ff_gen_drv.c **** }
 150              		.loc 1 71 1 view .LVU39
 151 0008 08BD     		pop	{r3, pc}
 152              		.cfi_endproc
 153              	.LFE135:
 155              		.section	.text.FATFS_UnLinkDriverEx,"ax",%progbits
 156              		.align	1
 157              		.global	FATFS_UnLinkDriverEx
 158              		.syntax unified
ARM GAS  /tmp/ccRmczbm.s 			page 5


 159              		.thumb
 160              		.thumb_func
 162              	FATFS_UnLinkDriverEx:
 163              	.LVL13:
 164              	.LFB136:
  72:/home/dat/Documents/colir_one/rocket_code/Middlewares/Third_Party/FatFs/src/ff_gen_drv.c **** 
  73:/home/dat/Documents/colir_one/rocket_code/Middlewares/Third_Party/FatFs/src/ff_gen_drv.c **** /**
  74:/home/dat/Documents/colir_one/rocket_code/Middlewares/Third_Party/FatFs/src/ff_gen_drv.c ****   * @brief  Unlinks a diskio driver and decrements the number of active linked
  75:/home/dat/Documents/colir_one/rocket_code/Middlewares/Third_Party/FatFs/src/ff_gen_drv.c ****   *         drivers.
  76:/home/dat/Documents/colir_one/rocket_code/Middlewares/Third_Party/FatFs/src/ff_gen_drv.c ****   * @param  path: pointer to the logical drive path
  77:/home/dat/Documents/colir_one/rocket_code/Middlewares/Third_Party/FatFs/src/ff_gen_drv.c ****   * @param  lun : not used
  78:/home/dat/Documents/colir_one/rocket_code/Middlewares/Third_Party/FatFs/src/ff_gen_drv.c ****   * @retval Returns 0 in case of success, otherwise 1.
  79:/home/dat/Documents/colir_one/rocket_code/Middlewares/Third_Party/FatFs/src/ff_gen_drv.c ****   */
  80:/home/dat/Documents/colir_one/rocket_code/Middlewares/Third_Party/FatFs/src/ff_gen_drv.c **** uint8_t FATFS_UnLinkDriverEx(char *path, uint8_t lun)
  81:/home/dat/Documents/colir_one/rocket_code/Middlewares/Third_Party/FatFs/src/ff_gen_drv.c **** {
 165              		.loc 1 81 1 is_stmt 1 view -0
 166              		.cfi_startproc
 167              		@ args = 0, pretend = 0, frame = 0
 168              		@ frame_needed = 0, uses_anonymous_args = 0
 169              		@ link register save eliminated.
  82:/home/dat/Documents/colir_one/rocket_code/Middlewares/Third_Party/FatFs/src/ff_gen_drv.c ****   uint8_t DiskNum = 0;
 170              		.loc 1 82 3 view .LVU41
  83:/home/dat/Documents/colir_one/rocket_code/Middlewares/Third_Party/FatFs/src/ff_gen_drv.c ****   uint8_t ret = 1;
 171              		.loc 1 83 3 view .LVU42
  84:/home/dat/Documents/colir_one/rocket_code/Middlewares/Third_Party/FatFs/src/ff_gen_drv.c **** 
  85:/home/dat/Documents/colir_one/rocket_code/Middlewares/Third_Party/FatFs/src/ff_gen_drv.c ****   if(disk.nbr >= 1)
 172              		.loc 1 85 3 view .LVU43
 173              		.loc 1 85 10 is_stmt 0 view .LVU44
 174 0000 0D4B     		ldr	r3, .L16
 175 0002 5B7A     		ldrb	r3, [r3, #9]	@ zero_extendqisi2
 176              		.loc 1 85 5 view .LVU45
 177 0004 9BB1     		cbz	r3, .L14
  86:/home/dat/Documents/colir_one/rocket_code/Middlewares/Third_Party/FatFs/src/ff_gen_drv.c ****   {
  87:/home/dat/Documents/colir_one/rocket_code/Middlewares/Third_Party/FatFs/src/ff_gen_drv.c ****     DiskNum = path[0] - '0';
 178              		.loc 1 87 5 is_stmt 1 view .LVU46
 179              		.loc 1 87 19 is_stmt 0 view .LVU47
 180 0006 0378     		ldrb	r3, [r0]	@ zero_extendqisi2
 181              		.loc 1 87 13 view .LVU48
 182 0008 303B     		subs	r3, r3, #48
 183 000a DBB2     		uxtb	r3, r3
 184              	.LVL14:
  88:/home/dat/Documents/colir_one/rocket_code/Middlewares/Third_Party/FatFs/src/ff_gen_drv.c ****     if(disk.drv[DiskNum] != 0)
 185              		.loc 1 88 5 is_stmt 1 view .LVU49
 186              		.loc 1 88 16 is_stmt 0 view .LVU50
 187 000c 0A4A     		ldr	r2, .L16
 188 000e 02EB8302 		add	r2, r2, r3, lsl #2
 189 0012 5268     		ldr	r2, [r2, #4]
 190              		.loc 1 88 7 view .LVU51
 191 0014 6AB1     		cbz	r2, .L15
  89:/home/dat/Documents/colir_one/rocket_code/Middlewares/Third_Party/FatFs/src/ff_gen_drv.c ****     {
  90:/home/dat/Documents/colir_one/rocket_code/Middlewares/Third_Party/FatFs/src/ff_gen_drv.c ****       disk.drv[DiskNum] = 0;
 192              		.loc 1 90 7 is_stmt 1 view .LVU52
 193              		.loc 1 90 25 is_stmt 0 view .LVU53
 194 0016 084A     		ldr	r2, .L16
 195 0018 02EB8301 		add	r1, r2, r3, lsl #2
 196              	.LVL15:
 197              		.loc 1 90 25 view .LVU54
ARM GAS  /tmp/ccRmczbm.s 			page 6


 198 001c 0020     		movs	r0, #0
 199              	.LVL16:
 200              		.loc 1 90 25 view .LVU55
 201 001e 4860     		str	r0, [r1, #4]
  91:/home/dat/Documents/colir_one/rocket_code/Middlewares/Third_Party/FatFs/src/ff_gen_drv.c ****       disk.lun[DiskNum] = 0;
 202              		.loc 1 91 7 is_stmt 1 view .LVU56
 203              		.loc 1 91 25 is_stmt 0 view .LVU57
 204 0020 1344     		add	r3, r3, r2
 205              	.LVL17:
 206              		.loc 1 91 25 view .LVU58
 207 0022 1872     		strb	r0, [r3, #8]
  92:/home/dat/Documents/colir_one/rocket_code/Middlewares/Third_Party/FatFs/src/ff_gen_drv.c ****       disk.nbr--;
 208              		.loc 1 92 7 is_stmt 1 view .LVU59
 209              		.loc 1 92 11 is_stmt 0 view .LVU60
 210 0024 537A     		ldrb	r3, [r2, #9]	@ zero_extendqisi2
 211              	.LVL18:
 212              		.loc 1 92 15 view .LVU61
 213 0026 013B     		subs	r3, r3, #1
 214 0028 DBB2     		uxtb	r3, r3
 215 002a 5372     		strb	r3, [r2, #9]
  93:/home/dat/Documents/colir_one/rocket_code/Middlewares/Third_Party/FatFs/src/ff_gen_drv.c ****       ret = 0;
 216              		.loc 1 93 7 is_stmt 1 view .LVU62
 217              	.LVL19:
 218              		.loc 1 93 7 is_stmt 0 view .LVU63
 219 002c 7047     		bx	lr
 220              	.LVL20:
 221              	.L14:
  83:/home/dat/Documents/colir_one/rocket_code/Middlewares/Third_Party/FatFs/src/ff_gen_drv.c **** 
 222              		.loc 1 83 11 view .LVU64
 223 002e 0120     		movs	r0, #1
 224              	.LVL21:
  83:/home/dat/Documents/colir_one/rocket_code/Middlewares/Third_Party/FatFs/src/ff_gen_drv.c **** 
 225              		.loc 1 83 11 view .LVU65
 226 0030 7047     		bx	lr
 227              	.LVL22:
 228              	.L15:
  83:/home/dat/Documents/colir_one/rocket_code/Middlewares/Third_Party/FatFs/src/ff_gen_drv.c **** 
 229              		.loc 1 83 11 view .LVU66
 230 0032 0120     		movs	r0, #1
 231              	.LVL23:
  94:/home/dat/Documents/colir_one/rocket_code/Middlewares/Third_Party/FatFs/src/ff_gen_drv.c ****     }
  95:/home/dat/Documents/colir_one/rocket_code/Middlewares/Third_Party/FatFs/src/ff_gen_drv.c ****   }
  96:/home/dat/Documents/colir_one/rocket_code/Middlewares/Third_Party/FatFs/src/ff_gen_drv.c **** 
  97:/home/dat/Documents/colir_one/rocket_code/Middlewares/Third_Party/FatFs/src/ff_gen_drv.c ****   return ret;
 232              		.loc 1 97 3 is_stmt 1 view .LVU67
  98:/home/dat/Documents/colir_one/rocket_code/Middlewares/Third_Party/FatFs/src/ff_gen_drv.c **** }
 233              		.loc 1 98 1 is_stmt 0 view .LVU68
 234 0034 7047     		bx	lr
 235              	.L17:
 236 0036 00BF     		.align	2
 237              	.L16:
 238 0038 00000000 		.word	disk
 239              		.cfi_endproc
 240              	.LFE136:
 242              		.section	.text.FATFS_UnLinkDriver,"ax",%progbits
 243              		.align	1
 244              		.global	FATFS_UnLinkDriver
ARM GAS  /tmp/ccRmczbm.s 			page 7


 245              		.syntax unified
 246              		.thumb
 247              		.thumb_func
 249              	FATFS_UnLinkDriver:
 250              	.LVL24:
 251              	.LFB137:
  99:/home/dat/Documents/colir_one/rocket_code/Middlewares/Third_Party/FatFs/src/ff_gen_drv.c **** 
 100:/home/dat/Documents/colir_one/rocket_code/Middlewares/Third_Party/FatFs/src/ff_gen_drv.c **** /**
 101:/home/dat/Documents/colir_one/rocket_code/Middlewares/Third_Party/FatFs/src/ff_gen_drv.c ****   * @brief  Unlinks a diskio driver and decrements the number of active linked
 102:/home/dat/Documents/colir_one/rocket_code/Middlewares/Third_Party/FatFs/src/ff_gen_drv.c ****   *         drivers.
 103:/home/dat/Documents/colir_one/rocket_code/Middlewares/Third_Party/FatFs/src/ff_gen_drv.c ****   * @param  path: pointer to the logical drive path
 104:/home/dat/Documents/colir_one/rocket_code/Middlewares/Third_Party/FatFs/src/ff_gen_drv.c ****   * @retval Returns 0 in case of success, otherwise 1.
 105:/home/dat/Documents/colir_one/rocket_code/Middlewares/Third_Party/FatFs/src/ff_gen_drv.c ****   */
 106:/home/dat/Documents/colir_one/rocket_code/Middlewares/Third_Party/FatFs/src/ff_gen_drv.c **** uint8_t FATFS_UnLinkDriver(char *path)
 107:/home/dat/Documents/colir_one/rocket_code/Middlewares/Third_Party/FatFs/src/ff_gen_drv.c **** {
 252              		.loc 1 107 1 is_stmt 1 view -0
 253              		.cfi_startproc
 254              		@ args = 0, pretend = 0, frame = 0
 255              		@ frame_needed = 0, uses_anonymous_args = 0
 256              		.loc 1 107 1 is_stmt 0 view .LVU70
 257 0000 08B5     		push	{r3, lr}
 258              	.LCFI3:
 259              		.cfi_def_cfa_offset 8
 260              		.cfi_offset 3, -8
 261              		.cfi_offset 14, -4
 108:/home/dat/Documents/colir_one/rocket_code/Middlewares/Third_Party/FatFs/src/ff_gen_drv.c ****   return FATFS_UnLinkDriverEx(path, 0);
 262              		.loc 1 108 3 is_stmt 1 view .LVU71
 263              		.loc 1 108 10 is_stmt 0 view .LVU72
 264 0002 0021     		movs	r1, #0
 265 0004 FFF7FEFF 		bl	FATFS_UnLinkDriverEx
 266              	.LVL25:
 109:/home/dat/Documents/colir_one/rocket_code/Middlewares/Third_Party/FatFs/src/ff_gen_drv.c **** }
 267              		.loc 1 109 1 view .LVU73
 268 0008 08BD     		pop	{r3, pc}
 269              		.cfi_endproc
 270              	.LFE137:
 272              		.section	.text.FATFS_GetAttachedDriversNbr,"ax",%progbits
 273              		.align	1
 274              		.global	FATFS_GetAttachedDriversNbr
 275              		.syntax unified
 276              		.thumb
 277              		.thumb_func
 279              	FATFS_GetAttachedDriversNbr:
 280              	.LFB138:
 110:/home/dat/Documents/colir_one/rocket_code/Middlewares/Third_Party/FatFs/src/ff_gen_drv.c **** 
 111:/home/dat/Documents/colir_one/rocket_code/Middlewares/Third_Party/FatFs/src/ff_gen_drv.c **** /**
 112:/home/dat/Documents/colir_one/rocket_code/Middlewares/Third_Party/FatFs/src/ff_gen_drv.c ****   * @brief  Gets number of linked drivers to the FatFs module.
 113:/home/dat/Documents/colir_one/rocket_code/Middlewares/Third_Party/FatFs/src/ff_gen_drv.c ****   * @param  None
 114:/home/dat/Documents/colir_one/rocket_code/Middlewares/Third_Party/FatFs/src/ff_gen_drv.c ****   * @retval Number of attached drivers.
 115:/home/dat/Documents/colir_one/rocket_code/Middlewares/Third_Party/FatFs/src/ff_gen_drv.c ****   */
 116:/home/dat/Documents/colir_one/rocket_code/Middlewares/Third_Party/FatFs/src/ff_gen_drv.c **** uint8_t FATFS_GetAttachedDriversNbr(void)
 117:/home/dat/Documents/colir_one/rocket_code/Middlewares/Third_Party/FatFs/src/ff_gen_drv.c **** {
 281              		.loc 1 117 1 is_stmt 1 view -0
 282              		.cfi_startproc
 283              		@ args = 0, pretend = 0, frame = 0
 284              		@ frame_needed = 0, uses_anonymous_args = 0
 285              		@ link register save eliminated.
ARM GAS  /tmp/ccRmczbm.s 			page 8


 118:/home/dat/Documents/colir_one/rocket_code/Middlewares/Third_Party/FatFs/src/ff_gen_drv.c ****   return disk.nbr;
 286              		.loc 1 118 3 view .LVU75
 287              		.loc 1 118 14 is_stmt 0 view .LVU76
 288 0000 014B     		ldr	r3, .L21
 289 0002 587A     		ldrb	r0, [r3, #9]	@ zero_extendqisi2
 119:/home/dat/Documents/colir_one/rocket_code/Middlewares/Third_Party/FatFs/src/ff_gen_drv.c **** }
 290              		.loc 1 119 1 view .LVU77
 291 0004 7047     		bx	lr
 292              	.L22:
 293 0006 00BF     		.align	2
 294              	.L21:
 295 0008 00000000 		.word	disk
 296              		.cfi_endproc
 297              	.LFE138:
 299              		.global	disk
 300              		.section	.bss.disk,"aw",%nobits
 301              		.align	2
 304              	disk:
 305 0000 00000000 		.space	12
 305      00000000 
 305      00000000 
 306              		.text
 307              	.Letext0:
 308              		.file 2 "/home/dat/Documents/colir_one/rocket_code/Middlewares/Third_Party/FatFs/src/integer.h"
 309              		.file 3 "/home/dat/Documents/colir_one/rocket_code/Middlewares/Third_Party/FatFs/src/diskio.h"
 310              		.file 4 "/home/dat/.config/Code/User/globalStorage/litaitech.stm32-colir-one/@xpack-dev-tools/arm-
 311              		.file 5 "/home/dat/.config/Code/User/globalStorage/litaitech.stm32-colir-one/@xpack-dev-tools/arm-
 312              		.file 6 "/home/dat/Documents/colir_one/rocket_code/Middlewares/Third_Party/FatFs/src/ff_gen_drv.h"
ARM GAS  /tmp/ccRmczbm.s 			page 9

