ARM GAS  /tmp/cc6uACF9.s 			page 1


   1              		.cpu cortex-m4
   2              		.arch armv7e-m
   3              		.fpu fpv4-sp-d16
   4              		.eabi_attribute 27, 1
   5              		.eabi_attribute 28, 1
   6              		.eabi_attribute 20, 1
   7              		.eabi_attribute 21, 1
   8              		.eabi_attribute 23, 3
   9              		.eabi_attribute 24, 1
  10              		.eabi_attribute 25, 1
  11              		.eabi_attribute 26, 1
  12              		.eabi_attribute 30, 1
  13              		.eabi_attribute 34, 1
  14              		.eabi_attribute 18, 4
  15              		.file	"usbd_core.c"
  16              		.text
  17              	.Ltext0:
  18              		.cfi_sections	.debug_frame
  19              		.file 1 "/home/dat/Documents/colir_one/rocket_code/Middlewares/ST/STM32_USB_Device_Library/Core/Sr
  20              		.section	.text.USBD_Init,"ax",%progbits
  21              		.align	1
  22              		.global	USBD_Init
  23              		.syntax unified
  24              		.thumb
  25              		.thumb_func
  27              	USBD_Init:
  28              	.LVL0:
  29              	.LFB138:
   1:/home/dat/Documents/colir_one/rocket_code/Middlewares/ST/STM32_USB_Device_Library/Core/Src/usbd_core.c **** /**
   2:/home/dat/Documents/colir_one/rocket_code/Middlewares/ST/STM32_USB_Device_Library/Core/Src/usbd_core.c ****   ******************************************************************************
   3:/home/dat/Documents/colir_one/rocket_code/Middlewares/ST/STM32_USB_Device_Library/Core/Src/usbd_core.c ****   * @file    usbd_core.c
   4:/home/dat/Documents/colir_one/rocket_code/Middlewares/ST/STM32_USB_Device_Library/Core/Src/usbd_core.c ****   * @author  MCD Application Team
   5:/home/dat/Documents/colir_one/rocket_code/Middlewares/ST/STM32_USB_Device_Library/Core/Src/usbd_core.c ****   * @brief   This file provides all the USBD core functions.
   6:/home/dat/Documents/colir_one/rocket_code/Middlewares/ST/STM32_USB_Device_Library/Core/Src/usbd_core.c ****   ******************************************************************************
   7:/home/dat/Documents/colir_one/rocket_code/Middlewares/ST/STM32_USB_Device_Library/Core/Src/usbd_core.c ****   * @attention
   8:/home/dat/Documents/colir_one/rocket_code/Middlewares/ST/STM32_USB_Device_Library/Core/Src/usbd_core.c ****   *
   9:/home/dat/Documents/colir_one/rocket_code/Middlewares/ST/STM32_USB_Device_Library/Core/Src/usbd_core.c ****   * Copyright (c) 2015 STMicroelectronics.
  10:/home/dat/Documents/colir_one/rocket_code/Middlewares/ST/STM32_USB_Device_Library/Core/Src/usbd_core.c ****   * All rights reserved.
  11:/home/dat/Documents/colir_one/rocket_code/Middlewares/ST/STM32_USB_Device_Library/Core/Src/usbd_core.c ****   *
  12:/home/dat/Documents/colir_one/rocket_code/Middlewares/ST/STM32_USB_Device_Library/Core/Src/usbd_core.c ****   * This software is licensed under terms that can be found in the LICENSE file
  13:/home/dat/Documents/colir_one/rocket_code/Middlewares/ST/STM32_USB_Device_Library/Core/Src/usbd_core.c ****   * in the root directory of this software component.
  14:/home/dat/Documents/colir_one/rocket_code/Middlewares/ST/STM32_USB_Device_Library/Core/Src/usbd_core.c ****   * If no LICENSE file comes with this software, it is provided AS-IS.
  15:/home/dat/Documents/colir_one/rocket_code/Middlewares/ST/STM32_USB_Device_Library/Core/Src/usbd_core.c ****   *
  16:/home/dat/Documents/colir_one/rocket_code/Middlewares/ST/STM32_USB_Device_Library/Core/Src/usbd_core.c ****   ******************************************************************************
  17:/home/dat/Documents/colir_one/rocket_code/Middlewares/ST/STM32_USB_Device_Library/Core/Src/usbd_core.c ****   */
  18:/home/dat/Documents/colir_one/rocket_code/Middlewares/ST/STM32_USB_Device_Library/Core/Src/usbd_core.c **** 
  19:/home/dat/Documents/colir_one/rocket_code/Middlewares/ST/STM32_USB_Device_Library/Core/Src/usbd_core.c **** /* Includes ------------------------------------------------------------------*/
  20:/home/dat/Documents/colir_one/rocket_code/Middlewares/ST/STM32_USB_Device_Library/Core/Src/usbd_core.c **** #include "usbd_core.h"
  21:/home/dat/Documents/colir_one/rocket_code/Middlewares/ST/STM32_USB_Device_Library/Core/Src/usbd_core.c **** 
  22:/home/dat/Documents/colir_one/rocket_code/Middlewares/ST/STM32_USB_Device_Library/Core/Src/usbd_core.c **** #ifdef USE_USBD_COMPOSITE
  23:/home/dat/Documents/colir_one/rocket_code/Middlewares/ST/STM32_USB_Device_Library/Core/Src/usbd_core.c **** #include "usbd_composite_builder.h"
  24:/home/dat/Documents/colir_one/rocket_code/Middlewares/ST/STM32_USB_Device_Library/Core/Src/usbd_core.c **** #endif /* USE_USBD_COMPOSITE */
  25:/home/dat/Documents/colir_one/rocket_code/Middlewares/ST/STM32_USB_Device_Library/Core/Src/usbd_core.c **** 
  26:/home/dat/Documents/colir_one/rocket_code/Middlewares/ST/STM32_USB_Device_Library/Core/Src/usbd_core.c **** /** @addtogroup STM32_USBD_DEVICE_LIBRARY
  27:/home/dat/Documents/colir_one/rocket_code/Middlewares/ST/STM32_USB_Device_Library/Core/Src/usbd_core.c ****   * @{
  28:/home/dat/Documents/colir_one/rocket_code/Middlewares/ST/STM32_USB_Device_Library/Core/Src/usbd_core.c ****   */
  29:/home/dat/Documents/colir_one/rocket_code/Middlewares/ST/STM32_USB_Device_Library/Core/Src/usbd_core.c **** 
ARM GAS  /tmp/cc6uACF9.s 			page 2


  30:/home/dat/Documents/colir_one/rocket_code/Middlewares/ST/STM32_USB_Device_Library/Core/Src/usbd_core.c **** 
  31:/home/dat/Documents/colir_one/rocket_code/Middlewares/ST/STM32_USB_Device_Library/Core/Src/usbd_core.c **** /** @defgroup USBD_CORE
  32:/home/dat/Documents/colir_one/rocket_code/Middlewares/ST/STM32_USB_Device_Library/Core/Src/usbd_core.c ****   * @brief usbd core module
  33:/home/dat/Documents/colir_one/rocket_code/Middlewares/ST/STM32_USB_Device_Library/Core/Src/usbd_core.c ****   * @{
  34:/home/dat/Documents/colir_one/rocket_code/Middlewares/ST/STM32_USB_Device_Library/Core/Src/usbd_core.c ****   */
  35:/home/dat/Documents/colir_one/rocket_code/Middlewares/ST/STM32_USB_Device_Library/Core/Src/usbd_core.c **** 
  36:/home/dat/Documents/colir_one/rocket_code/Middlewares/ST/STM32_USB_Device_Library/Core/Src/usbd_core.c **** /** @defgroup USBD_CORE_Private_TypesDefinitions
  37:/home/dat/Documents/colir_one/rocket_code/Middlewares/ST/STM32_USB_Device_Library/Core/Src/usbd_core.c ****   * @{
  38:/home/dat/Documents/colir_one/rocket_code/Middlewares/ST/STM32_USB_Device_Library/Core/Src/usbd_core.c ****   */
  39:/home/dat/Documents/colir_one/rocket_code/Middlewares/ST/STM32_USB_Device_Library/Core/Src/usbd_core.c **** 
  40:/home/dat/Documents/colir_one/rocket_code/Middlewares/ST/STM32_USB_Device_Library/Core/Src/usbd_core.c **** /**
  41:/home/dat/Documents/colir_one/rocket_code/Middlewares/ST/STM32_USB_Device_Library/Core/Src/usbd_core.c ****   * @}
  42:/home/dat/Documents/colir_one/rocket_code/Middlewares/ST/STM32_USB_Device_Library/Core/Src/usbd_core.c ****   */
  43:/home/dat/Documents/colir_one/rocket_code/Middlewares/ST/STM32_USB_Device_Library/Core/Src/usbd_core.c **** 
  44:/home/dat/Documents/colir_one/rocket_code/Middlewares/ST/STM32_USB_Device_Library/Core/Src/usbd_core.c **** 
  45:/home/dat/Documents/colir_one/rocket_code/Middlewares/ST/STM32_USB_Device_Library/Core/Src/usbd_core.c **** /** @defgroup USBD_CORE_Private_Defines
  46:/home/dat/Documents/colir_one/rocket_code/Middlewares/ST/STM32_USB_Device_Library/Core/Src/usbd_core.c ****   * @{
  47:/home/dat/Documents/colir_one/rocket_code/Middlewares/ST/STM32_USB_Device_Library/Core/Src/usbd_core.c ****   */
  48:/home/dat/Documents/colir_one/rocket_code/Middlewares/ST/STM32_USB_Device_Library/Core/Src/usbd_core.c **** 
  49:/home/dat/Documents/colir_one/rocket_code/Middlewares/ST/STM32_USB_Device_Library/Core/Src/usbd_core.c **** /**
  50:/home/dat/Documents/colir_one/rocket_code/Middlewares/ST/STM32_USB_Device_Library/Core/Src/usbd_core.c ****   * @}
  51:/home/dat/Documents/colir_one/rocket_code/Middlewares/ST/STM32_USB_Device_Library/Core/Src/usbd_core.c ****   */
  52:/home/dat/Documents/colir_one/rocket_code/Middlewares/ST/STM32_USB_Device_Library/Core/Src/usbd_core.c **** 
  53:/home/dat/Documents/colir_one/rocket_code/Middlewares/ST/STM32_USB_Device_Library/Core/Src/usbd_core.c **** 
  54:/home/dat/Documents/colir_one/rocket_code/Middlewares/ST/STM32_USB_Device_Library/Core/Src/usbd_core.c **** /** @defgroup USBD_CORE_Private_Macros
  55:/home/dat/Documents/colir_one/rocket_code/Middlewares/ST/STM32_USB_Device_Library/Core/Src/usbd_core.c ****   * @{
  56:/home/dat/Documents/colir_one/rocket_code/Middlewares/ST/STM32_USB_Device_Library/Core/Src/usbd_core.c ****   */
  57:/home/dat/Documents/colir_one/rocket_code/Middlewares/ST/STM32_USB_Device_Library/Core/Src/usbd_core.c **** 
  58:/home/dat/Documents/colir_one/rocket_code/Middlewares/ST/STM32_USB_Device_Library/Core/Src/usbd_core.c **** /**
  59:/home/dat/Documents/colir_one/rocket_code/Middlewares/ST/STM32_USB_Device_Library/Core/Src/usbd_core.c ****   * @}
  60:/home/dat/Documents/colir_one/rocket_code/Middlewares/ST/STM32_USB_Device_Library/Core/Src/usbd_core.c ****   */
  61:/home/dat/Documents/colir_one/rocket_code/Middlewares/ST/STM32_USB_Device_Library/Core/Src/usbd_core.c **** 
  62:/home/dat/Documents/colir_one/rocket_code/Middlewares/ST/STM32_USB_Device_Library/Core/Src/usbd_core.c **** 
  63:/home/dat/Documents/colir_one/rocket_code/Middlewares/ST/STM32_USB_Device_Library/Core/Src/usbd_core.c **** /** @defgroup USBD_CORE_Private_FunctionPrototypes
  64:/home/dat/Documents/colir_one/rocket_code/Middlewares/ST/STM32_USB_Device_Library/Core/Src/usbd_core.c ****   * @{
  65:/home/dat/Documents/colir_one/rocket_code/Middlewares/ST/STM32_USB_Device_Library/Core/Src/usbd_core.c ****   */
  66:/home/dat/Documents/colir_one/rocket_code/Middlewares/ST/STM32_USB_Device_Library/Core/Src/usbd_core.c **** 
  67:/home/dat/Documents/colir_one/rocket_code/Middlewares/ST/STM32_USB_Device_Library/Core/Src/usbd_core.c **** /**
  68:/home/dat/Documents/colir_one/rocket_code/Middlewares/ST/STM32_USB_Device_Library/Core/Src/usbd_core.c ****   * @}
  69:/home/dat/Documents/colir_one/rocket_code/Middlewares/ST/STM32_USB_Device_Library/Core/Src/usbd_core.c ****   */
  70:/home/dat/Documents/colir_one/rocket_code/Middlewares/ST/STM32_USB_Device_Library/Core/Src/usbd_core.c **** 
  71:/home/dat/Documents/colir_one/rocket_code/Middlewares/ST/STM32_USB_Device_Library/Core/Src/usbd_core.c **** /** @defgroup USBD_CORE_Private_Variables
  72:/home/dat/Documents/colir_one/rocket_code/Middlewares/ST/STM32_USB_Device_Library/Core/Src/usbd_core.c ****   * @{
  73:/home/dat/Documents/colir_one/rocket_code/Middlewares/ST/STM32_USB_Device_Library/Core/Src/usbd_core.c ****   */
  74:/home/dat/Documents/colir_one/rocket_code/Middlewares/ST/STM32_USB_Device_Library/Core/Src/usbd_core.c **** 
  75:/home/dat/Documents/colir_one/rocket_code/Middlewares/ST/STM32_USB_Device_Library/Core/Src/usbd_core.c **** /**
  76:/home/dat/Documents/colir_one/rocket_code/Middlewares/ST/STM32_USB_Device_Library/Core/Src/usbd_core.c ****   * @}
  77:/home/dat/Documents/colir_one/rocket_code/Middlewares/ST/STM32_USB_Device_Library/Core/Src/usbd_core.c ****   */
  78:/home/dat/Documents/colir_one/rocket_code/Middlewares/ST/STM32_USB_Device_Library/Core/Src/usbd_core.c **** 
  79:/home/dat/Documents/colir_one/rocket_code/Middlewares/ST/STM32_USB_Device_Library/Core/Src/usbd_core.c **** 
  80:/home/dat/Documents/colir_one/rocket_code/Middlewares/ST/STM32_USB_Device_Library/Core/Src/usbd_core.c **** /** @defgroup USBD_CORE_Private_Functions
  81:/home/dat/Documents/colir_one/rocket_code/Middlewares/ST/STM32_USB_Device_Library/Core/Src/usbd_core.c ****   * @{
  82:/home/dat/Documents/colir_one/rocket_code/Middlewares/ST/STM32_USB_Device_Library/Core/Src/usbd_core.c ****   */
  83:/home/dat/Documents/colir_one/rocket_code/Middlewares/ST/STM32_USB_Device_Library/Core/Src/usbd_core.c **** 
  84:/home/dat/Documents/colir_one/rocket_code/Middlewares/ST/STM32_USB_Device_Library/Core/Src/usbd_core.c **** /**
  85:/home/dat/Documents/colir_one/rocket_code/Middlewares/ST/STM32_USB_Device_Library/Core/Src/usbd_core.c ****   * @brief  USBD_Init
  86:/home/dat/Documents/colir_one/rocket_code/Middlewares/ST/STM32_USB_Device_Library/Core/Src/usbd_core.c ****   *         Initialize the device stack and load the class driver
ARM GAS  /tmp/cc6uACF9.s 			page 3


  87:/home/dat/Documents/colir_one/rocket_code/Middlewares/ST/STM32_USB_Device_Library/Core/Src/usbd_core.c ****   * @param  pdev: device instance
  88:/home/dat/Documents/colir_one/rocket_code/Middlewares/ST/STM32_USB_Device_Library/Core/Src/usbd_core.c ****   * @param  pdesc: Descriptor structure address
  89:/home/dat/Documents/colir_one/rocket_code/Middlewares/ST/STM32_USB_Device_Library/Core/Src/usbd_core.c ****   * @param  id: Low level core index
  90:/home/dat/Documents/colir_one/rocket_code/Middlewares/ST/STM32_USB_Device_Library/Core/Src/usbd_core.c ****   * @retval status: USBD Status
  91:/home/dat/Documents/colir_one/rocket_code/Middlewares/ST/STM32_USB_Device_Library/Core/Src/usbd_core.c ****   */
  92:/home/dat/Documents/colir_one/rocket_code/Middlewares/ST/STM32_USB_Device_Library/Core/Src/usbd_core.c **** USBD_StatusTypeDef USBD_Init(USBD_HandleTypeDef *pdev,
  93:/home/dat/Documents/colir_one/rocket_code/Middlewares/ST/STM32_USB_Device_Library/Core/Src/usbd_core.c ****                              USBD_DescriptorsTypeDef *pdesc, uint8_t id)
  94:/home/dat/Documents/colir_one/rocket_code/Middlewares/ST/STM32_USB_Device_Library/Core/Src/usbd_core.c **** {
  30              		.loc 1 94 1 view -0
  31              		.cfi_startproc
  32              		@ args = 0, pretend = 0, frame = 0
  33              		@ frame_needed = 0, uses_anonymous_args = 0
  95:/home/dat/Documents/colir_one/rocket_code/Middlewares/ST/STM32_USB_Device_Library/Core/Src/usbd_core.c ****   USBD_StatusTypeDef ret;
  34              		.loc 1 95 3 view .LVU1
  96:/home/dat/Documents/colir_one/rocket_code/Middlewares/ST/STM32_USB_Device_Library/Core/Src/usbd_core.c **** 
  97:/home/dat/Documents/colir_one/rocket_code/Middlewares/ST/STM32_USB_Device_Library/Core/Src/usbd_core.c ****   /* Check whether the USB Host handle is valid */
  98:/home/dat/Documents/colir_one/rocket_code/Middlewares/ST/STM32_USB_Device_Library/Core/Src/usbd_core.c ****   if (pdev == NULL)
  35              		.loc 1 98 3 view .LVU2
  36              		.loc 1 98 6 is_stmt 0 view .LVU3
  37 0000 98B1     		cbz	r0, .L4
  94:/home/dat/Documents/colir_one/rocket_code/Middlewares/ST/STM32_USB_Device_Library/Core/Src/usbd_core.c ****   USBD_StatusTypeDef ret;
  38              		.loc 1 94 1 view .LVU4
  39 0002 08B5     		push	{r3, lr}
  40              	.LCFI0:
  41              		.cfi_def_cfa_offset 8
  42              		.cfi_offset 3, -8
  43              		.cfi_offset 14, -4
  44 0004 0346     		mov	r3, r0
  99:/home/dat/Documents/colir_one/rocket_code/Middlewares/ST/STM32_USB_Device_Library/Core/Src/usbd_core.c ****   {
 100:/home/dat/Documents/colir_one/rocket_code/Middlewares/ST/STM32_USB_Device_Library/Core/Src/usbd_core.c **** #if (USBD_DEBUG_LEVEL > 1U)
 101:/home/dat/Documents/colir_one/rocket_code/Middlewares/ST/STM32_USB_Device_Library/Core/Src/usbd_core.c ****     USBD_ErrLog("Invalid Device handle");
 102:/home/dat/Documents/colir_one/rocket_code/Middlewares/ST/STM32_USB_Device_Library/Core/Src/usbd_core.c **** #endif /* (USBD_DEBUG_LEVEL > 1U) */
 103:/home/dat/Documents/colir_one/rocket_code/Middlewares/ST/STM32_USB_Device_Library/Core/Src/usbd_core.c ****     return USBD_FAIL;
 104:/home/dat/Documents/colir_one/rocket_code/Middlewares/ST/STM32_USB_Device_Library/Core/Src/usbd_core.c ****   }
 105:/home/dat/Documents/colir_one/rocket_code/Middlewares/ST/STM32_USB_Device_Library/Core/Src/usbd_core.c **** 
 106:/home/dat/Documents/colir_one/rocket_code/Middlewares/ST/STM32_USB_Device_Library/Core/Src/usbd_core.c **** #ifdef USE_USBD_COMPOSITE
 107:/home/dat/Documents/colir_one/rocket_code/Middlewares/ST/STM32_USB_Device_Library/Core/Src/usbd_core.c ****   /* Parse the table of classes in use */
 108:/home/dat/Documents/colir_one/rocket_code/Middlewares/ST/STM32_USB_Device_Library/Core/Src/usbd_core.c ****   for (uint32_t i = 0; i < USBD_MAX_SUPPORTED_CLASS; i++)
 109:/home/dat/Documents/colir_one/rocket_code/Middlewares/ST/STM32_USB_Device_Library/Core/Src/usbd_core.c ****   {
 110:/home/dat/Documents/colir_one/rocket_code/Middlewares/ST/STM32_USB_Device_Library/Core/Src/usbd_core.c ****     /* Unlink previous class*/
 111:/home/dat/Documents/colir_one/rocket_code/Middlewares/ST/STM32_USB_Device_Library/Core/Src/usbd_core.c ****     pdev->pClass[i] = NULL;
 112:/home/dat/Documents/colir_one/rocket_code/Middlewares/ST/STM32_USB_Device_Library/Core/Src/usbd_core.c ****     pdev->pUserData[i] = NULL;
 113:/home/dat/Documents/colir_one/rocket_code/Middlewares/ST/STM32_USB_Device_Library/Core/Src/usbd_core.c **** 
 114:/home/dat/Documents/colir_one/rocket_code/Middlewares/ST/STM32_USB_Device_Library/Core/Src/usbd_core.c ****     /* Set class as inactive */
 115:/home/dat/Documents/colir_one/rocket_code/Middlewares/ST/STM32_USB_Device_Library/Core/Src/usbd_core.c ****     pdev->tclasslist[i].Active = 0;
 116:/home/dat/Documents/colir_one/rocket_code/Middlewares/ST/STM32_USB_Device_Library/Core/Src/usbd_core.c ****     pdev->NumClasses = 0;
 117:/home/dat/Documents/colir_one/rocket_code/Middlewares/ST/STM32_USB_Device_Library/Core/Src/usbd_core.c ****     pdev->classId = 0;
 118:/home/dat/Documents/colir_one/rocket_code/Middlewares/ST/STM32_USB_Device_Library/Core/Src/usbd_core.c ****   }
 119:/home/dat/Documents/colir_one/rocket_code/Middlewares/ST/STM32_USB_Device_Library/Core/Src/usbd_core.c **** #else
 120:/home/dat/Documents/colir_one/rocket_code/Middlewares/ST/STM32_USB_Device_Library/Core/Src/usbd_core.c ****   /* Unlink previous class*/
 121:/home/dat/Documents/colir_one/rocket_code/Middlewares/ST/STM32_USB_Device_Library/Core/Src/usbd_core.c ****   pdev->pClass[0] = NULL;
  45              		.loc 1 121 3 is_stmt 1 view .LVU5
  46              		.loc 1 121 19 is_stmt 0 view .LVU6
  47 0006 0020     		movs	r0, #0
  48              	.LVL1:
  49              		.loc 1 121 19 view .LVU7
  50 0008 C3F8B802 		str	r0, [r3, #696]
ARM GAS  /tmp/cc6uACF9.s 			page 4


 122:/home/dat/Documents/colir_one/rocket_code/Middlewares/ST/STM32_USB_Device_Library/Core/Src/usbd_core.c ****   pdev->pUserData[0] = NULL;
  51              		.loc 1 122 3 is_stmt 1 view .LVU8
  52              		.loc 1 122 22 is_stmt 0 view .LVU9
  53 000c C3F8C402 		str	r0, [r3, #708]
 123:/home/dat/Documents/colir_one/rocket_code/Middlewares/ST/STM32_USB_Device_Library/Core/Src/usbd_core.c **** #endif /* USE_USBD_COMPOSITE */
 124:/home/dat/Documents/colir_one/rocket_code/Middlewares/ST/STM32_USB_Device_Library/Core/Src/usbd_core.c **** 
 125:/home/dat/Documents/colir_one/rocket_code/Middlewares/ST/STM32_USB_Device_Library/Core/Src/usbd_core.c ****   pdev->pConfDesc = NULL;
  54              		.loc 1 125 3 is_stmt 1 view .LVU10
  55              		.loc 1 125 19 is_stmt 0 view .LVU11
  56 0010 C3F8D002 		str	r0, [r3, #720]
 126:/home/dat/Documents/colir_one/rocket_code/Middlewares/ST/STM32_USB_Device_Library/Core/Src/usbd_core.c **** 
 127:/home/dat/Documents/colir_one/rocket_code/Middlewares/ST/STM32_USB_Device_Library/Core/Src/usbd_core.c ****   /* Assign USBD Descriptors */
 128:/home/dat/Documents/colir_one/rocket_code/Middlewares/ST/STM32_USB_Device_Library/Core/Src/usbd_core.c ****   if (pdesc != NULL)
  57              		.loc 1 128 3 is_stmt 1 view .LVU12
  58              		.loc 1 128 6 is_stmt 0 view .LVU13
  59 0014 09B1     		cbz	r1, .L3
 129:/home/dat/Documents/colir_one/rocket_code/Middlewares/ST/STM32_USB_Device_Library/Core/Src/usbd_core.c ****   {
 130:/home/dat/Documents/colir_one/rocket_code/Middlewares/ST/STM32_USB_Device_Library/Core/Src/usbd_core.c ****     pdev->pDesc = pdesc;
  60              		.loc 1 130 5 is_stmt 1 view .LVU14
  61              		.loc 1 130 17 is_stmt 0 view .LVU15
  62 0016 C3F8B412 		str	r1, [r3, #692]
  63              	.L3:
 131:/home/dat/Documents/colir_one/rocket_code/Middlewares/ST/STM32_USB_Device_Library/Core/Src/usbd_core.c ****   }
 132:/home/dat/Documents/colir_one/rocket_code/Middlewares/ST/STM32_USB_Device_Library/Core/Src/usbd_core.c **** 
 133:/home/dat/Documents/colir_one/rocket_code/Middlewares/ST/STM32_USB_Device_Library/Core/Src/usbd_core.c ****   /* Set Device initial State */
 134:/home/dat/Documents/colir_one/rocket_code/Middlewares/ST/STM32_USB_Device_Library/Core/Src/usbd_core.c ****   pdev->dev_state = USBD_STATE_DEFAULT;
  64              		.loc 1 134 3 is_stmt 1 view .LVU16
  65              		.loc 1 134 19 is_stmt 0 view .LVU17
  66 001a 0121     		movs	r1, #1
  67              	.LVL2:
  68              		.loc 1 134 19 view .LVU18
  69 001c 83F89C12 		strb	r1, [r3, #668]
 135:/home/dat/Documents/colir_one/rocket_code/Middlewares/ST/STM32_USB_Device_Library/Core/Src/usbd_core.c ****   pdev->id = id;
  70              		.loc 1 135 3 is_stmt 1 view .LVU19
  71              		.loc 1 135 12 is_stmt 0 view .LVU20
  72 0020 1A70     		strb	r2, [r3]
 136:/home/dat/Documents/colir_one/rocket_code/Middlewares/ST/STM32_USB_Device_Library/Core/Src/usbd_core.c **** 
 137:/home/dat/Documents/colir_one/rocket_code/Middlewares/ST/STM32_USB_Device_Library/Core/Src/usbd_core.c ****   /* Initialize low level driver */
 138:/home/dat/Documents/colir_one/rocket_code/Middlewares/ST/STM32_USB_Device_Library/Core/Src/usbd_core.c ****   ret = USBD_LL_Init(pdev);
  73              		.loc 1 138 3 is_stmt 1 view .LVU21
  74              		.loc 1 138 9 is_stmt 0 view .LVU22
  75 0022 1846     		mov	r0, r3
  76 0024 FFF7FEFF 		bl	USBD_LL_Init
  77              	.LVL3:
 139:/home/dat/Documents/colir_one/rocket_code/Middlewares/ST/STM32_USB_Device_Library/Core/Src/usbd_core.c **** 
 140:/home/dat/Documents/colir_one/rocket_code/Middlewares/ST/STM32_USB_Device_Library/Core/Src/usbd_core.c ****   return ret;
  78              		.loc 1 140 3 is_stmt 1 view .LVU23
 141:/home/dat/Documents/colir_one/rocket_code/Middlewares/ST/STM32_USB_Device_Library/Core/Src/usbd_core.c **** }
  79              		.loc 1 141 1 is_stmt 0 view .LVU24
  80 0028 08BD     		pop	{r3, pc}
  81              	.LVL4:
  82              	.L4:
  83              	.LCFI1:
  84              		.cfi_def_cfa_offset 0
  85              		.cfi_restore 3
  86              		.cfi_restore 14
 103:/home/dat/Documents/colir_one/rocket_code/Middlewares/ST/STM32_USB_Device_Library/Core/Src/usbd_core.c ****   }
ARM GAS  /tmp/cc6uACF9.s 			page 5


  87              		.loc 1 103 12 view .LVU25
  88 002a 0320     		movs	r0, #3
  89              	.LVL5:
  90              		.loc 1 141 1 view .LVU26
  91 002c 7047     		bx	lr
  92              		.cfi_endproc
  93              	.LFE138:
  95              		.section	.text.USBD_DeInit,"ax",%progbits
  96              		.align	1
  97              		.global	USBD_DeInit
  98              		.syntax unified
  99              		.thumb
 100              		.thumb_func
 102              	USBD_DeInit:
 103              	.LVL6:
 104              	.LFB139:
 142:/home/dat/Documents/colir_one/rocket_code/Middlewares/ST/STM32_USB_Device_Library/Core/Src/usbd_core.c **** 
 143:/home/dat/Documents/colir_one/rocket_code/Middlewares/ST/STM32_USB_Device_Library/Core/Src/usbd_core.c **** /**
 144:/home/dat/Documents/colir_one/rocket_code/Middlewares/ST/STM32_USB_Device_Library/Core/Src/usbd_core.c ****   * @brief  USBD_DeInit
 145:/home/dat/Documents/colir_one/rocket_code/Middlewares/ST/STM32_USB_Device_Library/Core/Src/usbd_core.c ****   *         De-Initialize the device library
 146:/home/dat/Documents/colir_one/rocket_code/Middlewares/ST/STM32_USB_Device_Library/Core/Src/usbd_core.c ****   * @param  pdev: device instance
 147:/home/dat/Documents/colir_one/rocket_code/Middlewares/ST/STM32_USB_Device_Library/Core/Src/usbd_core.c ****   * @retval status: USBD Status
 148:/home/dat/Documents/colir_one/rocket_code/Middlewares/ST/STM32_USB_Device_Library/Core/Src/usbd_core.c ****   */
 149:/home/dat/Documents/colir_one/rocket_code/Middlewares/ST/STM32_USB_Device_Library/Core/Src/usbd_core.c **** USBD_StatusTypeDef USBD_DeInit(USBD_HandleTypeDef *pdev)
 150:/home/dat/Documents/colir_one/rocket_code/Middlewares/ST/STM32_USB_Device_Library/Core/Src/usbd_core.c **** {
 105              		.loc 1 150 1 is_stmt 1 view -0
 106              		.cfi_startproc
 107              		@ args = 0, pretend = 0, frame = 0
 108              		@ frame_needed = 0, uses_anonymous_args = 0
 109              		.loc 1 150 1 is_stmt 0 view .LVU28
 110 0000 10B5     		push	{r4, lr}
 111              	.LCFI2:
 112              		.cfi_def_cfa_offset 8
 113              		.cfi_offset 4, -8
 114              		.cfi_offset 14, -4
 115 0002 0446     		mov	r4, r0
 151:/home/dat/Documents/colir_one/rocket_code/Middlewares/ST/STM32_USB_Device_Library/Core/Src/usbd_core.c ****   USBD_StatusTypeDef ret;
 116              		.loc 1 151 3 is_stmt 1 view .LVU29
 152:/home/dat/Documents/colir_one/rocket_code/Middlewares/ST/STM32_USB_Device_Library/Core/Src/usbd_core.c **** 
 153:/home/dat/Documents/colir_one/rocket_code/Middlewares/ST/STM32_USB_Device_Library/Core/Src/usbd_core.c ****   /* Disconnect the USB Device */
 154:/home/dat/Documents/colir_one/rocket_code/Middlewares/ST/STM32_USB_Device_Library/Core/Src/usbd_core.c ****   (void)USBD_LL_Stop(pdev);
 117              		.loc 1 154 3 view .LVU30
 118              		.loc 1 154 9 is_stmt 0 view .LVU31
 119 0004 FFF7FEFF 		bl	USBD_LL_Stop
 120              	.LVL7:
 155:/home/dat/Documents/colir_one/rocket_code/Middlewares/ST/STM32_USB_Device_Library/Core/Src/usbd_core.c **** 
 156:/home/dat/Documents/colir_one/rocket_code/Middlewares/ST/STM32_USB_Device_Library/Core/Src/usbd_core.c ****   /* Set Default State */
 157:/home/dat/Documents/colir_one/rocket_code/Middlewares/ST/STM32_USB_Device_Library/Core/Src/usbd_core.c ****   pdev->dev_state = USBD_STATE_DEFAULT;
 121              		.loc 1 157 3 is_stmt 1 view .LVU32
 122              		.loc 1 157 19 is_stmt 0 view .LVU33
 123 0008 0123     		movs	r3, #1
 124 000a 84F89C32 		strb	r3, [r4, #668]
 158:/home/dat/Documents/colir_one/rocket_code/Middlewares/ST/STM32_USB_Device_Library/Core/Src/usbd_core.c **** 
 159:/home/dat/Documents/colir_one/rocket_code/Middlewares/ST/STM32_USB_Device_Library/Core/Src/usbd_core.c **** #ifdef USE_USBD_COMPOSITE
 160:/home/dat/Documents/colir_one/rocket_code/Middlewares/ST/STM32_USB_Device_Library/Core/Src/usbd_core.c ****   /* Parse the table of classes in use */
 161:/home/dat/Documents/colir_one/rocket_code/Middlewares/ST/STM32_USB_Device_Library/Core/Src/usbd_core.c ****   for (uint32_t i = 0; i < USBD_MAX_SUPPORTED_CLASS; i++)
 162:/home/dat/Documents/colir_one/rocket_code/Middlewares/ST/STM32_USB_Device_Library/Core/Src/usbd_core.c ****   {
ARM GAS  /tmp/cc6uACF9.s 			page 6


 163:/home/dat/Documents/colir_one/rocket_code/Middlewares/ST/STM32_USB_Device_Library/Core/Src/usbd_core.c ****     /* Check if current class is in use */
 164:/home/dat/Documents/colir_one/rocket_code/Middlewares/ST/STM32_USB_Device_Library/Core/Src/usbd_core.c ****     if ((pdev->tclasslist[i].Active) == 1U)
 165:/home/dat/Documents/colir_one/rocket_code/Middlewares/ST/STM32_USB_Device_Library/Core/Src/usbd_core.c ****     {
 166:/home/dat/Documents/colir_one/rocket_code/Middlewares/ST/STM32_USB_Device_Library/Core/Src/usbd_core.c ****       if (pdev->pClass[i] != NULL)
 167:/home/dat/Documents/colir_one/rocket_code/Middlewares/ST/STM32_USB_Device_Library/Core/Src/usbd_core.c ****       {
 168:/home/dat/Documents/colir_one/rocket_code/Middlewares/ST/STM32_USB_Device_Library/Core/Src/usbd_core.c ****         pdev->classId = i;
 169:/home/dat/Documents/colir_one/rocket_code/Middlewares/ST/STM32_USB_Device_Library/Core/Src/usbd_core.c ****         /* Free Class Resources */
 170:/home/dat/Documents/colir_one/rocket_code/Middlewares/ST/STM32_USB_Device_Library/Core/Src/usbd_core.c ****         pdev->pClass[i]->DeInit(pdev, (uint8_t)pdev->dev_config);
 171:/home/dat/Documents/colir_one/rocket_code/Middlewares/ST/STM32_USB_Device_Library/Core/Src/usbd_core.c ****       }
 172:/home/dat/Documents/colir_one/rocket_code/Middlewares/ST/STM32_USB_Device_Library/Core/Src/usbd_core.c ****     }
 173:/home/dat/Documents/colir_one/rocket_code/Middlewares/ST/STM32_USB_Device_Library/Core/Src/usbd_core.c ****   }
 174:/home/dat/Documents/colir_one/rocket_code/Middlewares/ST/STM32_USB_Device_Library/Core/Src/usbd_core.c **** #else
 175:/home/dat/Documents/colir_one/rocket_code/Middlewares/ST/STM32_USB_Device_Library/Core/Src/usbd_core.c ****   /* Free Class Resources */
 176:/home/dat/Documents/colir_one/rocket_code/Middlewares/ST/STM32_USB_Device_Library/Core/Src/usbd_core.c ****   if (pdev->pClass[0] != NULL)
 125              		.loc 1 176 3 is_stmt 1 view .LVU34
 126              		.loc 1 176 19 is_stmt 0 view .LVU35
 127 000e D4F8B832 		ldr	r3, [r4, #696]
 128              		.loc 1 176 6 view .LVU36
 129 0012 1BB1     		cbz	r3, .L10
 177:/home/dat/Documents/colir_one/rocket_code/Middlewares/ST/STM32_USB_Device_Library/Core/Src/usbd_core.c ****   {
 178:/home/dat/Documents/colir_one/rocket_code/Middlewares/ST/STM32_USB_Device_Library/Core/Src/usbd_core.c ****     pdev->pClass[0]->DeInit(pdev, (uint8_t)pdev->dev_config);
 130              		.loc 1 178 5 is_stmt 1 view .LVU37
 131              		.loc 1 178 20 is_stmt 0 view .LVU38
 132 0014 5B68     		ldr	r3, [r3, #4]
 133              		.loc 1 178 5 view .LVU39
 134 0016 2179     		ldrb	r1, [r4, #4]	@ zero_extendqisi2
 135 0018 2046     		mov	r0, r4
 136 001a 9847     		blx	r3
 137              	.LVL8:
 138              	.L10:
 179:/home/dat/Documents/colir_one/rocket_code/Middlewares/ST/STM32_USB_Device_Library/Core/Src/usbd_core.c ****   }
 180:/home/dat/Documents/colir_one/rocket_code/Middlewares/ST/STM32_USB_Device_Library/Core/Src/usbd_core.c **** 
 181:/home/dat/Documents/colir_one/rocket_code/Middlewares/ST/STM32_USB_Device_Library/Core/Src/usbd_core.c ****   pdev->pUserData[0] = NULL;
 139              		.loc 1 181 3 is_stmt 1 view .LVU40
 140              		.loc 1 181 22 is_stmt 0 view .LVU41
 141 001c 0023     		movs	r3, #0
 142 001e C4F8C432 		str	r3, [r4, #708]
 182:/home/dat/Documents/colir_one/rocket_code/Middlewares/ST/STM32_USB_Device_Library/Core/Src/usbd_core.c **** 
 183:/home/dat/Documents/colir_one/rocket_code/Middlewares/ST/STM32_USB_Device_Library/Core/Src/usbd_core.c **** #endif /* USE_USBD_COMPOSITE */
 184:/home/dat/Documents/colir_one/rocket_code/Middlewares/ST/STM32_USB_Device_Library/Core/Src/usbd_core.c **** 
 185:/home/dat/Documents/colir_one/rocket_code/Middlewares/ST/STM32_USB_Device_Library/Core/Src/usbd_core.c ****   /* Free Device descriptors resources */
 186:/home/dat/Documents/colir_one/rocket_code/Middlewares/ST/STM32_USB_Device_Library/Core/Src/usbd_core.c ****   pdev->pDesc = NULL;
 143              		.loc 1 186 3 is_stmt 1 view .LVU42
 144              		.loc 1 186 15 is_stmt 0 view .LVU43
 145 0022 C4F8B432 		str	r3, [r4, #692]
 187:/home/dat/Documents/colir_one/rocket_code/Middlewares/ST/STM32_USB_Device_Library/Core/Src/usbd_core.c ****   pdev->pConfDesc = NULL;
 146              		.loc 1 187 3 is_stmt 1 view .LVU44
 147              		.loc 1 187 19 is_stmt 0 view .LVU45
 148 0026 C4F8D032 		str	r3, [r4, #720]
 188:/home/dat/Documents/colir_one/rocket_code/Middlewares/ST/STM32_USB_Device_Library/Core/Src/usbd_core.c **** 
 189:/home/dat/Documents/colir_one/rocket_code/Middlewares/ST/STM32_USB_Device_Library/Core/Src/usbd_core.c ****   /* DeInitialize low level driver */
 190:/home/dat/Documents/colir_one/rocket_code/Middlewares/ST/STM32_USB_Device_Library/Core/Src/usbd_core.c ****   ret = USBD_LL_DeInit(pdev);
 149              		.loc 1 190 3 is_stmt 1 view .LVU46
 150              		.loc 1 190 9 is_stmt 0 view .LVU47
 151 002a 2046     		mov	r0, r4
 152 002c FFF7FEFF 		bl	USBD_LL_DeInit
 153              	.LVL9:
ARM GAS  /tmp/cc6uACF9.s 			page 7


 191:/home/dat/Documents/colir_one/rocket_code/Middlewares/ST/STM32_USB_Device_Library/Core/Src/usbd_core.c **** 
 192:/home/dat/Documents/colir_one/rocket_code/Middlewares/ST/STM32_USB_Device_Library/Core/Src/usbd_core.c ****   return ret;
 154              		.loc 1 192 3 is_stmt 1 view .LVU48
 193:/home/dat/Documents/colir_one/rocket_code/Middlewares/ST/STM32_USB_Device_Library/Core/Src/usbd_core.c **** }
 155              		.loc 1 193 1 is_stmt 0 view .LVU49
 156 0030 10BD     		pop	{r4, pc}
 157              		.loc 1 193 1 view .LVU50
 158              		.cfi_endproc
 159              	.LFE139:
 161              		.section	.text.USBD_RegisterClass,"ax",%progbits
 162              		.align	1
 163              		.global	USBD_RegisterClass
 164              		.syntax unified
 165              		.thumb
 166              		.thumb_func
 168              	USBD_RegisterClass:
 169              	.LVL10:
 170              	.LFB140:
 194:/home/dat/Documents/colir_one/rocket_code/Middlewares/ST/STM32_USB_Device_Library/Core/Src/usbd_core.c **** 
 195:/home/dat/Documents/colir_one/rocket_code/Middlewares/ST/STM32_USB_Device_Library/Core/Src/usbd_core.c **** /**
 196:/home/dat/Documents/colir_one/rocket_code/Middlewares/ST/STM32_USB_Device_Library/Core/Src/usbd_core.c ****   * @brief  USBD_RegisterClass
 197:/home/dat/Documents/colir_one/rocket_code/Middlewares/ST/STM32_USB_Device_Library/Core/Src/usbd_core.c ****   *         Link class driver to Device Core.
 198:/home/dat/Documents/colir_one/rocket_code/Middlewares/ST/STM32_USB_Device_Library/Core/Src/usbd_core.c ****   * @param  pdev: Device Handle
 199:/home/dat/Documents/colir_one/rocket_code/Middlewares/ST/STM32_USB_Device_Library/Core/Src/usbd_core.c ****   * @param  pclass: Class handle
 200:/home/dat/Documents/colir_one/rocket_code/Middlewares/ST/STM32_USB_Device_Library/Core/Src/usbd_core.c ****   * @retval USBD Status
 201:/home/dat/Documents/colir_one/rocket_code/Middlewares/ST/STM32_USB_Device_Library/Core/Src/usbd_core.c ****   */
 202:/home/dat/Documents/colir_one/rocket_code/Middlewares/ST/STM32_USB_Device_Library/Core/Src/usbd_core.c **** USBD_StatusTypeDef USBD_RegisterClass(USBD_HandleTypeDef *pdev, USBD_ClassTypeDef *pclass)
 203:/home/dat/Documents/colir_one/rocket_code/Middlewares/ST/STM32_USB_Device_Library/Core/Src/usbd_core.c **** {
 171              		.loc 1 203 1 is_stmt 1 view -0
 172              		.cfi_startproc
 173              		@ args = 0, pretend = 0, frame = 8
 174              		@ frame_needed = 0, uses_anonymous_args = 0
 175              		.loc 1 203 1 is_stmt 0 view .LVU52
 176 0000 10B5     		push	{r4, lr}
 177              	.LCFI3:
 178              		.cfi_def_cfa_offset 8
 179              		.cfi_offset 4, -8
 180              		.cfi_offset 14, -4
 181 0002 82B0     		sub	sp, sp, #8
 182              	.LCFI4:
 183              		.cfi_def_cfa_offset 16
 204:/home/dat/Documents/colir_one/rocket_code/Middlewares/ST/STM32_USB_Device_Library/Core/Src/usbd_core.c ****   uint16_t len = 0U;
 184              		.loc 1 204 3 is_stmt 1 view .LVU53
 185              		.loc 1 204 12 is_stmt 0 view .LVU54
 186 0004 0023     		movs	r3, #0
 187 0006 ADF80630 		strh	r3, [sp, #6]	@ movhi
 205:/home/dat/Documents/colir_one/rocket_code/Middlewares/ST/STM32_USB_Device_Library/Core/Src/usbd_core.c **** 
 206:/home/dat/Documents/colir_one/rocket_code/Middlewares/ST/STM32_USB_Device_Library/Core/Src/usbd_core.c ****   if (pclass == NULL)
 188              		.loc 1 206 3 is_stmt 1 view .LVU55
 189              		.loc 1 206 6 is_stmt 0 view .LVU56
 190 000a B9B1     		cbz	r1, .L15
 191 000c 0446     		mov	r4, r0
 207:/home/dat/Documents/colir_one/rocket_code/Middlewares/ST/STM32_USB_Device_Library/Core/Src/usbd_core.c ****   {
 208:/home/dat/Documents/colir_one/rocket_code/Middlewares/ST/STM32_USB_Device_Library/Core/Src/usbd_core.c **** #if (USBD_DEBUG_LEVEL > 1U)
 209:/home/dat/Documents/colir_one/rocket_code/Middlewares/ST/STM32_USB_Device_Library/Core/Src/usbd_core.c ****     USBD_ErrLog("Invalid Class handle");
 210:/home/dat/Documents/colir_one/rocket_code/Middlewares/ST/STM32_USB_Device_Library/Core/Src/usbd_core.c **** #endif /* (USBD_DEBUG_LEVEL > 1U) */
 211:/home/dat/Documents/colir_one/rocket_code/Middlewares/ST/STM32_USB_Device_Library/Core/Src/usbd_core.c ****     return USBD_FAIL;
ARM GAS  /tmp/cc6uACF9.s 			page 8


 212:/home/dat/Documents/colir_one/rocket_code/Middlewares/ST/STM32_USB_Device_Library/Core/Src/usbd_core.c ****   }
 213:/home/dat/Documents/colir_one/rocket_code/Middlewares/ST/STM32_USB_Device_Library/Core/Src/usbd_core.c **** 
 214:/home/dat/Documents/colir_one/rocket_code/Middlewares/ST/STM32_USB_Device_Library/Core/Src/usbd_core.c ****   /* link the class to the USB Device handle */
 215:/home/dat/Documents/colir_one/rocket_code/Middlewares/ST/STM32_USB_Device_Library/Core/Src/usbd_core.c ****   pdev->pClass[0] = pclass;
 192              		.loc 1 215 3 is_stmt 1 view .LVU57
 193              		.loc 1 215 19 is_stmt 0 view .LVU58
 194 000e C0F8B812 		str	r1, [r0, #696]
 216:/home/dat/Documents/colir_one/rocket_code/Middlewares/ST/STM32_USB_Device_Library/Core/Src/usbd_core.c **** 
 217:/home/dat/Documents/colir_one/rocket_code/Middlewares/ST/STM32_USB_Device_Library/Core/Src/usbd_core.c ****   /* Get Device Configuration Descriptor */
 218:/home/dat/Documents/colir_one/rocket_code/Middlewares/ST/STM32_USB_Device_Library/Core/Src/usbd_core.c **** #ifdef USE_USB_HS
 219:/home/dat/Documents/colir_one/rocket_code/Middlewares/ST/STM32_USB_Device_Library/Core/Src/usbd_core.c ****   if (pdev->pClass[pdev->classId]->GetHSConfigDescriptor != NULL)
 220:/home/dat/Documents/colir_one/rocket_code/Middlewares/ST/STM32_USB_Device_Library/Core/Src/usbd_core.c ****   {
 221:/home/dat/Documents/colir_one/rocket_code/Middlewares/ST/STM32_USB_Device_Library/Core/Src/usbd_core.c ****     pdev->pConfDesc = (void *)pdev->pClass[pdev->classId]->GetHSConfigDescriptor(&len);
 222:/home/dat/Documents/colir_one/rocket_code/Middlewares/ST/STM32_USB_Device_Library/Core/Src/usbd_core.c ****   }
 223:/home/dat/Documents/colir_one/rocket_code/Middlewares/ST/STM32_USB_Device_Library/Core/Src/usbd_core.c **** #else /* Default USE_USB_FS */
 224:/home/dat/Documents/colir_one/rocket_code/Middlewares/ST/STM32_USB_Device_Library/Core/Src/usbd_core.c ****   if (pdev->pClass[pdev->classId]->GetFSConfigDescriptor != NULL)
 195              		.loc 1 224 3 is_stmt 1 view .LVU59
 196              		.loc 1 224 24 is_stmt 0 view .LVU60
 197 0012 D0F8D422 		ldr	r2, [r0, #724]
 198              		.loc 1 224 34 view .LVU61
 199 0016 CB6A     		ldr	r3, [r1, #44]
 200              		.loc 1 224 6 view .LVU62
 201 0018 43B1     		cbz	r3, .L14
 225:/home/dat/Documents/colir_one/rocket_code/Middlewares/ST/STM32_USB_Device_Library/Core/Src/usbd_core.c ****   {
 226:/home/dat/Documents/colir_one/rocket_code/Middlewares/ST/STM32_USB_Device_Library/Core/Src/usbd_core.c ****     pdev->pConfDesc = (void *)pdev->pClass[pdev->classId]->GetFSConfigDescriptor(&len);
 202              		.loc 1 226 5 is_stmt 1 view .LVU63
 203              		.loc 1 226 43 is_stmt 0 view .LVU64
 204 001a AE32     		adds	r2, r2, #174
 205 001c 50F82230 		ldr	r3, [r0, r2, lsl #2]
 206              		.loc 1 226 58 view .LVU65
 207 0020 DB6A     		ldr	r3, [r3, #44]
 208              		.loc 1 226 31 view .LVU66
 209 0022 0DF10600 		add	r0, sp, #6
 210              	.LVL11:
 211              		.loc 1 226 31 view .LVU67
 212 0026 9847     		blx	r3
 213              	.LVL12:
 214              		.loc 1 226 21 discriminator 1 view .LVU68
 215 0028 C4F8D002 		str	r0, [r4, #720]
 216              	.L14:
 227:/home/dat/Documents/colir_one/rocket_code/Middlewares/ST/STM32_USB_Device_Library/Core/Src/usbd_core.c ****   }
 228:/home/dat/Documents/colir_one/rocket_code/Middlewares/ST/STM32_USB_Device_Library/Core/Src/usbd_core.c **** #endif /* USE_USB_FS */
 229:/home/dat/Documents/colir_one/rocket_code/Middlewares/ST/STM32_USB_Device_Library/Core/Src/usbd_core.c **** 
 230:/home/dat/Documents/colir_one/rocket_code/Middlewares/ST/STM32_USB_Device_Library/Core/Src/usbd_core.c ****   /* Increment the NumClasses */
 231:/home/dat/Documents/colir_one/rocket_code/Middlewares/ST/STM32_USB_Device_Library/Core/Src/usbd_core.c ****   pdev->NumClasses++;
 217              		.loc 1 231 3 is_stmt 1 view .LVU69
 218              		.loc 1 231 7 is_stmt 0 view .LVU70
 219 002c D4F8D832 		ldr	r3, [r4, #728]
 220              		.loc 1 231 19 view .LVU71
 221 0030 0133     		adds	r3, r3, #1
 222 0032 C4F8D832 		str	r3, [r4, #728]
 232:/home/dat/Documents/colir_one/rocket_code/Middlewares/ST/STM32_USB_Device_Library/Core/Src/usbd_core.c **** 
 233:/home/dat/Documents/colir_one/rocket_code/Middlewares/ST/STM32_USB_Device_Library/Core/Src/usbd_core.c ****   return USBD_OK;
 223              		.loc 1 233 3 is_stmt 1 view .LVU72
 224              		.loc 1 233 10 is_stmt 0 view .LVU73
 225 0036 0020     		movs	r0, #0
 226              	.LVL13:
ARM GAS  /tmp/cc6uACF9.s 			page 9


 227              	.L13:
 234:/home/dat/Documents/colir_one/rocket_code/Middlewares/ST/STM32_USB_Device_Library/Core/Src/usbd_core.c **** }
 228              		.loc 1 234 1 view .LVU74
 229 0038 02B0     		add	sp, sp, #8
 230              	.LCFI5:
 231              		.cfi_remember_state
 232              		.cfi_def_cfa_offset 8
 233              		@ sp needed
 234 003a 10BD     		pop	{r4, pc}
 235              	.LVL14:
 236              	.L15:
 237              	.LCFI6:
 238              		.cfi_restore_state
 211:/home/dat/Documents/colir_one/rocket_code/Middlewares/ST/STM32_USB_Device_Library/Core/Src/usbd_core.c ****   }
 239              		.loc 1 211 12 view .LVU75
 240 003c 0320     		movs	r0, #3
 241              	.LVL15:
 211:/home/dat/Documents/colir_one/rocket_code/Middlewares/ST/STM32_USB_Device_Library/Core/Src/usbd_core.c ****   }
 242              		.loc 1 211 12 view .LVU76
 243 003e FBE7     		b	.L13
 244              		.cfi_endproc
 245              	.LFE140:
 247              		.section	.text.USBD_Start,"ax",%progbits
 248              		.align	1
 249              		.global	USBD_Start
 250              		.syntax unified
 251              		.thumb
 252              		.thumb_func
 254              	USBD_Start:
 255              	.LVL16:
 256              	.LFB141:
 235:/home/dat/Documents/colir_one/rocket_code/Middlewares/ST/STM32_USB_Device_Library/Core/Src/usbd_core.c **** 
 236:/home/dat/Documents/colir_one/rocket_code/Middlewares/ST/STM32_USB_Device_Library/Core/Src/usbd_core.c **** #ifdef USE_USBD_COMPOSITE
 237:/home/dat/Documents/colir_one/rocket_code/Middlewares/ST/STM32_USB_Device_Library/Core/Src/usbd_core.c **** /**
 238:/home/dat/Documents/colir_one/rocket_code/Middlewares/ST/STM32_USB_Device_Library/Core/Src/usbd_core.c ****   * @brief  USBD_RegisterClassComposite
 239:/home/dat/Documents/colir_one/rocket_code/Middlewares/ST/STM32_USB_Device_Library/Core/Src/usbd_core.c ****   *         Link class driver to Device Core.
 240:/home/dat/Documents/colir_one/rocket_code/Middlewares/ST/STM32_USB_Device_Library/Core/Src/usbd_core.c ****   * @param  pdev : Device Handle
 241:/home/dat/Documents/colir_one/rocket_code/Middlewares/ST/STM32_USB_Device_Library/Core/Src/usbd_core.c ****   * @param  pclass: Class handle
 242:/home/dat/Documents/colir_one/rocket_code/Middlewares/ST/STM32_USB_Device_Library/Core/Src/usbd_core.c ****   * @param  classtype: Class type
 243:/home/dat/Documents/colir_one/rocket_code/Middlewares/ST/STM32_USB_Device_Library/Core/Src/usbd_core.c ****   * @param  EpAddr: Endpoint Address handle
 244:/home/dat/Documents/colir_one/rocket_code/Middlewares/ST/STM32_USB_Device_Library/Core/Src/usbd_core.c ****   * @retval USBD Status
 245:/home/dat/Documents/colir_one/rocket_code/Middlewares/ST/STM32_USB_Device_Library/Core/Src/usbd_core.c ****   */
 246:/home/dat/Documents/colir_one/rocket_code/Middlewares/ST/STM32_USB_Device_Library/Core/Src/usbd_core.c **** USBD_StatusTypeDef USBD_RegisterClassComposite(USBD_HandleTypeDef *pdev, USBD_ClassTypeDef *pclass,
 247:/home/dat/Documents/colir_one/rocket_code/Middlewares/ST/STM32_USB_Device_Library/Core/Src/usbd_core.c ****                                                USBD_CompositeClassTypeDef classtype, uint8_t *EpAdd
 248:/home/dat/Documents/colir_one/rocket_code/Middlewares/ST/STM32_USB_Device_Library/Core/Src/usbd_core.c **** {
 249:/home/dat/Documents/colir_one/rocket_code/Middlewares/ST/STM32_USB_Device_Library/Core/Src/usbd_core.c ****   USBD_StatusTypeDef ret = USBD_OK;
 250:/home/dat/Documents/colir_one/rocket_code/Middlewares/ST/STM32_USB_Device_Library/Core/Src/usbd_core.c ****   uint16_t len = 0U;
 251:/home/dat/Documents/colir_one/rocket_code/Middlewares/ST/STM32_USB_Device_Library/Core/Src/usbd_core.c **** 
 252:/home/dat/Documents/colir_one/rocket_code/Middlewares/ST/STM32_USB_Device_Library/Core/Src/usbd_core.c ****   if ((pdev->classId < USBD_MAX_SUPPORTED_CLASS) && (pdev->NumClasses < USBD_MAX_SUPPORTED_CLASS))
 253:/home/dat/Documents/colir_one/rocket_code/Middlewares/ST/STM32_USB_Device_Library/Core/Src/usbd_core.c ****   {
 254:/home/dat/Documents/colir_one/rocket_code/Middlewares/ST/STM32_USB_Device_Library/Core/Src/usbd_core.c ****     if ((uint32_t)pclass != 0U)
 255:/home/dat/Documents/colir_one/rocket_code/Middlewares/ST/STM32_USB_Device_Library/Core/Src/usbd_core.c ****     {
 256:/home/dat/Documents/colir_one/rocket_code/Middlewares/ST/STM32_USB_Device_Library/Core/Src/usbd_core.c ****       /* Link the class to the USB Device handle */
 257:/home/dat/Documents/colir_one/rocket_code/Middlewares/ST/STM32_USB_Device_Library/Core/Src/usbd_core.c ****       pdev->pClass[pdev->classId] = pclass;
 258:/home/dat/Documents/colir_one/rocket_code/Middlewares/ST/STM32_USB_Device_Library/Core/Src/usbd_core.c ****       ret = USBD_OK;
 259:/home/dat/Documents/colir_one/rocket_code/Middlewares/ST/STM32_USB_Device_Library/Core/Src/usbd_core.c **** 
 260:/home/dat/Documents/colir_one/rocket_code/Middlewares/ST/STM32_USB_Device_Library/Core/Src/usbd_core.c ****       pdev->tclasslist[pdev->classId].EpAdd = EpAddr;
ARM GAS  /tmp/cc6uACF9.s 			page 10


 261:/home/dat/Documents/colir_one/rocket_code/Middlewares/ST/STM32_USB_Device_Library/Core/Src/usbd_core.c **** 
 262:/home/dat/Documents/colir_one/rocket_code/Middlewares/ST/STM32_USB_Device_Library/Core/Src/usbd_core.c ****       /* Call the composite class builder */
 263:/home/dat/Documents/colir_one/rocket_code/Middlewares/ST/STM32_USB_Device_Library/Core/Src/usbd_core.c ****       (void)USBD_CMPSIT_AddClass(pdev, pclass, classtype, 0);
 264:/home/dat/Documents/colir_one/rocket_code/Middlewares/ST/STM32_USB_Device_Library/Core/Src/usbd_core.c **** 
 265:/home/dat/Documents/colir_one/rocket_code/Middlewares/ST/STM32_USB_Device_Library/Core/Src/usbd_core.c ****       /* Increment the ClassId for the next occurrence */
 266:/home/dat/Documents/colir_one/rocket_code/Middlewares/ST/STM32_USB_Device_Library/Core/Src/usbd_core.c ****       pdev->classId ++;
 267:/home/dat/Documents/colir_one/rocket_code/Middlewares/ST/STM32_USB_Device_Library/Core/Src/usbd_core.c ****       pdev->NumClasses ++;
 268:/home/dat/Documents/colir_one/rocket_code/Middlewares/ST/STM32_USB_Device_Library/Core/Src/usbd_core.c ****     }
 269:/home/dat/Documents/colir_one/rocket_code/Middlewares/ST/STM32_USB_Device_Library/Core/Src/usbd_core.c ****     else
 270:/home/dat/Documents/colir_one/rocket_code/Middlewares/ST/STM32_USB_Device_Library/Core/Src/usbd_core.c ****     {
 271:/home/dat/Documents/colir_one/rocket_code/Middlewares/ST/STM32_USB_Device_Library/Core/Src/usbd_core.c **** #if (USBD_DEBUG_LEVEL > 1U)
 272:/home/dat/Documents/colir_one/rocket_code/Middlewares/ST/STM32_USB_Device_Library/Core/Src/usbd_core.c ****       USBD_ErrLog("Invalid Class handle");
 273:/home/dat/Documents/colir_one/rocket_code/Middlewares/ST/STM32_USB_Device_Library/Core/Src/usbd_core.c **** #endif /* (USBD_DEBUG_LEVEL > 1U) */
 274:/home/dat/Documents/colir_one/rocket_code/Middlewares/ST/STM32_USB_Device_Library/Core/Src/usbd_core.c ****       ret = USBD_FAIL;
 275:/home/dat/Documents/colir_one/rocket_code/Middlewares/ST/STM32_USB_Device_Library/Core/Src/usbd_core.c ****     }
 276:/home/dat/Documents/colir_one/rocket_code/Middlewares/ST/STM32_USB_Device_Library/Core/Src/usbd_core.c ****   }
 277:/home/dat/Documents/colir_one/rocket_code/Middlewares/ST/STM32_USB_Device_Library/Core/Src/usbd_core.c **** 
 278:/home/dat/Documents/colir_one/rocket_code/Middlewares/ST/STM32_USB_Device_Library/Core/Src/usbd_core.c ****   if (ret == USBD_OK)
 279:/home/dat/Documents/colir_one/rocket_code/Middlewares/ST/STM32_USB_Device_Library/Core/Src/usbd_core.c ****   {
 280:/home/dat/Documents/colir_one/rocket_code/Middlewares/ST/STM32_USB_Device_Library/Core/Src/usbd_core.c ****     /* Get Device Configuration Descriptor */
 281:/home/dat/Documents/colir_one/rocket_code/Middlewares/ST/STM32_USB_Device_Library/Core/Src/usbd_core.c **** #ifdef USE_USB_HS
 282:/home/dat/Documents/colir_one/rocket_code/Middlewares/ST/STM32_USB_Device_Library/Core/Src/usbd_core.c ****     pdev->pConfDesc = USBD_CMPSIT.GetHSConfigDescriptor(&len);
 283:/home/dat/Documents/colir_one/rocket_code/Middlewares/ST/STM32_USB_Device_Library/Core/Src/usbd_core.c **** #else /* Default USE_USB_FS */
 284:/home/dat/Documents/colir_one/rocket_code/Middlewares/ST/STM32_USB_Device_Library/Core/Src/usbd_core.c ****     pdev->pConfDesc = USBD_CMPSIT.GetFSConfigDescriptor(&len);
 285:/home/dat/Documents/colir_one/rocket_code/Middlewares/ST/STM32_USB_Device_Library/Core/Src/usbd_core.c **** #endif /* USE_USB_FS */
 286:/home/dat/Documents/colir_one/rocket_code/Middlewares/ST/STM32_USB_Device_Library/Core/Src/usbd_core.c ****   }
 287:/home/dat/Documents/colir_one/rocket_code/Middlewares/ST/STM32_USB_Device_Library/Core/Src/usbd_core.c **** 
 288:/home/dat/Documents/colir_one/rocket_code/Middlewares/ST/STM32_USB_Device_Library/Core/Src/usbd_core.c ****   return ret;
 289:/home/dat/Documents/colir_one/rocket_code/Middlewares/ST/STM32_USB_Device_Library/Core/Src/usbd_core.c **** }
 290:/home/dat/Documents/colir_one/rocket_code/Middlewares/ST/STM32_USB_Device_Library/Core/Src/usbd_core.c **** 
 291:/home/dat/Documents/colir_one/rocket_code/Middlewares/ST/STM32_USB_Device_Library/Core/Src/usbd_core.c **** /**
 292:/home/dat/Documents/colir_one/rocket_code/Middlewares/ST/STM32_USB_Device_Library/Core/Src/usbd_core.c ****   * @brief  USBD_UnRegisterClassComposite
 293:/home/dat/Documents/colir_one/rocket_code/Middlewares/ST/STM32_USB_Device_Library/Core/Src/usbd_core.c ****   *         UnLink all composite class drivers from Device Core.
 294:/home/dat/Documents/colir_one/rocket_code/Middlewares/ST/STM32_USB_Device_Library/Core/Src/usbd_core.c ****   * @param  pdev: Device Handle
 295:/home/dat/Documents/colir_one/rocket_code/Middlewares/ST/STM32_USB_Device_Library/Core/Src/usbd_core.c ****   * @retval USBD Status
 296:/home/dat/Documents/colir_one/rocket_code/Middlewares/ST/STM32_USB_Device_Library/Core/Src/usbd_core.c ****   */
 297:/home/dat/Documents/colir_one/rocket_code/Middlewares/ST/STM32_USB_Device_Library/Core/Src/usbd_core.c **** USBD_StatusTypeDef  USBD_UnRegisterClassComposite(USBD_HandleTypeDef *pdev)
 298:/home/dat/Documents/colir_one/rocket_code/Middlewares/ST/STM32_USB_Device_Library/Core/Src/usbd_core.c **** {
 299:/home/dat/Documents/colir_one/rocket_code/Middlewares/ST/STM32_USB_Device_Library/Core/Src/usbd_core.c ****   USBD_StatusTypeDef   ret = USBD_FAIL;
 300:/home/dat/Documents/colir_one/rocket_code/Middlewares/ST/STM32_USB_Device_Library/Core/Src/usbd_core.c ****   uint8_t idx1;
 301:/home/dat/Documents/colir_one/rocket_code/Middlewares/ST/STM32_USB_Device_Library/Core/Src/usbd_core.c ****   uint8_t idx2;
 302:/home/dat/Documents/colir_one/rocket_code/Middlewares/ST/STM32_USB_Device_Library/Core/Src/usbd_core.c **** 
 303:/home/dat/Documents/colir_one/rocket_code/Middlewares/ST/STM32_USB_Device_Library/Core/Src/usbd_core.c ****   /* Unroll all activated classes */
 304:/home/dat/Documents/colir_one/rocket_code/Middlewares/ST/STM32_USB_Device_Library/Core/Src/usbd_core.c ****   for (idx1 = 0; idx1 < pdev->NumClasses; idx1++)
 305:/home/dat/Documents/colir_one/rocket_code/Middlewares/ST/STM32_USB_Device_Library/Core/Src/usbd_core.c ****   {
 306:/home/dat/Documents/colir_one/rocket_code/Middlewares/ST/STM32_USB_Device_Library/Core/Src/usbd_core.c ****     /* Check if the class correspond to the requested type and if it is active */
 307:/home/dat/Documents/colir_one/rocket_code/Middlewares/ST/STM32_USB_Device_Library/Core/Src/usbd_core.c ****     if (pdev->tclasslist[idx1].Active == 1U)
 308:/home/dat/Documents/colir_one/rocket_code/Middlewares/ST/STM32_USB_Device_Library/Core/Src/usbd_core.c ****     {
 309:/home/dat/Documents/colir_one/rocket_code/Middlewares/ST/STM32_USB_Device_Library/Core/Src/usbd_core.c ****       /* Set the new class ID */
 310:/home/dat/Documents/colir_one/rocket_code/Middlewares/ST/STM32_USB_Device_Library/Core/Src/usbd_core.c ****       pdev->classId = idx1;
 311:/home/dat/Documents/colir_one/rocket_code/Middlewares/ST/STM32_USB_Device_Library/Core/Src/usbd_core.c **** 
 312:/home/dat/Documents/colir_one/rocket_code/Middlewares/ST/STM32_USB_Device_Library/Core/Src/usbd_core.c ****       /* Free resources used by the selected class */
 313:/home/dat/Documents/colir_one/rocket_code/Middlewares/ST/STM32_USB_Device_Library/Core/Src/usbd_core.c ****       if (pdev->pClass[pdev->classId] != NULL)
 314:/home/dat/Documents/colir_one/rocket_code/Middlewares/ST/STM32_USB_Device_Library/Core/Src/usbd_core.c ****       {
 315:/home/dat/Documents/colir_one/rocket_code/Middlewares/ST/STM32_USB_Device_Library/Core/Src/usbd_core.c ****         /* Free Class Resources */
 316:/home/dat/Documents/colir_one/rocket_code/Middlewares/ST/STM32_USB_Device_Library/Core/Src/usbd_core.c ****         if (pdev->pClass[pdev->classId]->DeInit(pdev, (uint8_t)pdev->dev_config) != 0U)
 317:/home/dat/Documents/colir_one/rocket_code/Middlewares/ST/STM32_USB_Device_Library/Core/Src/usbd_core.c ****         {
ARM GAS  /tmp/cc6uACF9.s 			page 11


 318:/home/dat/Documents/colir_one/rocket_code/Middlewares/ST/STM32_USB_Device_Library/Core/Src/usbd_core.c **** #if (USBD_DEBUG_LEVEL > 1U)
 319:/home/dat/Documents/colir_one/rocket_code/Middlewares/ST/STM32_USB_Device_Library/Core/Src/usbd_core.c ****           USBD_ErrLog("Class DeInit didn't succeed!, can't unregister selected class");
 320:/home/dat/Documents/colir_one/rocket_code/Middlewares/ST/STM32_USB_Device_Library/Core/Src/usbd_core.c **** #endif /* (USBD_DEBUG_LEVEL > 1U) */
 321:/home/dat/Documents/colir_one/rocket_code/Middlewares/ST/STM32_USB_Device_Library/Core/Src/usbd_core.c **** 
 322:/home/dat/Documents/colir_one/rocket_code/Middlewares/ST/STM32_USB_Device_Library/Core/Src/usbd_core.c ****           ret = USBD_FAIL;
 323:/home/dat/Documents/colir_one/rocket_code/Middlewares/ST/STM32_USB_Device_Library/Core/Src/usbd_core.c ****         }
 324:/home/dat/Documents/colir_one/rocket_code/Middlewares/ST/STM32_USB_Device_Library/Core/Src/usbd_core.c ****       }
 325:/home/dat/Documents/colir_one/rocket_code/Middlewares/ST/STM32_USB_Device_Library/Core/Src/usbd_core.c **** 
 326:/home/dat/Documents/colir_one/rocket_code/Middlewares/ST/STM32_USB_Device_Library/Core/Src/usbd_core.c ****       /* Free the class pointer */
 327:/home/dat/Documents/colir_one/rocket_code/Middlewares/ST/STM32_USB_Device_Library/Core/Src/usbd_core.c ****       pdev->pClass[pdev->classId] = NULL;
 328:/home/dat/Documents/colir_one/rocket_code/Middlewares/ST/STM32_USB_Device_Library/Core/Src/usbd_core.c **** 
 329:/home/dat/Documents/colir_one/rocket_code/Middlewares/ST/STM32_USB_Device_Library/Core/Src/usbd_core.c ****       /* Free the class location in classes table and reset its parameters to zero */
 330:/home/dat/Documents/colir_one/rocket_code/Middlewares/ST/STM32_USB_Device_Library/Core/Src/usbd_core.c ****       pdev->tclasslist[pdev->classId].ClassType = CLASS_TYPE_NONE;
 331:/home/dat/Documents/colir_one/rocket_code/Middlewares/ST/STM32_USB_Device_Library/Core/Src/usbd_core.c ****       pdev->tclasslist[pdev->classId].ClassId = 0U;
 332:/home/dat/Documents/colir_one/rocket_code/Middlewares/ST/STM32_USB_Device_Library/Core/Src/usbd_core.c ****       pdev->tclasslist[pdev->classId].Active = 0U;
 333:/home/dat/Documents/colir_one/rocket_code/Middlewares/ST/STM32_USB_Device_Library/Core/Src/usbd_core.c ****       pdev->tclasslist[pdev->classId].NumEps = 0U;
 334:/home/dat/Documents/colir_one/rocket_code/Middlewares/ST/STM32_USB_Device_Library/Core/Src/usbd_core.c ****       pdev->tclasslist[pdev->classId].NumIf = 0U;
 335:/home/dat/Documents/colir_one/rocket_code/Middlewares/ST/STM32_USB_Device_Library/Core/Src/usbd_core.c ****       pdev->tclasslist[pdev->classId].CurrPcktSze = 0U;
 336:/home/dat/Documents/colir_one/rocket_code/Middlewares/ST/STM32_USB_Device_Library/Core/Src/usbd_core.c **** 
 337:/home/dat/Documents/colir_one/rocket_code/Middlewares/ST/STM32_USB_Device_Library/Core/Src/usbd_core.c ****       for (idx2 = 0U; idx2 < USBD_MAX_CLASS_ENDPOINTS; idx2++)
 338:/home/dat/Documents/colir_one/rocket_code/Middlewares/ST/STM32_USB_Device_Library/Core/Src/usbd_core.c ****       {
 339:/home/dat/Documents/colir_one/rocket_code/Middlewares/ST/STM32_USB_Device_Library/Core/Src/usbd_core.c ****         pdev->tclasslist[pdev->classId].Eps[idx2].add = 0U;
 340:/home/dat/Documents/colir_one/rocket_code/Middlewares/ST/STM32_USB_Device_Library/Core/Src/usbd_core.c ****         pdev->tclasslist[pdev->classId].Eps[idx2].type = 0U;
 341:/home/dat/Documents/colir_one/rocket_code/Middlewares/ST/STM32_USB_Device_Library/Core/Src/usbd_core.c ****         pdev->tclasslist[pdev->classId].Eps[idx2].size = 0U;
 342:/home/dat/Documents/colir_one/rocket_code/Middlewares/ST/STM32_USB_Device_Library/Core/Src/usbd_core.c ****         pdev->tclasslist[pdev->classId].Eps[idx2].is_used = 0U;
 343:/home/dat/Documents/colir_one/rocket_code/Middlewares/ST/STM32_USB_Device_Library/Core/Src/usbd_core.c ****       }
 344:/home/dat/Documents/colir_one/rocket_code/Middlewares/ST/STM32_USB_Device_Library/Core/Src/usbd_core.c **** 
 345:/home/dat/Documents/colir_one/rocket_code/Middlewares/ST/STM32_USB_Device_Library/Core/Src/usbd_core.c ****       for (idx2 = 0U; idx2 < USBD_MAX_CLASS_INTERFACES; idx2++)
 346:/home/dat/Documents/colir_one/rocket_code/Middlewares/ST/STM32_USB_Device_Library/Core/Src/usbd_core.c ****       {
 347:/home/dat/Documents/colir_one/rocket_code/Middlewares/ST/STM32_USB_Device_Library/Core/Src/usbd_core.c ****         pdev->tclasslist[pdev->classId].Ifs[idx2] = 0U;
 348:/home/dat/Documents/colir_one/rocket_code/Middlewares/ST/STM32_USB_Device_Library/Core/Src/usbd_core.c ****       }
 349:/home/dat/Documents/colir_one/rocket_code/Middlewares/ST/STM32_USB_Device_Library/Core/Src/usbd_core.c ****     }
 350:/home/dat/Documents/colir_one/rocket_code/Middlewares/ST/STM32_USB_Device_Library/Core/Src/usbd_core.c ****   }
 351:/home/dat/Documents/colir_one/rocket_code/Middlewares/ST/STM32_USB_Device_Library/Core/Src/usbd_core.c **** 
 352:/home/dat/Documents/colir_one/rocket_code/Middlewares/ST/STM32_USB_Device_Library/Core/Src/usbd_core.c ****   /* Reset the configuration descriptor */
 353:/home/dat/Documents/colir_one/rocket_code/Middlewares/ST/STM32_USB_Device_Library/Core/Src/usbd_core.c ****   (void)USBD_CMPST_ClearConfDesc(pdev);
 354:/home/dat/Documents/colir_one/rocket_code/Middlewares/ST/STM32_USB_Device_Library/Core/Src/usbd_core.c **** 
 355:/home/dat/Documents/colir_one/rocket_code/Middlewares/ST/STM32_USB_Device_Library/Core/Src/usbd_core.c ****   /* Reset the class ID and number of classes */
 356:/home/dat/Documents/colir_one/rocket_code/Middlewares/ST/STM32_USB_Device_Library/Core/Src/usbd_core.c ****   pdev->classId = 0U;
 357:/home/dat/Documents/colir_one/rocket_code/Middlewares/ST/STM32_USB_Device_Library/Core/Src/usbd_core.c ****   pdev->NumClasses = 0U;
 358:/home/dat/Documents/colir_one/rocket_code/Middlewares/ST/STM32_USB_Device_Library/Core/Src/usbd_core.c **** 
 359:/home/dat/Documents/colir_one/rocket_code/Middlewares/ST/STM32_USB_Device_Library/Core/Src/usbd_core.c ****   return ret;
 360:/home/dat/Documents/colir_one/rocket_code/Middlewares/ST/STM32_USB_Device_Library/Core/Src/usbd_core.c **** }
 361:/home/dat/Documents/colir_one/rocket_code/Middlewares/ST/STM32_USB_Device_Library/Core/Src/usbd_core.c **** #endif /* USE_USBD_COMPOSITE */
 362:/home/dat/Documents/colir_one/rocket_code/Middlewares/ST/STM32_USB_Device_Library/Core/Src/usbd_core.c **** 
 363:/home/dat/Documents/colir_one/rocket_code/Middlewares/ST/STM32_USB_Device_Library/Core/Src/usbd_core.c **** #if (USBD_USER_REGISTER_CALLBACK == 1U)
 364:/home/dat/Documents/colir_one/rocket_code/Middlewares/ST/STM32_USB_Device_Library/Core/Src/usbd_core.c **** /**
 365:/home/dat/Documents/colir_one/rocket_code/Middlewares/ST/STM32_USB_Device_Library/Core/Src/usbd_core.c ****   * @brief  USBD_RegisterDevStateCallback
 366:/home/dat/Documents/colir_one/rocket_code/Middlewares/ST/STM32_USB_Device_Library/Core/Src/usbd_core.c ****   * @param  pdev : Device Handle
 367:/home/dat/Documents/colir_one/rocket_code/Middlewares/ST/STM32_USB_Device_Library/Core/Src/usbd_core.c ****   * @param  pUserCallback: User Callback
 368:/home/dat/Documents/colir_one/rocket_code/Middlewares/ST/STM32_USB_Device_Library/Core/Src/usbd_core.c ****   * @retval USBD Status
 369:/home/dat/Documents/colir_one/rocket_code/Middlewares/ST/STM32_USB_Device_Library/Core/Src/usbd_core.c ****   */
 370:/home/dat/Documents/colir_one/rocket_code/Middlewares/ST/STM32_USB_Device_Library/Core/Src/usbd_core.c **** USBD_StatusTypeDef USBD_RegisterDevStateCallback(USBD_HandleTypeDef *pdev, USBD_DevStateCallbackTyp
 371:/home/dat/Documents/colir_one/rocket_code/Middlewares/ST/STM32_USB_Device_Library/Core/Src/usbd_core.c **** {
 372:/home/dat/Documents/colir_one/rocket_code/Middlewares/ST/STM32_USB_Device_Library/Core/Src/usbd_core.c ****   pdev->DevStateCallback = pUserCallback;
 373:/home/dat/Documents/colir_one/rocket_code/Middlewares/ST/STM32_USB_Device_Library/Core/Src/usbd_core.c **** 
 374:/home/dat/Documents/colir_one/rocket_code/Middlewares/ST/STM32_USB_Device_Library/Core/Src/usbd_core.c ****   return USBD_OK;
ARM GAS  /tmp/cc6uACF9.s 			page 12


 375:/home/dat/Documents/colir_one/rocket_code/Middlewares/ST/STM32_USB_Device_Library/Core/Src/usbd_core.c **** }
 376:/home/dat/Documents/colir_one/rocket_code/Middlewares/ST/STM32_USB_Device_Library/Core/Src/usbd_core.c **** #endif /* USBD_USER_REGISTER_CALLBACK */
 377:/home/dat/Documents/colir_one/rocket_code/Middlewares/ST/STM32_USB_Device_Library/Core/Src/usbd_core.c **** 
 378:/home/dat/Documents/colir_one/rocket_code/Middlewares/ST/STM32_USB_Device_Library/Core/Src/usbd_core.c **** /**
 379:/home/dat/Documents/colir_one/rocket_code/Middlewares/ST/STM32_USB_Device_Library/Core/Src/usbd_core.c ****   * @brief  USBD_Start
 380:/home/dat/Documents/colir_one/rocket_code/Middlewares/ST/STM32_USB_Device_Library/Core/Src/usbd_core.c ****   *         Start the USB Device Core.
 381:/home/dat/Documents/colir_one/rocket_code/Middlewares/ST/STM32_USB_Device_Library/Core/Src/usbd_core.c ****   * @param  pdev: Device Handle
 382:/home/dat/Documents/colir_one/rocket_code/Middlewares/ST/STM32_USB_Device_Library/Core/Src/usbd_core.c ****   * @retval USBD Status
 383:/home/dat/Documents/colir_one/rocket_code/Middlewares/ST/STM32_USB_Device_Library/Core/Src/usbd_core.c ****   */
 384:/home/dat/Documents/colir_one/rocket_code/Middlewares/ST/STM32_USB_Device_Library/Core/Src/usbd_core.c **** USBD_StatusTypeDef USBD_Start(USBD_HandleTypeDef *pdev)
 385:/home/dat/Documents/colir_one/rocket_code/Middlewares/ST/STM32_USB_Device_Library/Core/Src/usbd_core.c **** {
 257              		.loc 1 385 1 is_stmt 1 view -0
 258              		.cfi_startproc
 259              		@ args = 0, pretend = 0, frame = 0
 260              		@ frame_needed = 0, uses_anonymous_args = 0
 261              		.loc 1 385 1 is_stmt 0 view .LVU78
 262 0000 08B5     		push	{r3, lr}
 263              	.LCFI7:
 264              		.cfi_def_cfa_offset 8
 265              		.cfi_offset 3, -8
 266              		.cfi_offset 14, -4
 386:/home/dat/Documents/colir_one/rocket_code/Middlewares/ST/STM32_USB_Device_Library/Core/Src/usbd_core.c **** #ifdef USE_USBD_COMPOSITE
 387:/home/dat/Documents/colir_one/rocket_code/Middlewares/ST/STM32_USB_Device_Library/Core/Src/usbd_core.c ****   pdev->classId = 0U;
 388:/home/dat/Documents/colir_one/rocket_code/Middlewares/ST/STM32_USB_Device_Library/Core/Src/usbd_core.c **** #endif /* USE_USBD_COMPOSITE */
 389:/home/dat/Documents/colir_one/rocket_code/Middlewares/ST/STM32_USB_Device_Library/Core/Src/usbd_core.c **** 
 390:/home/dat/Documents/colir_one/rocket_code/Middlewares/ST/STM32_USB_Device_Library/Core/Src/usbd_core.c ****   /* Start the low level driver  */
 391:/home/dat/Documents/colir_one/rocket_code/Middlewares/ST/STM32_USB_Device_Library/Core/Src/usbd_core.c ****   return USBD_LL_Start(pdev);
 267              		.loc 1 391 3 is_stmt 1 view .LVU79
 268              		.loc 1 391 10 is_stmt 0 view .LVU80
 269 0002 FFF7FEFF 		bl	USBD_LL_Start
 270              	.LVL17:
 392:/home/dat/Documents/colir_one/rocket_code/Middlewares/ST/STM32_USB_Device_Library/Core/Src/usbd_core.c **** }
 271              		.loc 1 392 1 view .LVU81
 272 0006 08BD     		pop	{r3, pc}
 273              		.cfi_endproc
 274              	.LFE141:
 276              		.section	.text.USBD_Stop,"ax",%progbits
 277              		.align	1
 278              		.global	USBD_Stop
 279              		.syntax unified
 280              		.thumb
 281              		.thumb_func
 283              	USBD_Stop:
 284              	.LVL18:
 285              	.LFB142:
 393:/home/dat/Documents/colir_one/rocket_code/Middlewares/ST/STM32_USB_Device_Library/Core/Src/usbd_core.c **** 
 394:/home/dat/Documents/colir_one/rocket_code/Middlewares/ST/STM32_USB_Device_Library/Core/Src/usbd_core.c **** /**
 395:/home/dat/Documents/colir_one/rocket_code/Middlewares/ST/STM32_USB_Device_Library/Core/Src/usbd_core.c ****   * @brief  USBD_Stop
 396:/home/dat/Documents/colir_one/rocket_code/Middlewares/ST/STM32_USB_Device_Library/Core/Src/usbd_core.c ****   *         Stop the USB Device Core.
 397:/home/dat/Documents/colir_one/rocket_code/Middlewares/ST/STM32_USB_Device_Library/Core/Src/usbd_core.c ****   * @param  pdev: Device Handle
 398:/home/dat/Documents/colir_one/rocket_code/Middlewares/ST/STM32_USB_Device_Library/Core/Src/usbd_core.c ****   * @retval USBD Status
 399:/home/dat/Documents/colir_one/rocket_code/Middlewares/ST/STM32_USB_Device_Library/Core/Src/usbd_core.c ****   */
 400:/home/dat/Documents/colir_one/rocket_code/Middlewares/ST/STM32_USB_Device_Library/Core/Src/usbd_core.c **** USBD_StatusTypeDef USBD_Stop(USBD_HandleTypeDef *pdev)
 401:/home/dat/Documents/colir_one/rocket_code/Middlewares/ST/STM32_USB_Device_Library/Core/Src/usbd_core.c **** {
 286              		.loc 1 401 1 is_stmt 1 view -0
 287              		.cfi_startproc
 288              		@ args = 0, pretend = 0, frame = 0
ARM GAS  /tmp/cc6uACF9.s 			page 13


 289              		@ frame_needed = 0, uses_anonymous_args = 0
 290              		.loc 1 401 1 is_stmt 0 view .LVU83
 291 0000 10B5     		push	{r4, lr}
 292              	.LCFI8:
 293              		.cfi_def_cfa_offset 8
 294              		.cfi_offset 4, -8
 295              		.cfi_offset 14, -4
 296 0002 0446     		mov	r4, r0
 402:/home/dat/Documents/colir_one/rocket_code/Middlewares/ST/STM32_USB_Device_Library/Core/Src/usbd_core.c ****   /* Disconnect USB Device */
 403:/home/dat/Documents/colir_one/rocket_code/Middlewares/ST/STM32_USB_Device_Library/Core/Src/usbd_core.c ****   (void)USBD_LL_Stop(pdev);
 297              		.loc 1 403 3 is_stmt 1 view .LVU84
 298              		.loc 1 403 9 is_stmt 0 view .LVU85
 299 0004 FFF7FEFF 		bl	USBD_LL_Stop
 300              	.LVL19:
 404:/home/dat/Documents/colir_one/rocket_code/Middlewares/ST/STM32_USB_Device_Library/Core/Src/usbd_core.c **** 
 405:/home/dat/Documents/colir_one/rocket_code/Middlewares/ST/STM32_USB_Device_Library/Core/Src/usbd_core.c ****   /* Free Class Resources */
 406:/home/dat/Documents/colir_one/rocket_code/Middlewares/ST/STM32_USB_Device_Library/Core/Src/usbd_core.c **** #ifdef USE_USBD_COMPOSITE
 407:/home/dat/Documents/colir_one/rocket_code/Middlewares/ST/STM32_USB_Device_Library/Core/Src/usbd_core.c ****   /* Parse the table of classes in use */
 408:/home/dat/Documents/colir_one/rocket_code/Middlewares/ST/STM32_USB_Device_Library/Core/Src/usbd_core.c ****   for (uint32_t i = 0U; i < USBD_MAX_SUPPORTED_CLASS; i++)
 409:/home/dat/Documents/colir_one/rocket_code/Middlewares/ST/STM32_USB_Device_Library/Core/Src/usbd_core.c ****   {
 410:/home/dat/Documents/colir_one/rocket_code/Middlewares/ST/STM32_USB_Device_Library/Core/Src/usbd_core.c ****     /* Check if current class is in use */
 411:/home/dat/Documents/colir_one/rocket_code/Middlewares/ST/STM32_USB_Device_Library/Core/Src/usbd_core.c ****     if ((pdev->tclasslist[i].Active) == 1U)
 412:/home/dat/Documents/colir_one/rocket_code/Middlewares/ST/STM32_USB_Device_Library/Core/Src/usbd_core.c ****     {
 413:/home/dat/Documents/colir_one/rocket_code/Middlewares/ST/STM32_USB_Device_Library/Core/Src/usbd_core.c ****       if (pdev->pClass[i] != NULL)
 414:/home/dat/Documents/colir_one/rocket_code/Middlewares/ST/STM32_USB_Device_Library/Core/Src/usbd_core.c ****       {
 415:/home/dat/Documents/colir_one/rocket_code/Middlewares/ST/STM32_USB_Device_Library/Core/Src/usbd_core.c ****         pdev->classId = i;
 416:/home/dat/Documents/colir_one/rocket_code/Middlewares/ST/STM32_USB_Device_Library/Core/Src/usbd_core.c ****         /* Free Class Resources */
 417:/home/dat/Documents/colir_one/rocket_code/Middlewares/ST/STM32_USB_Device_Library/Core/Src/usbd_core.c ****         (void)pdev->pClass[i]->DeInit(pdev, (uint8_t)pdev->dev_config);
 418:/home/dat/Documents/colir_one/rocket_code/Middlewares/ST/STM32_USB_Device_Library/Core/Src/usbd_core.c ****       }
 419:/home/dat/Documents/colir_one/rocket_code/Middlewares/ST/STM32_USB_Device_Library/Core/Src/usbd_core.c ****     }
 420:/home/dat/Documents/colir_one/rocket_code/Middlewares/ST/STM32_USB_Device_Library/Core/Src/usbd_core.c ****   }
 421:/home/dat/Documents/colir_one/rocket_code/Middlewares/ST/STM32_USB_Device_Library/Core/Src/usbd_core.c **** 
 422:/home/dat/Documents/colir_one/rocket_code/Middlewares/ST/STM32_USB_Device_Library/Core/Src/usbd_core.c ****   /* Reset the class ID */
 423:/home/dat/Documents/colir_one/rocket_code/Middlewares/ST/STM32_USB_Device_Library/Core/Src/usbd_core.c ****   pdev->classId = 0U;
 424:/home/dat/Documents/colir_one/rocket_code/Middlewares/ST/STM32_USB_Device_Library/Core/Src/usbd_core.c **** #else
 425:/home/dat/Documents/colir_one/rocket_code/Middlewares/ST/STM32_USB_Device_Library/Core/Src/usbd_core.c ****   if (pdev->pClass[0] != NULL)
 301              		.loc 1 425 3 is_stmt 1 view .LVU86
 302              		.loc 1 425 19 is_stmt 0 view .LVU87
 303 0008 D4F8B832 		ldr	r3, [r4, #696]
 304              		.loc 1 425 6 view .LVU88
 305 000c 1BB1     		cbz	r3, .L20
 426:/home/dat/Documents/colir_one/rocket_code/Middlewares/ST/STM32_USB_Device_Library/Core/Src/usbd_core.c ****   {
 427:/home/dat/Documents/colir_one/rocket_code/Middlewares/ST/STM32_USB_Device_Library/Core/Src/usbd_core.c ****     (void)pdev->pClass[0]->DeInit(pdev, (uint8_t)pdev->dev_config);
 306              		.loc 1 427 5 is_stmt 1 view .LVU89
 307              		.loc 1 427 26 is_stmt 0 view .LVU90
 308 000e 5B68     		ldr	r3, [r3, #4]
 309              		.loc 1 427 11 view .LVU91
 310 0010 2179     		ldrb	r1, [r4, #4]	@ zero_extendqisi2
 311 0012 2046     		mov	r0, r4
 312 0014 9847     		blx	r3
 313              	.LVL20:
 314              	.L20:
 428:/home/dat/Documents/colir_one/rocket_code/Middlewares/ST/STM32_USB_Device_Library/Core/Src/usbd_core.c ****   }
 429:/home/dat/Documents/colir_one/rocket_code/Middlewares/ST/STM32_USB_Device_Library/Core/Src/usbd_core.c **** #endif /* USE_USBD_COMPOSITE */
 430:/home/dat/Documents/colir_one/rocket_code/Middlewares/ST/STM32_USB_Device_Library/Core/Src/usbd_core.c **** 
 431:/home/dat/Documents/colir_one/rocket_code/Middlewares/ST/STM32_USB_Device_Library/Core/Src/usbd_core.c ****   return USBD_OK;
 315              		.loc 1 431 3 is_stmt 1 view .LVU92
ARM GAS  /tmp/cc6uACF9.s 			page 14


 432:/home/dat/Documents/colir_one/rocket_code/Middlewares/ST/STM32_USB_Device_Library/Core/Src/usbd_core.c **** }
 316              		.loc 1 432 1 is_stmt 0 view .LVU93
 317 0016 0020     		movs	r0, #0
 318 0018 10BD     		pop	{r4, pc}
 319              		.loc 1 432 1 view .LVU94
 320              		.cfi_endproc
 321              	.LFE142:
 323              		.section	.text.USBD_RunTestMode,"ax",%progbits
 324              		.align	1
 325              		.global	USBD_RunTestMode
 326              		.syntax unified
 327              		.thumb
 328              		.thumb_func
 330              	USBD_RunTestMode:
 331              	.LVL21:
 332              	.LFB143:
 433:/home/dat/Documents/colir_one/rocket_code/Middlewares/ST/STM32_USB_Device_Library/Core/Src/usbd_core.c **** 
 434:/home/dat/Documents/colir_one/rocket_code/Middlewares/ST/STM32_USB_Device_Library/Core/Src/usbd_core.c **** /**
 435:/home/dat/Documents/colir_one/rocket_code/Middlewares/ST/STM32_USB_Device_Library/Core/Src/usbd_core.c ****   * @brief  USBD_RunTestMode
 436:/home/dat/Documents/colir_one/rocket_code/Middlewares/ST/STM32_USB_Device_Library/Core/Src/usbd_core.c ****   *         Launch test mode process
 437:/home/dat/Documents/colir_one/rocket_code/Middlewares/ST/STM32_USB_Device_Library/Core/Src/usbd_core.c ****   * @param  pdev: device instance
 438:/home/dat/Documents/colir_one/rocket_code/Middlewares/ST/STM32_USB_Device_Library/Core/Src/usbd_core.c ****   * @retval status
 439:/home/dat/Documents/colir_one/rocket_code/Middlewares/ST/STM32_USB_Device_Library/Core/Src/usbd_core.c ****   */
 440:/home/dat/Documents/colir_one/rocket_code/Middlewares/ST/STM32_USB_Device_Library/Core/Src/usbd_core.c **** USBD_StatusTypeDef USBD_RunTestMode(USBD_HandleTypeDef *pdev)
 441:/home/dat/Documents/colir_one/rocket_code/Middlewares/ST/STM32_USB_Device_Library/Core/Src/usbd_core.c **** {
 333              		.loc 1 441 1 is_stmt 1 view -0
 334              		.cfi_startproc
 335              		@ args = 0, pretend = 0, frame = 0
 336              		@ frame_needed = 0, uses_anonymous_args = 0
 337              		@ link register save eliminated.
 442:/home/dat/Documents/colir_one/rocket_code/Middlewares/ST/STM32_USB_Device_Library/Core/Src/usbd_core.c **** #ifdef USBD_HS_TESTMODE_ENABLE
 443:/home/dat/Documents/colir_one/rocket_code/Middlewares/ST/STM32_USB_Device_Library/Core/Src/usbd_core.c ****   USBD_StatusTypeDef ret;
 444:/home/dat/Documents/colir_one/rocket_code/Middlewares/ST/STM32_USB_Device_Library/Core/Src/usbd_core.c **** 
 445:/home/dat/Documents/colir_one/rocket_code/Middlewares/ST/STM32_USB_Device_Library/Core/Src/usbd_core.c ****   /* Run USB HS test mode */
 446:/home/dat/Documents/colir_one/rocket_code/Middlewares/ST/STM32_USB_Device_Library/Core/Src/usbd_core.c ****   ret = USBD_LL_SetTestMode(pdev, pdev->dev_test_mode);
 447:/home/dat/Documents/colir_one/rocket_code/Middlewares/ST/STM32_USB_Device_Library/Core/Src/usbd_core.c **** 
 448:/home/dat/Documents/colir_one/rocket_code/Middlewares/ST/STM32_USB_Device_Library/Core/Src/usbd_core.c ****   return ret;
 449:/home/dat/Documents/colir_one/rocket_code/Middlewares/ST/STM32_USB_Device_Library/Core/Src/usbd_core.c **** #else
 450:/home/dat/Documents/colir_one/rocket_code/Middlewares/ST/STM32_USB_Device_Library/Core/Src/usbd_core.c ****   /* Prevent unused argument compilation warning */
 451:/home/dat/Documents/colir_one/rocket_code/Middlewares/ST/STM32_USB_Device_Library/Core/Src/usbd_core.c ****   UNUSED(pdev);
 338              		.loc 1 451 3 view .LVU96
 452:/home/dat/Documents/colir_one/rocket_code/Middlewares/ST/STM32_USB_Device_Library/Core/Src/usbd_core.c **** 
 453:/home/dat/Documents/colir_one/rocket_code/Middlewares/ST/STM32_USB_Device_Library/Core/Src/usbd_core.c ****   return USBD_OK;
 339              		.loc 1 453 3 view .LVU97
 454:/home/dat/Documents/colir_one/rocket_code/Middlewares/ST/STM32_USB_Device_Library/Core/Src/usbd_core.c **** #endif /* USBD_HS_TESTMODE_ENABLE */
 455:/home/dat/Documents/colir_one/rocket_code/Middlewares/ST/STM32_USB_Device_Library/Core/Src/usbd_core.c **** }
 340              		.loc 1 455 1 is_stmt 0 view .LVU98
 341 0000 0020     		movs	r0, #0
 342              	.LVL22:
 343              		.loc 1 455 1 view .LVU99
 344 0002 7047     		bx	lr
 345              		.cfi_endproc
 346              	.LFE143:
 348              		.section	.text.USBD_SetClassConfig,"ax",%progbits
 349              		.align	1
 350              		.global	USBD_SetClassConfig
 351              		.syntax unified
ARM GAS  /tmp/cc6uACF9.s 			page 15


 352              		.thumb
 353              		.thumb_func
 355              	USBD_SetClassConfig:
 356              	.LVL23:
 357              	.LFB144:
 456:/home/dat/Documents/colir_one/rocket_code/Middlewares/ST/STM32_USB_Device_Library/Core/Src/usbd_core.c **** 
 457:/home/dat/Documents/colir_one/rocket_code/Middlewares/ST/STM32_USB_Device_Library/Core/Src/usbd_core.c **** /**
 458:/home/dat/Documents/colir_one/rocket_code/Middlewares/ST/STM32_USB_Device_Library/Core/Src/usbd_core.c ****   * @brief  USBD_SetClassConfig
 459:/home/dat/Documents/colir_one/rocket_code/Middlewares/ST/STM32_USB_Device_Library/Core/Src/usbd_core.c ****   *        Configure device and start the interface
 460:/home/dat/Documents/colir_one/rocket_code/Middlewares/ST/STM32_USB_Device_Library/Core/Src/usbd_core.c ****   * @param  pdev: device instance
 461:/home/dat/Documents/colir_one/rocket_code/Middlewares/ST/STM32_USB_Device_Library/Core/Src/usbd_core.c ****   * @param  cfgidx: configuration index
 462:/home/dat/Documents/colir_one/rocket_code/Middlewares/ST/STM32_USB_Device_Library/Core/Src/usbd_core.c ****   * @retval status
 463:/home/dat/Documents/colir_one/rocket_code/Middlewares/ST/STM32_USB_Device_Library/Core/Src/usbd_core.c ****   */
 464:/home/dat/Documents/colir_one/rocket_code/Middlewares/ST/STM32_USB_Device_Library/Core/Src/usbd_core.c **** 
 465:/home/dat/Documents/colir_one/rocket_code/Middlewares/ST/STM32_USB_Device_Library/Core/Src/usbd_core.c **** USBD_StatusTypeDef USBD_SetClassConfig(USBD_HandleTypeDef *pdev, uint8_t cfgidx)
 466:/home/dat/Documents/colir_one/rocket_code/Middlewares/ST/STM32_USB_Device_Library/Core/Src/usbd_core.c **** {
 358              		.loc 1 466 1 is_stmt 1 view -0
 359              		.cfi_startproc
 360              		@ args = 0, pretend = 0, frame = 0
 361              		@ frame_needed = 0, uses_anonymous_args = 0
 362              		.loc 1 466 1 is_stmt 0 view .LVU101
 363 0000 08B5     		push	{r3, lr}
 364              	.LCFI9:
 365              		.cfi_def_cfa_offset 8
 366              		.cfi_offset 3, -8
 367              		.cfi_offset 14, -4
 467:/home/dat/Documents/colir_one/rocket_code/Middlewares/ST/STM32_USB_Device_Library/Core/Src/usbd_core.c ****   USBD_StatusTypeDef ret = USBD_OK;
 368              		.loc 1 467 3 is_stmt 1 view .LVU102
 369              	.LVL24:
 468:/home/dat/Documents/colir_one/rocket_code/Middlewares/ST/STM32_USB_Device_Library/Core/Src/usbd_core.c **** 
 469:/home/dat/Documents/colir_one/rocket_code/Middlewares/ST/STM32_USB_Device_Library/Core/Src/usbd_core.c **** #ifdef USE_USBD_COMPOSITE
 470:/home/dat/Documents/colir_one/rocket_code/Middlewares/ST/STM32_USB_Device_Library/Core/Src/usbd_core.c ****   /* Parse the table of classes in use */
 471:/home/dat/Documents/colir_one/rocket_code/Middlewares/ST/STM32_USB_Device_Library/Core/Src/usbd_core.c ****   for (uint32_t i = 0U; i < USBD_MAX_SUPPORTED_CLASS; i++)
 472:/home/dat/Documents/colir_one/rocket_code/Middlewares/ST/STM32_USB_Device_Library/Core/Src/usbd_core.c ****   {
 473:/home/dat/Documents/colir_one/rocket_code/Middlewares/ST/STM32_USB_Device_Library/Core/Src/usbd_core.c ****     /* Check if current class is in use */
 474:/home/dat/Documents/colir_one/rocket_code/Middlewares/ST/STM32_USB_Device_Library/Core/Src/usbd_core.c ****     if ((pdev->tclasslist[i].Active) == 1U)
 475:/home/dat/Documents/colir_one/rocket_code/Middlewares/ST/STM32_USB_Device_Library/Core/Src/usbd_core.c ****     {
 476:/home/dat/Documents/colir_one/rocket_code/Middlewares/ST/STM32_USB_Device_Library/Core/Src/usbd_core.c ****       if (pdev->pClass[i] != NULL)
 477:/home/dat/Documents/colir_one/rocket_code/Middlewares/ST/STM32_USB_Device_Library/Core/Src/usbd_core.c ****       {
 478:/home/dat/Documents/colir_one/rocket_code/Middlewares/ST/STM32_USB_Device_Library/Core/Src/usbd_core.c ****         pdev->classId = i;
 479:/home/dat/Documents/colir_one/rocket_code/Middlewares/ST/STM32_USB_Device_Library/Core/Src/usbd_core.c ****         /* Set configuration  and Start the Class*/
 480:/home/dat/Documents/colir_one/rocket_code/Middlewares/ST/STM32_USB_Device_Library/Core/Src/usbd_core.c ****         if (pdev->pClass[i]->Init(pdev, cfgidx) != 0U)
 481:/home/dat/Documents/colir_one/rocket_code/Middlewares/ST/STM32_USB_Device_Library/Core/Src/usbd_core.c ****         {
 482:/home/dat/Documents/colir_one/rocket_code/Middlewares/ST/STM32_USB_Device_Library/Core/Src/usbd_core.c ****           ret = USBD_FAIL;
 483:/home/dat/Documents/colir_one/rocket_code/Middlewares/ST/STM32_USB_Device_Library/Core/Src/usbd_core.c ****         }
 484:/home/dat/Documents/colir_one/rocket_code/Middlewares/ST/STM32_USB_Device_Library/Core/Src/usbd_core.c ****       }
 485:/home/dat/Documents/colir_one/rocket_code/Middlewares/ST/STM32_USB_Device_Library/Core/Src/usbd_core.c ****     }
 486:/home/dat/Documents/colir_one/rocket_code/Middlewares/ST/STM32_USB_Device_Library/Core/Src/usbd_core.c ****   }
 487:/home/dat/Documents/colir_one/rocket_code/Middlewares/ST/STM32_USB_Device_Library/Core/Src/usbd_core.c **** #else
 488:/home/dat/Documents/colir_one/rocket_code/Middlewares/ST/STM32_USB_Device_Library/Core/Src/usbd_core.c ****   if (pdev->pClass[0] != NULL)
 370              		.loc 1 488 3 view .LVU103
 371              		.loc 1 488 19 is_stmt 0 view .LVU104
 372 0002 D0F8B832 		ldr	r3, [r0, #696]
 373              		.loc 1 488 6 view .LVU105
 374 0006 13B1     		cbz	r3, .L25
 489:/home/dat/Documents/colir_one/rocket_code/Middlewares/ST/STM32_USB_Device_Library/Core/Src/usbd_core.c ****   {
 490:/home/dat/Documents/colir_one/rocket_code/Middlewares/ST/STM32_USB_Device_Library/Core/Src/usbd_core.c ****     /* Set configuration and Start the Class */
ARM GAS  /tmp/cc6uACF9.s 			page 16


 491:/home/dat/Documents/colir_one/rocket_code/Middlewares/ST/STM32_USB_Device_Library/Core/Src/usbd_core.c ****     ret = (USBD_StatusTypeDef)pdev->pClass[0]->Init(pdev, cfgidx);
 375              		.loc 1 491 5 is_stmt 1 view .LVU106
 376              		.loc 1 491 46 is_stmt 0 view .LVU107
 377 0008 1B68     		ldr	r3, [r3]
 378              		.loc 1 491 31 view .LVU108
 379 000a 9847     		blx	r3
 380              	.LVL25:
 381              	.L24:
 492:/home/dat/Documents/colir_one/rocket_code/Middlewares/ST/STM32_USB_Device_Library/Core/Src/usbd_core.c ****   }
 493:/home/dat/Documents/colir_one/rocket_code/Middlewares/ST/STM32_USB_Device_Library/Core/Src/usbd_core.c **** #endif /* USE_USBD_COMPOSITE */
 494:/home/dat/Documents/colir_one/rocket_code/Middlewares/ST/STM32_USB_Device_Library/Core/Src/usbd_core.c **** 
 495:/home/dat/Documents/colir_one/rocket_code/Middlewares/ST/STM32_USB_Device_Library/Core/Src/usbd_core.c ****   return ret;
 382              		.loc 1 495 3 is_stmt 1 view .LVU109
 496:/home/dat/Documents/colir_one/rocket_code/Middlewares/ST/STM32_USB_Device_Library/Core/Src/usbd_core.c **** }
 383              		.loc 1 496 1 is_stmt 0 view .LVU110
 384 000c 08BD     		pop	{r3, pc}
 385              	.LVL26:
 386              	.L25:
 467:/home/dat/Documents/colir_one/rocket_code/Middlewares/ST/STM32_USB_Device_Library/Core/Src/usbd_core.c **** 
 387              		.loc 1 467 22 view .LVU111
 388 000e 0020     		movs	r0, #0
 389              	.LVL27:
 467:/home/dat/Documents/colir_one/rocket_code/Middlewares/ST/STM32_USB_Device_Library/Core/Src/usbd_core.c **** 
 390              		.loc 1 467 22 view .LVU112
 391 0010 FCE7     		b	.L24
 392              		.cfi_endproc
 393              	.LFE144:
 395              		.section	.text.USBD_ClrClassConfig,"ax",%progbits
 396              		.align	1
 397              		.global	USBD_ClrClassConfig
 398              		.syntax unified
 399              		.thumb
 400              		.thumb_func
 402              	USBD_ClrClassConfig:
 403              	.LVL28:
 404              	.LFB145:
 497:/home/dat/Documents/colir_one/rocket_code/Middlewares/ST/STM32_USB_Device_Library/Core/Src/usbd_core.c **** 
 498:/home/dat/Documents/colir_one/rocket_code/Middlewares/ST/STM32_USB_Device_Library/Core/Src/usbd_core.c **** /**
 499:/home/dat/Documents/colir_one/rocket_code/Middlewares/ST/STM32_USB_Device_Library/Core/Src/usbd_core.c ****   * @brief  USBD_ClrClassConfig
 500:/home/dat/Documents/colir_one/rocket_code/Middlewares/ST/STM32_USB_Device_Library/Core/Src/usbd_core.c ****   *         Clear current configuration
 501:/home/dat/Documents/colir_one/rocket_code/Middlewares/ST/STM32_USB_Device_Library/Core/Src/usbd_core.c ****   * @param  pdev: device instance
 502:/home/dat/Documents/colir_one/rocket_code/Middlewares/ST/STM32_USB_Device_Library/Core/Src/usbd_core.c ****   * @param  cfgidx: configuration index
 503:/home/dat/Documents/colir_one/rocket_code/Middlewares/ST/STM32_USB_Device_Library/Core/Src/usbd_core.c ****   * @retval status
 504:/home/dat/Documents/colir_one/rocket_code/Middlewares/ST/STM32_USB_Device_Library/Core/Src/usbd_core.c ****   */
 505:/home/dat/Documents/colir_one/rocket_code/Middlewares/ST/STM32_USB_Device_Library/Core/Src/usbd_core.c **** USBD_StatusTypeDef USBD_ClrClassConfig(USBD_HandleTypeDef *pdev, uint8_t cfgidx)
 506:/home/dat/Documents/colir_one/rocket_code/Middlewares/ST/STM32_USB_Device_Library/Core/Src/usbd_core.c **** {
 405              		.loc 1 506 1 is_stmt 1 view -0
 406              		.cfi_startproc
 407              		@ args = 0, pretend = 0, frame = 0
 408              		@ frame_needed = 0, uses_anonymous_args = 0
 409              		.loc 1 506 1 is_stmt 0 view .LVU114
 410 0000 08B5     		push	{r3, lr}
 411              	.LCFI10:
 412              		.cfi_def_cfa_offset 8
 413              		.cfi_offset 3, -8
 414              		.cfi_offset 14, -4
 507:/home/dat/Documents/colir_one/rocket_code/Middlewares/ST/STM32_USB_Device_Library/Core/Src/usbd_core.c ****   USBD_StatusTypeDef ret = USBD_OK;
ARM GAS  /tmp/cc6uACF9.s 			page 17


 415              		.loc 1 507 3 is_stmt 1 view .LVU115
 416              	.LVL29:
 508:/home/dat/Documents/colir_one/rocket_code/Middlewares/ST/STM32_USB_Device_Library/Core/Src/usbd_core.c **** 
 509:/home/dat/Documents/colir_one/rocket_code/Middlewares/ST/STM32_USB_Device_Library/Core/Src/usbd_core.c **** #ifdef USE_USBD_COMPOSITE
 510:/home/dat/Documents/colir_one/rocket_code/Middlewares/ST/STM32_USB_Device_Library/Core/Src/usbd_core.c ****   /* Parse the table of classes in use */
 511:/home/dat/Documents/colir_one/rocket_code/Middlewares/ST/STM32_USB_Device_Library/Core/Src/usbd_core.c ****   for (uint32_t i = 0U; i < USBD_MAX_SUPPORTED_CLASS; i++)
 512:/home/dat/Documents/colir_one/rocket_code/Middlewares/ST/STM32_USB_Device_Library/Core/Src/usbd_core.c ****   {
 513:/home/dat/Documents/colir_one/rocket_code/Middlewares/ST/STM32_USB_Device_Library/Core/Src/usbd_core.c ****     /* Check if current class is in use */
 514:/home/dat/Documents/colir_one/rocket_code/Middlewares/ST/STM32_USB_Device_Library/Core/Src/usbd_core.c ****     if ((pdev->tclasslist[i].Active) == 1U)
 515:/home/dat/Documents/colir_one/rocket_code/Middlewares/ST/STM32_USB_Device_Library/Core/Src/usbd_core.c ****     {
 516:/home/dat/Documents/colir_one/rocket_code/Middlewares/ST/STM32_USB_Device_Library/Core/Src/usbd_core.c ****       if (pdev->pClass[i] != NULL)
 517:/home/dat/Documents/colir_one/rocket_code/Middlewares/ST/STM32_USB_Device_Library/Core/Src/usbd_core.c ****       {
 518:/home/dat/Documents/colir_one/rocket_code/Middlewares/ST/STM32_USB_Device_Library/Core/Src/usbd_core.c ****         pdev->classId = i;
 519:/home/dat/Documents/colir_one/rocket_code/Middlewares/ST/STM32_USB_Device_Library/Core/Src/usbd_core.c ****         /* Clear configuration  and De-initialize the Class process */
 520:/home/dat/Documents/colir_one/rocket_code/Middlewares/ST/STM32_USB_Device_Library/Core/Src/usbd_core.c ****         if (pdev->pClass[i]->DeInit(pdev, cfgidx) != 0U)
 521:/home/dat/Documents/colir_one/rocket_code/Middlewares/ST/STM32_USB_Device_Library/Core/Src/usbd_core.c ****         {
 522:/home/dat/Documents/colir_one/rocket_code/Middlewares/ST/STM32_USB_Device_Library/Core/Src/usbd_core.c ****           ret = USBD_FAIL;
 523:/home/dat/Documents/colir_one/rocket_code/Middlewares/ST/STM32_USB_Device_Library/Core/Src/usbd_core.c ****         }
 524:/home/dat/Documents/colir_one/rocket_code/Middlewares/ST/STM32_USB_Device_Library/Core/Src/usbd_core.c ****       }
 525:/home/dat/Documents/colir_one/rocket_code/Middlewares/ST/STM32_USB_Device_Library/Core/Src/usbd_core.c ****     }
 526:/home/dat/Documents/colir_one/rocket_code/Middlewares/ST/STM32_USB_Device_Library/Core/Src/usbd_core.c ****   }
 527:/home/dat/Documents/colir_one/rocket_code/Middlewares/ST/STM32_USB_Device_Library/Core/Src/usbd_core.c **** #else
 528:/home/dat/Documents/colir_one/rocket_code/Middlewares/ST/STM32_USB_Device_Library/Core/Src/usbd_core.c ****   /* Clear configuration  and De-initialize the Class process */
 529:/home/dat/Documents/colir_one/rocket_code/Middlewares/ST/STM32_USB_Device_Library/Core/Src/usbd_core.c ****   if (pdev->pClass[0]->DeInit(pdev, cfgidx) != 0U)
 417              		.loc 1 529 3 view .LVU116
 418              		.loc 1 529 19 is_stmt 0 view .LVU117
 419 0002 D0F8B832 		ldr	r3, [r0, #696]
 420              		.loc 1 529 22 view .LVU118
 421 0006 5B68     		ldr	r3, [r3, #4]
 422              		.loc 1 529 7 view .LVU119
 423 0008 9847     		blx	r3
 424              	.LVL30:
 425              		.loc 1 529 6 discriminator 1 view .LVU120
 426 000a 00B9     		cbnz	r0, .L31
 427              	.L28:
 428              	.LVL31:
 530:/home/dat/Documents/colir_one/rocket_code/Middlewares/ST/STM32_USB_Device_Library/Core/Src/usbd_core.c ****   {
 531:/home/dat/Documents/colir_one/rocket_code/Middlewares/ST/STM32_USB_Device_Library/Core/Src/usbd_core.c ****     ret = USBD_FAIL;
 532:/home/dat/Documents/colir_one/rocket_code/Middlewares/ST/STM32_USB_Device_Library/Core/Src/usbd_core.c ****   }
 533:/home/dat/Documents/colir_one/rocket_code/Middlewares/ST/STM32_USB_Device_Library/Core/Src/usbd_core.c **** #endif /* USE_USBD_COMPOSITE */
 534:/home/dat/Documents/colir_one/rocket_code/Middlewares/ST/STM32_USB_Device_Library/Core/Src/usbd_core.c **** 
 535:/home/dat/Documents/colir_one/rocket_code/Middlewares/ST/STM32_USB_Device_Library/Core/Src/usbd_core.c ****   return ret;
 429              		.loc 1 535 3 is_stmt 1 view .LVU121
 536:/home/dat/Documents/colir_one/rocket_code/Middlewares/ST/STM32_USB_Device_Library/Core/Src/usbd_core.c **** }
 430              		.loc 1 536 1 is_stmt 0 view .LVU122
 431 000c 08BD     		pop	{r3, pc}
 432              	.LVL32:
 433              	.L31:
 531:/home/dat/Documents/colir_one/rocket_code/Middlewares/ST/STM32_USB_Device_Library/Core/Src/usbd_core.c ****   }
 434              		.loc 1 531 9 view .LVU123
 435 000e 0320     		movs	r0, #3
 436 0010 FCE7     		b	.L28
 437              		.cfi_endproc
 438              	.LFE145:
 440              		.section	.text.USBD_LL_SetupStage,"ax",%progbits
 441              		.align	1
 442              		.global	USBD_LL_SetupStage
ARM GAS  /tmp/cc6uACF9.s 			page 18


 443              		.syntax unified
 444              		.thumb
 445              		.thumb_func
 447              	USBD_LL_SetupStage:
 448              	.LVL33:
 449              	.LFB146:
 537:/home/dat/Documents/colir_one/rocket_code/Middlewares/ST/STM32_USB_Device_Library/Core/Src/usbd_core.c **** 
 538:/home/dat/Documents/colir_one/rocket_code/Middlewares/ST/STM32_USB_Device_Library/Core/Src/usbd_core.c **** 
 539:/home/dat/Documents/colir_one/rocket_code/Middlewares/ST/STM32_USB_Device_Library/Core/Src/usbd_core.c **** /**
 540:/home/dat/Documents/colir_one/rocket_code/Middlewares/ST/STM32_USB_Device_Library/Core/Src/usbd_core.c ****   * @brief  USBD_LL_SetupStage
 541:/home/dat/Documents/colir_one/rocket_code/Middlewares/ST/STM32_USB_Device_Library/Core/Src/usbd_core.c ****   *         Handle the setup stage
 542:/home/dat/Documents/colir_one/rocket_code/Middlewares/ST/STM32_USB_Device_Library/Core/Src/usbd_core.c ****   * @param  pdev: device instance
 543:/home/dat/Documents/colir_one/rocket_code/Middlewares/ST/STM32_USB_Device_Library/Core/Src/usbd_core.c ****   * @param  psetup: setup packet buffer pointer
 544:/home/dat/Documents/colir_one/rocket_code/Middlewares/ST/STM32_USB_Device_Library/Core/Src/usbd_core.c ****   * @retval status
 545:/home/dat/Documents/colir_one/rocket_code/Middlewares/ST/STM32_USB_Device_Library/Core/Src/usbd_core.c ****   */
 546:/home/dat/Documents/colir_one/rocket_code/Middlewares/ST/STM32_USB_Device_Library/Core/Src/usbd_core.c **** USBD_StatusTypeDef USBD_LL_SetupStage(USBD_HandleTypeDef *pdev, uint8_t *psetup)
 547:/home/dat/Documents/colir_one/rocket_code/Middlewares/ST/STM32_USB_Device_Library/Core/Src/usbd_core.c **** {
 450              		.loc 1 547 1 is_stmt 1 view -0
 451              		.cfi_startproc
 452              		@ args = 0, pretend = 0, frame = 0
 453              		@ frame_needed = 0, uses_anonymous_args = 0
 454              		.loc 1 547 1 is_stmt 0 view .LVU125
 455 0000 38B5     		push	{r3, r4, r5, lr}
 456              	.LCFI11:
 457              		.cfi_def_cfa_offset 16
 458              		.cfi_offset 3, -16
 459              		.cfi_offset 4, -12
 460              		.cfi_offset 5, -8
 461              		.cfi_offset 14, -4
 462 0002 0446     		mov	r4, r0
 548:/home/dat/Documents/colir_one/rocket_code/Middlewares/ST/STM32_USB_Device_Library/Core/Src/usbd_core.c ****   USBD_StatusTypeDef ret;
 463              		.loc 1 548 3 is_stmt 1 view .LVU126
 549:/home/dat/Documents/colir_one/rocket_code/Middlewares/ST/STM32_USB_Device_Library/Core/Src/usbd_core.c **** 
 550:/home/dat/Documents/colir_one/rocket_code/Middlewares/ST/STM32_USB_Device_Library/Core/Src/usbd_core.c ****   USBD_ParseSetupRequest(&pdev->request, psetup);
 464              		.loc 1 550 3 view .LVU127
 465 0004 00F2AA25 		addw	r5, r0, #682
 466 0008 2846     		mov	r0, r5
 467              	.LVL34:
 468              		.loc 1 550 3 is_stmt 0 view .LVU128
 469 000a FFF7FEFF 		bl	USBD_ParseSetupRequest
 470              	.LVL35:
 551:/home/dat/Documents/colir_one/rocket_code/Middlewares/ST/STM32_USB_Device_Library/Core/Src/usbd_core.c **** 
 552:/home/dat/Documents/colir_one/rocket_code/Middlewares/ST/STM32_USB_Device_Library/Core/Src/usbd_core.c ****   pdev->ep0_state = USBD_EP0_SETUP;
 471              		.loc 1 552 3 is_stmt 1 view .LVU129
 472              		.loc 1 552 19 is_stmt 0 view .LVU130
 473 000e 0123     		movs	r3, #1
 474 0010 C4F89432 		str	r3, [r4, #660]
 553:/home/dat/Documents/colir_one/rocket_code/Middlewares/ST/STM32_USB_Device_Library/Core/Src/usbd_core.c **** 
 554:/home/dat/Documents/colir_one/rocket_code/Middlewares/ST/STM32_USB_Device_Library/Core/Src/usbd_core.c ****   pdev->ep0_data_len = pdev->request.wLength;
 475              		.loc 1 554 3 is_stmt 1 view .LVU131
 476              		.loc 1 554 37 is_stmt 0 view .LVU132
 477 0014 B4F8B032 		ldrh	r3, [r4, #688]
 478              		.loc 1 554 22 view .LVU133
 479 0018 C4F89832 		str	r3, [r4, #664]
 555:/home/dat/Documents/colir_one/rocket_code/Middlewares/ST/STM32_USB_Device_Library/Core/Src/usbd_core.c **** 
 556:/home/dat/Documents/colir_one/rocket_code/Middlewares/ST/STM32_USB_Device_Library/Core/Src/usbd_core.c ****   switch (pdev->request.bmRequest & 0x1FU)
 480              		.loc 1 556 3 is_stmt 1 view .LVU134
ARM GAS  /tmp/cc6uACF9.s 			page 19


 481              		.loc 1 556 24 is_stmt 0 view .LVU135
 482 001c 94F8AA12 		ldrb	r1, [r4, #682]	@ zero_extendqisi2
 483 0020 01F01F03 		and	r3, r1, #31
 484              		.loc 1 556 3 view .LVU136
 485 0024 012B     		cmp	r3, #1
 486 0026 07D0     		beq	.L33
 487 0028 022B     		cmp	r3, #2
 488 002a 0AD0     		beq	.L34
 489 002c 73B9     		cbnz	r3, .L35
 557:/home/dat/Documents/colir_one/rocket_code/Middlewares/ST/STM32_USB_Device_Library/Core/Src/usbd_core.c ****   {
 558:/home/dat/Documents/colir_one/rocket_code/Middlewares/ST/STM32_USB_Device_Library/Core/Src/usbd_core.c ****     case USB_REQ_RECIPIENT_DEVICE:
 559:/home/dat/Documents/colir_one/rocket_code/Middlewares/ST/STM32_USB_Device_Library/Core/Src/usbd_core.c ****       ret = USBD_StdDevReq(pdev, &pdev->request);
 490              		.loc 1 559 7 is_stmt 1 view .LVU137
 491              		.loc 1 559 13 is_stmt 0 view .LVU138
 492 002e 2946     		mov	r1, r5
 493 0030 2046     		mov	r0, r4
 494 0032 FFF7FEFF 		bl	USBD_StdDevReq
 495              	.LVL36:
 560:/home/dat/Documents/colir_one/rocket_code/Middlewares/ST/STM32_USB_Device_Library/Core/Src/usbd_core.c ****       break;
 496              		.loc 1 560 7 is_stmt 1 view .LVU139
 497              	.L36:
 561:/home/dat/Documents/colir_one/rocket_code/Middlewares/ST/STM32_USB_Device_Library/Core/Src/usbd_core.c **** 
 562:/home/dat/Documents/colir_one/rocket_code/Middlewares/ST/STM32_USB_Device_Library/Core/Src/usbd_core.c ****     case USB_REQ_RECIPIENT_INTERFACE:
 563:/home/dat/Documents/colir_one/rocket_code/Middlewares/ST/STM32_USB_Device_Library/Core/Src/usbd_core.c ****       ret = USBD_StdItfReq(pdev, &pdev->request);
 564:/home/dat/Documents/colir_one/rocket_code/Middlewares/ST/STM32_USB_Device_Library/Core/Src/usbd_core.c ****       break;
 565:/home/dat/Documents/colir_one/rocket_code/Middlewares/ST/STM32_USB_Device_Library/Core/Src/usbd_core.c **** 
 566:/home/dat/Documents/colir_one/rocket_code/Middlewares/ST/STM32_USB_Device_Library/Core/Src/usbd_core.c ****     case USB_REQ_RECIPIENT_ENDPOINT:
 567:/home/dat/Documents/colir_one/rocket_code/Middlewares/ST/STM32_USB_Device_Library/Core/Src/usbd_core.c ****       ret = USBD_StdEPReq(pdev, &pdev->request);
 568:/home/dat/Documents/colir_one/rocket_code/Middlewares/ST/STM32_USB_Device_Library/Core/Src/usbd_core.c ****       break;
 569:/home/dat/Documents/colir_one/rocket_code/Middlewares/ST/STM32_USB_Device_Library/Core/Src/usbd_core.c **** 
 570:/home/dat/Documents/colir_one/rocket_code/Middlewares/ST/STM32_USB_Device_Library/Core/Src/usbd_core.c ****     default:
 571:/home/dat/Documents/colir_one/rocket_code/Middlewares/ST/STM32_USB_Device_Library/Core/Src/usbd_core.c ****       ret = USBD_LL_StallEP(pdev, (pdev->request.bmRequest & 0x80U));
 572:/home/dat/Documents/colir_one/rocket_code/Middlewares/ST/STM32_USB_Device_Library/Core/Src/usbd_core.c ****       break;
 573:/home/dat/Documents/colir_one/rocket_code/Middlewares/ST/STM32_USB_Device_Library/Core/Src/usbd_core.c ****   }
 574:/home/dat/Documents/colir_one/rocket_code/Middlewares/ST/STM32_USB_Device_Library/Core/Src/usbd_core.c **** 
 575:/home/dat/Documents/colir_one/rocket_code/Middlewares/ST/STM32_USB_Device_Library/Core/Src/usbd_core.c ****   return ret;
 498              		.loc 1 575 3 view .LVU140
 576:/home/dat/Documents/colir_one/rocket_code/Middlewares/ST/STM32_USB_Device_Library/Core/Src/usbd_core.c **** }
 499              		.loc 1 576 1 is_stmt 0 view .LVU141
 500 0036 38BD     		pop	{r3, r4, r5, pc}
 501              	.LVL37:
 502              	.L33:
 563:/home/dat/Documents/colir_one/rocket_code/Middlewares/ST/STM32_USB_Device_Library/Core/Src/usbd_core.c ****       break;
 503              		.loc 1 563 7 is_stmt 1 view .LVU142
 563:/home/dat/Documents/colir_one/rocket_code/Middlewares/ST/STM32_USB_Device_Library/Core/Src/usbd_core.c ****       break;
 504              		.loc 1 563 13 is_stmt 0 view .LVU143
 505 0038 2946     		mov	r1, r5
 506 003a 2046     		mov	r0, r4
 507 003c FFF7FEFF 		bl	USBD_StdItfReq
 508              	.LVL38:
 564:/home/dat/Documents/colir_one/rocket_code/Middlewares/ST/STM32_USB_Device_Library/Core/Src/usbd_core.c **** 
 509              		.loc 1 564 7 is_stmt 1 view .LVU144
 510 0040 F9E7     		b	.L36
 511              	.LVL39:
 512              	.L34:
 567:/home/dat/Documents/colir_one/rocket_code/Middlewares/ST/STM32_USB_Device_Library/Core/Src/usbd_core.c ****       break;
 513              		.loc 1 567 7 view .LVU145
ARM GAS  /tmp/cc6uACF9.s 			page 20


 567:/home/dat/Documents/colir_one/rocket_code/Middlewares/ST/STM32_USB_Device_Library/Core/Src/usbd_core.c ****       break;
 514              		.loc 1 567 13 is_stmt 0 view .LVU146
 515 0042 2946     		mov	r1, r5
 516 0044 2046     		mov	r0, r4
 517 0046 FFF7FEFF 		bl	USBD_StdEPReq
 518              	.LVL40:
 568:/home/dat/Documents/colir_one/rocket_code/Middlewares/ST/STM32_USB_Device_Library/Core/Src/usbd_core.c **** 
 519              		.loc 1 568 7 is_stmt 1 view .LVU147
 520 004a F4E7     		b	.L36
 521              	.LVL41:
 522              	.L35:
 571:/home/dat/Documents/colir_one/rocket_code/Middlewares/ST/STM32_USB_Device_Library/Core/Src/usbd_core.c ****       break;
 523              		.loc 1 571 7 view .LVU148
 571:/home/dat/Documents/colir_one/rocket_code/Middlewares/ST/STM32_USB_Device_Library/Core/Src/usbd_core.c ****       break;
 524              		.loc 1 571 13 is_stmt 0 view .LVU149
 525 004c 01F08001 		and	r1, r1, #128
 526 0050 2046     		mov	r0, r4
 527 0052 FFF7FEFF 		bl	USBD_LL_StallEP
 528              	.LVL42:
 572:/home/dat/Documents/colir_one/rocket_code/Middlewares/ST/STM32_USB_Device_Library/Core/Src/usbd_core.c ****   }
 529              		.loc 1 572 7 is_stmt 1 view .LVU150
 530 0056 EEE7     		b	.L36
 531              		.cfi_endproc
 532              	.LFE146:
 534              		.section	.text.USBD_LL_Reset,"ax",%progbits
 535              		.align	1
 536              		.global	USBD_LL_Reset
 537              		.syntax unified
 538              		.thumb
 539              		.thumb_func
 541              	USBD_LL_Reset:
 542              	.LVL43:
 543              	.LFB149:
 577:/home/dat/Documents/colir_one/rocket_code/Middlewares/ST/STM32_USB_Device_Library/Core/Src/usbd_core.c **** 
 578:/home/dat/Documents/colir_one/rocket_code/Middlewares/ST/STM32_USB_Device_Library/Core/Src/usbd_core.c **** /**
 579:/home/dat/Documents/colir_one/rocket_code/Middlewares/ST/STM32_USB_Device_Library/Core/Src/usbd_core.c ****   * @brief  USBD_LL_DataOutStage
 580:/home/dat/Documents/colir_one/rocket_code/Middlewares/ST/STM32_USB_Device_Library/Core/Src/usbd_core.c ****   *         Handle data OUT stage
 581:/home/dat/Documents/colir_one/rocket_code/Middlewares/ST/STM32_USB_Device_Library/Core/Src/usbd_core.c ****   * @param  pdev: device instance
 582:/home/dat/Documents/colir_one/rocket_code/Middlewares/ST/STM32_USB_Device_Library/Core/Src/usbd_core.c ****   * @param  epnum: endpoint index
 583:/home/dat/Documents/colir_one/rocket_code/Middlewares/ST/STM32_USB_Device_Library/Core/Src/usbd_core.c ****   * @param  pdata: data pointer
 584:/home/dat/Documents/colir_one/rocket_code/Middlewares/ST/STM32_USB_Device_Library/Core/Src/usbd_core.c ****   * @retval status
 585:/home/dat/Documents/colir_one/rocket_code/Middlewares/ST/STM32_USB_Device_Library/Core/Src/usbd_core.c ****   */
 586:/home/dat/Documents/colir_one/rocket_code/Middlewares/ST/STM32_USB_Device_Library/Core/Src/usbd_core.c **** USBD_StatusTypeDef USBD_LL_DataOutStage(USBD_HandleTypeDef *pdev,
 587:/home/dat/Documents/colir_one/rocket_code/Middlewares/ST/STM32_USB_Device_Library/Core/Src/usbd_core.c ****                                         uint8_t epnum, uint8_t *pdata)
 588:/home/dat/Documents/colir_one/rocket_code/Middlewares/ST/STM32_USB_Device_Library/Core/Src/usbd_core.c **** {
 589:/home/dat/Documents/colir_one/rocket_code/Middlewares/ST/STM32_USB_Device_Library/Core/Src/usbd_core.c ****   USBD_EndpointTypeDef *pep;
 590:/home/dat/Documents/colir_one/rocket_code/Middlewares/ST/STM32_USB_Device_Library/Core/Src/usbd_core.c ****   USBD_StatusTypeDef ret = USBD_OK;
 591:/home/dat/Documents/colir_one/rocket_code/Middlewares/ST/STM32_USB_Device_Library/Core/Src/usbd_core.c ****   uint8_t idx;
 592:/home/dat/Documents/colir_one/rocket_code/Middlewares/ST/STM32_USB_Device_Library/Core/Src/usbd_core.c **** 
 593:/home/dat/Documents/colir_one/rocket_code/Middlewares/ST/STM32_USB_Device_Library/Core/Src/usbd_core.c ****   if (epnum == 0U)
 594:/home/dat/Documents/colir_one/rocket_code/Middlewares/ST/STM32_USB_Device_Library/Core/Src/usbd_core.c ****   {
 595:/home/dat/Documents/colir_one/rocket_code/Middlewares/ST/STM32_USB_Device_Library/Core/Src/usbd_core.c ****     pep = &pdev->ep_out[0];
 596:/home/dat/Documents/colir_one/rocket_code/Middlewares/ST/STM32_USB_Device_Library/Core/Src/usbd_core.c **** 
 597:/home/dat/Documents/colir_one/rocket_code/Middlewares/ST/STM32_USB_Device_Library/Core/Src/usbd_core.c ****     if (pdev->ep0_state == USBD_EP0_DATA_OUT)
 598:/home/dat/Documents/colir_one/rocket_code/Middlewares/ST/STM32_USB_Device_Library/Core/Src/usbd_core.c ****     {
 599:/home/dat/Documents/colir_one/rocket_code/Middlewares/ST/STM32_USB_Device_Library/Core/Src/usbd_core.c ****       if (pep->rem_length > pep->maxpacket)
 600:/home/dat/Documents/colir_one/rocket_code/Middlewares/ST/STM32_USB_Device_Library/Core/Src/usbd_core.c ****       {
ARM GAS  /tmp/cc6uACF9.s 			page 21


 601:/home/dat/Documents/colir_one/rocket_code/Middlewares/ST/STM32_USB_Device_Library/Core/Src/usbd_core.c ****         pep->rem_length -= pep->maxpacket;
 602:/home/dat/Documents/colir_one/rocket_code/Middlewares/ST/STM32_USB_Device_Library/Core/Src/usbd_core.c **** 
 603:/home/dat/Documents/colir_one/rocket_code/Middlewares/ST/STM32_USB_Device_Library/Core/Src/usbd_core.c ****         (void)USBD_CtlContinueRx(pdev, pdata, MIN(pep->rem_length, pep->maxpacket));
 604:/home/dat/Documents/colir_one/rocket_code/Middlewares/ST/STM32_USB_Device_Library/Core/Src/usbd_core.c ****       }
 605:/home/dat/Documents/colir_one/rocket_code/Middlewares/ST/STM32_USB_Device_Library/Core/Src/usbd_core.c ****       else
 606:/home/dat/Documents/colir_one/rocket_code/Middlewares/ST/STM32_USB_Device_Library/Core/Src/usbd_core.c ****       {
 607:/home/dat/Documents/colir_one/rocket_code/Middlewares/ST/STM32_USB_Device_Library/Core/Src/usbd_core.c ****         /* Find the class ID relative to the current request */
 608:/home/dat/Documents/colir_one/rocket_code/Middlewares/ST/STM32_USB_Device_Library/Core/Src/usbd_core.c ****         switch (pdev->request.bmRequest & 0x1FU)
 609:/home/dat/Documents/colir_one/rocket_code/Middlewares/ST/STM32_USB_Device_Library/Core/Src/usbd_core.c ****         {
 610:/home/dat/Documents/colir_one/rocket_code/Middlewares/ST/STM32_USB_Device_Library/Core/Src/usbd_core.c ****           case USB_REQ_RECIPIENT_DEVICE:
 611:/home/dat/Documents/colir_one/rocket_code/Middlewares/ST/STM32_USB_Device_Library/Core/Src/usbd_core.c ****             /* Device requests must be managed by the first instantiated class
 612:/home/dat/Documents/colir_one/rocket_code/Middlewares/ST/STM32_USB_Device_Library/Core/Src/usbd_core.c ****                (or duplicated by all classes for simplicity) */
 613:/home/dat/Documents/colir_one/rocket_code/Middlewares/ST/STM32_USB_Device_Library/Core/Src/usbd_core.c ****             idx = 0U;
 614:/home/dat/Documents/colir_one/rocket_code/Middlewares/ST/STM32_USB_Device_Library/Core/Src/usbd_core.c ****             break;
 615:/home/dat/Documents/colir_one/rocket_code/Middlewares/ST/STM32_USB_Device_Library/Core/Src/usbd_core.c **** 
 616:/home/dat/Documents/colir_one/rocket_code/Middlewares/ST/STM32_USB_Device_Library/Core/Src/usbd_core.c ****           case USB_REQ_RECIPIENT_INTERFACE:
 617:/home/dat/Documents/colir_one/rocket_code/Middlewares/ST/STM32_USB_Device_Library/Core/Src/usbd_core.c ****             idx = USBD_CoreFindIF(pdev, LOBYTE(pdev->request.wIndex));
 618:/home/dat/Documents/colir_one/rocket_code/Middlewares/ST/STM32_USB_Device_Library/Core/Src/usbd_core.c ****             break;
 619:/home/dat/Documents/colir_one/rocket_code/Middlewares/ST/STM32_USB_Device_Library/Core/Src/usbd_core.c **** 
 620:/home/dat/Documents/colir_one/rocket_code/Middlewares/ST/STM32_USB_Device_Library/Core/Src/usbd_core.c ****           case USB_REQ_RECIPIENT_ENDPOINT:
 621:/home/dat/Documents/colir_one/rocket_code/Middlewares/ST/STM32_USB_Device_Library/Core/Src/usbd_core.c ****             idx = USBD_CoreFindEP(pdev, LOBYTE(pdev->request.wIndex));
 622:/home/dat/Documents/colir_one/rocket_code/Middlewares/ST/STM32_USB_Device_Library/Core/Src/usbd_core.c ****             break;
 623:/home/dat/Documents/colir_one/rocket_code/Middlewares/ST/STM32_USB_Device_Library/Core/Src/usbd_core.c **** 
 624:/home/dat/Documents/colir_one/rocket_code/Middlewares/ST/STM32_USB_Device_Library/Core/Src/usbd_core.c ****           default:
 625:/home/dat/Documents/colir_one/rocket_code/Middlewares/ST/STM32_USB_Device_Library/Core/Src/usbd_core.c ****             /* Back to the first class in case of doubt */
 626:/home/dat/Documents/colir_one/rocket_code/Middlewares/ST/STM32_USB_Device_Library/Core/Src/usbd_core.c ****             idx = 0U;
 627:/home/dat/Documents/colir_one/rocket_code/Middlewares/ST/STM32_USB_Device_Library/Core/Src/usbd_core.c ****             break;
 628:/home/dat/Documents/colir_one/rocket_code/Middlewares/ST/STM32_USB_Device_Library/Core/Src/usbd_core.c ****         }
 629:/home/dat/Documents/colir_one/rocket_code/Middlewares/ST/STM32_USB_Device_Library/Core/Src/usbd_core.c **** 
 630:/home/dat/Documents/colir_one/rocket_code/Middlewares/ST/STM32_USB_Device_Library/Core/Src/usbd_core.c ****         if (idx < USBD_MAX_SUPPORTED_CLASS)
 631:/home/dat/Documents/colir_one/rocket_code/Middlewares/ST/STM32_USB_Device_Library/Core/Src/usbd_core.c ****         {
 632:/home/dat/Documents/colir_one/rocket_code/Middlewares/ST/STM32_USB_Device_Library/Core/Src/usbd_core.c ****           /* Setup the class ID and route the request to the relative class function */
 633:/home/dat/Documents/colir_one/rocket_code/Middlewares/ST/STM32_USB_Device_Library/Core/Src/usbd_core.c ****           if (pdev->dev_state == USBD_STATE_CONFIGURED)
 634:/home/dat/Documents/colir_one/rocket_code/Middlewares/ST/STM32_USB_Device_Library/Core/Src/usbd_core.c ****           {
 635:/home/dat/Documents/colir_one/rocket_code/Middlewares/ST/STM32_USB_Device_Library/Core/Src/usbd_core.c ****             if (pdev->pClass[idx]->EP0_RxReady != NULL)
 636:/home/dat/Documents/colir_one/rocket_code/Middlewares/ST/STM32_USB_Device_Library/Core/Src/usbd_core.c ****             {
 637:/home/dat/Documents/colir_one/rocket_code/Middlewares/ST/STM32_USB_Device_Library/Core/Src/usbd_core.c ****               pdev->classId = idx;
 638:/home/dat/Documents/colir_one/rocket_code/Middlewares/ST/STM32_USB_Device_Library/Core/Src/usbd_core.c ****               pdev->pClass[idx]->EP0_RxReady(pdev);
 639:/home/dat/Documents/colir_one/rocket_code/Middlewares/ST/STM32_USB_Device_Library/Core/Src/usbd_core.c ****             }
 640:/home/dat/Documents/colir_one/rocket_code/Middlewares/ST/STM32_USB_Device_Library/Core/Src/usbd_core.c ****           }
 641:/home/dat/Documents/colir_one/rocket_code/Middlewares/ST/STM32_USB_Device_Library/Core/Src/usbd_core.c ****         }
 642:/home/dat/Documents/colir_one/rocket_code/Middlewares/ST/STM32_USB_Device_Library/Core/Src/usbd_core.c **** 
 643:/home/dat/Documents/colir_one/rocket_code/Middlewares/ST/STM32_USB_Device_Library/Core/Src/usbd_core.c ****         (void)USBD_CtlSendStatus(pdev);
 644:/home/dat/Documents/colir_one/rocket_code/Middlewares/ST/STM32_USB_Device_Library/Core/Src/usbd_core.c ****       }
 645:/home/dat/Documents/colir_one/rocket_code/Middlewares/ST/STM32_USB_Device_Library/Core/Src/usbd_core.c ****     }
 646:/home/dat/Documents/colir_one/rocket_code/Middlewares/ST/STM32_USB_Device_Library/Core/Src/usbd_core.c ****   }
 647:/home/dat/Documents/colir_one/rocket_code/Middlewares/ST/STM32_USB_Device_Library/Core/Src/usbd_core.c ****   else
 648:/home/dat/Documents/colir_one/rocket_code/Middlewares/ST/STM32_USB_Device_Library/Core/Src/usbd_core.c ****   {
 649:/home/dat/Documents/colir_one/rocket_code/Middlewares/ST/STM32_USB_Device_Library/Core/Src/usbd_core.c ****     /* Get the class index relative to this interface */
 650:/home/dat/Documents/colir_one/rocket_code/Middlewares/ST/STM32_USB_Device_Library/Core/Src/usbd_core.c ****     idx = USBD_CoreFindEP(pdev, (epnum & 0x7FU));
 651:/home/dat/Documents/colir_one/rocket_code/Middlewares/ST/STM32_USB_Device_Library/Core/Src/usbd_core.c **** 
 652:/home/dat/Documents/colir_one/rocket_code/Middlewares/ST/STM32_USB_Device_Library/Core/Src/usbd_core.c ****     if (((uint16_t)idx != 0xFFU) && (idx < USBD_MAX_SUPPORTED_CLASS))
 653:/home/dat/Documents/colir_one/rocket_code/Middlewares/ST/STM32_USB_Device_Library/Core/Src/usbd_core.c ****     {
 654:/home/dat/Documents/colir_one/rocket_code/Middlewares/ST/STM32_USB_Device_Library/Core/Src/usbd_core.c ****       /* Call the class data out function to manage the request */
 655:/home/dat/Documents/colir_one/rocket_code/Middlewares/ST/STM32_USB_Device_Library/Core/Src/usbd_core.c ****       if (pdev->dev_state == USBD_STATE_CONFIGURED)
 656:/home/dat/Documents/colir_one/rocket_code/Middlewares/ST/STM32_USB_Device_Library/Core/Src/usbd_core.c ****       {
 657:/home/dat/Documents/colir_one/rocket_code/Middlewares/ST/STM32_USB_Device_Library/Core/Src/usbd_core.c ****         if (pdev->pClass[idx]->DataOut != NULL)
ARM GAS  /tmp/cc6uACF9.s 			page 22


 658:/home/dat/Documents/colir_one/rocket_code/Middlewares/ST/STM32_USB_Device_Library/Core/Src/usbd_core.c ****         {
 659:/home/dat/Documents/colir_one/rocket_code/Middlewares/ST/STM32_USB_Device_Library/Core/Src/usbd_core.c ****           pdev->classId = idx;
 660:/home/dat/Documents/colir_one/rocket_code/Middlewares/ST/STM32_USB_Device_Library/Core/Src/usbd_core.c ****           ret = (USBD_StatusTypeDef)pdev->pClass[idx]->DataOut(pdev, epnum);
 661:/home/dat/Documents/colir_one/rocket_code/Middlewares/ST/STM32_USB_Device_Library/Core/Src/usbd_core.c ****         }
 662:/home/dat/Documents/colir_one/rocket_code/Middlewares/ST/STM32_USB_Device_Library/Core/Src/usbd_core.c ****       }
 663:/home/dat/Documents/colir_one/rocket_code/Middlewares/ST/STM32_USB_Device_Library/Core/Src/usbd_core.c ****       if (ret != USBD_OK)
 664:/home/dat/Documents/colir_one/rocket_code/Middlewares/ST/STM32_USB_Device_Library/Core/Src/usbd_core.c ****       {
 665:/home/dat/Documents/colir_one/rocket_code/Middlewares/ST/STM32_USB_Device_Library/Core/Src/usbd_core.c ****         return ret;
 666:/home/dat/Documents/colir_one/rocket_code/Middlewares/ST/STM32_USB_Device_Library/Core/Src/usbd_core.c ****       }
 667:/home/dat/Documents/colir_one/rocket_code/Middlewares/ST/STM32_USB_Device_Library/Core/Src/usbd_core.c ****     }
 668:/home/dat/Documents/colir_one/rocket_code/Middlewares/ST/STM32_USB_Device_Library/Core/Src/usbd_core.c ****   }
 669:/home/dat/Documents/colir_one/rocket_code/Middlewares/ST/STM32_USB_Device_Library/Core/Src/usbd_core.c **** 
 670:/home/dat/Documents/colir_one/rocket_code/Middlewares/ST/STM32_USB_Device_Library/Core/Src/usbd_core.c ****   return USBD_OK;
 671:/home/dat/Documents/colir_one/rocket_code/Middlewares/ST/STM32_USB_Device_Library/Core/Src/usbd_core.c **** }
 672:/home/dat/Documents/colir_one/rocket_code/Middlewares/ST/STM32_USB_Device_Library/Core/Src/usbd_core.c **** 
 673:/home/dat/Documents/colir_one/rocket_code/Middlewares/ST/STM32_USB_Device_Library/Core/Src/usbd_core.c **** /**
 674:/home/dat/Documents/colir_one/rocket_code/Middlewares/ST/STM32_USB_Device_Library/Core/Src/usbd_core.c ****   * @brief  USBD_LL_DataInStage
 675:/home/dat/Documents/colir_one/rocket_code/Middlewares/ST/STM32_USB_Device_Library/Core/Src/usbd_core.c ****   *         Handle data in stage
 676:/home/dat/Documents/colir_one/rocket_code/Middlewares/ST/STM32_USB_Device_Library/Core/Src/usbd_core.c ****   * @param  pdev: device instance
 677:/home/dat/Documents/colir_one/rocket_code/Middlewares/ST/STM32_USB_Device_Library/Core/Src/usbd_core.c ****   * @param  epnum: endpoint index
 678:/home/dat/Documents/colir_one/rocket_code/Middlewares/ST/STM32_USB_Device_Library/Core/Src/usbd_core.c ****   * @param  pdata: data pointer
 679:/home/dat/Documents/colir_one/rocket_code/Middlewares/ST/STM32_USB_Device_Library/Core/Src/usbd_core.c ****   * @retval status
 680:/home/dat/Documents/colir_one/rocket_code/Middlewares/ST/STM32_USB_Device_Library/Core/Src/usbd_core.c ****   */
 681:/home/dat/Documents/colir_one/rocket_code/Middlewares/ST/STM32_USB_Device_Library/Core/Src/usbd_core.c **** USBD_StatusTypeDef USBD_LL_DataInStage(USBD_HandleTypeDef *pdev,
 682:/home/dat/Documents/colir_one/rocket_code/Middlewares/ST/STM32_USB_Device_Library/Core/Src/usbd_core.c ****                                        uint8_t epnum, uint8_t *pdata)
 683:/home/dat/Documents/colir_one/rocket_code/Middlewares/ST/STM32_USB_Device_Library/Core/Src/usbd_core.c **** {
 684:/home/dat/Documents/colir_one/rocket_code/Middlewares/ST/STM32_USB_Device_Library/Core/Src/usbd_core.c ****   USBD_EndpointTypeDef *pep;
 685:/home/dat/Documents/colir_one/rocket_code/Middlewares/ST/STM32_USB_Device_Library/Core/Src/usbd_core.c ****   USBD_StatusTypeDef ret;
 686:/home/dat/Documents/colir_one/rocket_code/Middlewares/ST/STM32_USB_Device_Library/Core/Src/usbd_core.c ****   uint8_t idx;
 687:/home/dat/Documents/colir_one/rocket_code/Middlewares/ST/STM32_USB_Device_Library/Core/Src/usbd_core.c **** 
 688:/home/dat/Documents/colir_one/rocket_code/Middlewares/ST/STM32_USB_Device_Library/Core/Src/usbd_core.c ****   if (epnum == 0U)
 689:/home/dat/Documents/colir_one/rocket_code/Middlewares/ST/STM32_USB_Device_Library/Core/Src/usbd_core.c ****   {
 690:/home/dat/Documents/colir_one/rocket_code/Middlewares/ST/STM32_USB_Device_Library/Core/Src/usbd_core.c ****     pep = &pdev->ep_in[0];
 691:/home/dat/Documents/colir_one/rocket_code/Middlewares/ST/STM32_USB_Device_Library/Core/Src/usbd_core.c **** 
 692:/home/dat/Documents/colir_one/rocket_code/Middlewares/ST/STM32_USB_Device_Library/Core/Src/usbd_core.c ****     if (pdev->ep0_state == USBD_EP0_DATA_IN)
 693:/home/dat/Documents/colir_one/rocket_code/Middlewares/ST/STM32_USB_Device_Library/Core/Src/usbd_core.c ****     {
 694:/home/dat/Documents/colir_one/rocket_code/Middlewares/ST/STM32_USB_Device_Library/Core/Src/usbd_core.c ****       if (pep->rem_length > pep->maxpacket)
 695:/home/dat/Documents/colir_one/rocket_code/Middlewares/ST/STM32_USB_Device_Library/Core/Src/usbd_core.c ****       {
 696:/home/dat/Documents/colir_one/rocket_code/Middlewares/ST/STM32_USB_Device_Library/Core/Src/usbd_core.c ****         pep->rem_length -= pep->maxpacket;
 697:/home/dat/Documents/colir_one/rocket_code/Middlewares/ST/STM32_USB_Device_Library/Core/Src/usbd_core.c **** 
 698:/home/dat/Documents/colir_one/rocket_code/Middlewares/ST/STM32_USB_Device_Library/Core/Src/usbd_core.c ****         (void)USBD_CtlContinueSendData(pdev, pdata, pep->rem_length);
 699:/home/dat/Documents/colir_one/rocket_code/Middlewares/ST/STM32_USB_Device_Library/Core/Src/usbd_core.c **** 
 700:/home/dat/Documents/colir_one/rocket_code/Middlewares/ST/STM32_USB_Device_Library/Core/Src/usbd_core.c ****         /* Prepare endpoint for premature end of transfer */
 701:/home/dat/Documents/colir_one/rocket_code/Middlewares/ST/STM32_USB_Device_Library/Core/Src/usbd_core.c ****         (void)USBD_LL_PrepareReceive(pdev, 0U, NULL, 0U);
 702:/home/dat/Documents/colir_one/rocket_code/Middlewares/ST/STM32_USB_Device_Library/Core/Src/usbd_core.c ****       }
 703:/home/dat/Documents/colir_one/rocket_code/Middlewares/ST/STM32_USB_Device_Library/Core/Src/usbd_core.c ****       else
 704:/home/dat/Documents/colir_one/rocket_code/Middlewares/ST/STM32_USB_Device_Library/Core/Src/usbd_core.c ****       {
 705:/home/dat/Documents/colir_one/rocket_code/Middlewares/ST/STM32_USB_Device_Library/Core/Src/usbd_core.c ****         /* last packet is MPS multiple, so send ZLP packet */
 706:/home/dat/Documents/colir_one/rocket_code/Middlewares/ST/STM32_USB_Device_Library/Core/Src/usbd_core.c ****         if ((pep->maxpacket == pep->rem_length) &&
 707:/home/dat/Documents/colir_one/rocket_code/Middlewares/ST/STM32_USB_Device_Library/Core/Src/usbd_core.c ****             (pep->total_length >= pep->maxpacket) &&
 708:/home/dat/Documents/colir_one/rocket_code/Middlewares/ST/STM32_USB_Device_Library/Core/Src/usbd_core.c ****             (pep->total_length < pdev->ep0_data_len))
 709:/home/dat/Documents/colir_one/rocket_code/Middlewares/ST/STM32_USB_Device_Library/Core/Src/usbd_core.c ****         {
 710:/home/dat/Documents/colir_one/rocket_code/Middlewares/ST/STM32_USB_Device_Library/Core/Src/usbd_core.c ****           (void)USBD_CtlContinueSendData(pdev, NULL, 0U);
 711:/home/dat/Documents/colir_one/rocket_code/Middlewares/ST/STM32_USB_Device_Library/Core/Src/usbd_core.c ****           pdev->ep0_data_len = 0U;
 712:/home/dat/Documents/colir_one/rocket_code/Middlewares/ST/STM32_USB_Device_Library/Core/Src/usbd_core.c **** 
 713:/home/dat/Documents/colir_one/rocket_code/Middlewares/ST/STM32_USB_Device_Library/Core/Src/usbd_core.c ****           /* Prepare endpoint for premature end of transfer */
 714:/home/dat/Documents/colir_one/rocket_code/Middlewares/ST/STM32_USB_Device_Library/Core/Src/usbd_core.c ****           (void)USBD_LL_PrepareReceive(pdev, 0U, NULL, 0U);
ARM GAS  /tmp/cc6uACF9.s 			page 23


 715:/home/dat/Documents/colir_one/rocket_code/Middlewares/ST/STM32_USB_Device_Library/Core/Src/usbd_core.c ****         }
 716:/home/dat/Documents/colir_one/rocket_code/Middlewares/ST/STM32_USB_Device_Library/Core/Src/usbd_core.c ****         else
 717:/home/dat/Documents/colir_one/rocket_code/Middlewares/ST/STM32_USB_Device_Library/Core/Src/usbd_core.c ****         {
 718:/home/dat/Documents/colir_one/rocket_code/Middlewares/ST/STM32_USB_Device_Library/Core/Src/usbd_core.c ****           if (pdev->dev_state == USBD_STATE_CONFIGURED)
 719:/home/dat/Documents/colir_one/rocket_code/Middlewares/ST/STM32_USB_Device_Library/Core/Src/usbd_core.c ****           {
 720:/home/dat/Documents/colir_one/rocket_code/Middlewares/ST/STM32_USB_Device_Library/Core/Src/usbd_core.c ****             if (pdev->pClass[0]->EP0_TxSent != NULL)
 721:/home/dat/Documents/colir_one/rocket_code/Middlewares/ST/STM32_USB_Device_Library/Core/Src/usbd_core.c ****             {
 722:/home/dat/Documents/colir_one/rocket_code/Middlewares/ST/STM32_USB_Device_Library/Core/Src/usbd_core.c ****               pdev->classId = 0U;
 723:/home/dat/Documents/colir_one/rocket_code/Middlewares/ST/STM32_USB_Device_Library/Core/Src/usbd_core.c ****               pdev->pClass[0]->EP0_TxSent(pdev);
 724:/home/dat/Documents/colir_one/rocket_code/Middlewares/ST/STM32_USB_Device_Library/Core/Src/usbd_core.c ****             }
 725:/home/dat/Documents/colir_one/rocket_code/Middlewares/ST/STM32_USB_Device_Library/Core/Src/usbd_core.c ****           }
 726:/home/dat/Documents/colir_one/rocket_code/Middlewares/ST/STM32_USB_Device_Library/Core/Src/usbd_core.c ****           (void)USBD_LL_StallEP(pdev, 0x80U);
 727:/home/dat/Documents/colir_one/rocket_code/Middlewares/ST/STM32_USB_Device_Library/Core/Src/usbd_core.c ****           (void)USBD_CtlReceiveStatus(pdev);
 728:/home/dat/Documents/colir_one/rocket_code/Middlewares/ST/STM32_USB_Device_Library/Core/Src/usbd_core.c ****         }
 729:/home/dat/Documents/colir_one/rocket_code/Middlewares/ST/STM32_USB_Device_Library/Core/Src/usbd_core.c ****       }
 730:/home/dat/Documents/colir_one/rocket_code/Middlewares/ST/STM32_USB_Device_Library/Core/Src/usbd_core.c ****     }
 731:/home/dat/Documents/colir_one/rocket_code/Middlewares/ST/STM32_USB_Device_Library/Core/Src/usbd_core.c **** 
 732:/home/dat/Documents/colir_one/rocket_code/Middlewares/ST/STM32_USB_Device_Library/Core/Src/usbd_core.c ****     if (pdev->dev_test_mode != 0U)
 733:/home/dat/Documents/colir_one/rocket_code/Middlewares/ST/STM32_USB_Device_Library/Core/Src/usbd_core.c ****     {
 734:/home/dat/Documents/colir_one/rocket_code/Middlewares/ST/STM32_USB_Device_Library/Core/Src/usbd_core.c ****       (void)USBD_RunTestMode(pdev);
 735:/home/dat/Documents/colir_one/rocket_code/Middlewares/ST/STM32_USB_Device_Library/Core/Src/usbd_core.c ****       pdev->dev_test_mode = 0U;
 736:/home/dat/Documents/colir_one/rocket_code/Middlewares/ST/STM32_USB_Device_Library/Core/Src/usbd_core.c ****     }
 737:/home/dat/Documents/colir_one/rocket_code/Middlewares/ST/STM32_USB_Device_Library/Core/Src/usbd_core.c ****   }
 738:/home/dat/Documents/colir_one/rocket_code/Middlewares/ST/STM32_USB_Device_Library/Core/Src/usbd_core.c ****   else
 739:/home/dat/Documents/colir_one/rocket_code/Middlewares/ST/STM32_USB_Device_Library/Core/Src/usbd_core.c ****   {
 740:/home/dat/Documents/colir_one/rocket_code/Middlewares/ST/STM32_USB_Device_Library/Core/Src/usbd_core.c ****     /* Get the class index relative to this interface */
 741:/home/dat/Documents/colir_one/rocket_code/Middlewares/ST/STM32_USB_Device_Library/Core/Src/usbd_core.c ****     idx = USBD_CoreFindEP(pdev, ((uint8_t)epnum | 0x80U));
 742:/home/dat/Documents/colir_one/rocket_code/Middlewares/ST/STM32_USB_Device_Library/Core/Src/usbd_core.c **** 
 743:/home/dat/Documents/colir_one/rocket_code/Middlewares/ST/STM32_USB_Device_Library/Core/Src/usbd_core.c ****     if (((uint16_t)idx != 0xFFU) && (idx < USBD_MAX_SUPPORTED_CLASS))
 744:/home/dat/Documents/colir_one/rocket_code/Middlewares/ST/STM32_USB_Device_Library/Core/Src/usbd_core.c ****     {
 745:/home/dat/Documents/colir_one/rocket_code/Middlewares/ST/STM32_USB_Device_Library/Core/Src/usbd_core.c ****       /* Call the class data out function to manage the request */
 746:/home/dat/Documents/colir_one/rocket_code/Middlewares/ST/STM32_USB_Device_Library/Core/Src/usbd_core.c ****       if (pdev->dev_state == USBD_STATE_CONFIGURED)
 747:/home/dat/Documents/colir_one/rocket_code/Middlewares/ST/STM32_USB_Device_Library/Core/Src/usbd_core.c ****       {
 748:/home/dat/Documents/colir_one/rocket_code/Middlewares/ST/STM32_USB_Device_Library/Core/Src/usbd_core.c ****         if (pdev->pClass[idx]->DataIn != NULL)
 749:/home/dat/Documents/colir_one/rocket_code/Middlewares/ST/STM32_USB_Device_Library/Core/Src/usbd_core.c ****         {
 750:/home/dat/Documents/colir_one/rocket_code/Middlewares/ST/STM32_USB_Device_Library/Core/Src/usbd_core.c ****           pdev->classId = idx;
 751:/home/dat/Documents/colir_one/rocket_code/Middlewares/ST/STM32_USB_Device_Library/Core/Src/usbd_core.c ****           ret = (USBD_StatusTypeDef)pdev->pClass[idx]->DataIn(pdev, epnum);
 752:/home/dat/Documents/colir_one/rocket_code/Middlewares/ST/STM32_USB_Device_Library/Core/Src/usbd_core.c **** 
 753:/home/dat/Documents/colir_one/rocket_code/Middlewares/ST/STM32_USB_Device_Library/Core/Src/usbd_core.c ****           if (ret != USBD_OK)
 754:/home/dat/Documents/colir_one/rocket_code/Middlewares/ST/STM32_USB_Device_Library/Core/Src/usbd_core.c ****           {
 755:/home/dat/Documents/colir_one/rocket_code/Middlewares/ST/STM32_USB_Device_Library/Core/Src/usbd_core.c ****             return ret;
 756:/home/dat/Documents/colir_one/rocket_code/Middlewares/ST/STM32_USB_Device_Library/Core/Src/usbd_core.c ****           }
 757:/home/dat/Documents/colir_one/rocket_code/Middlewares/ST/STM32_USB_Device_Library/Core/Src/usbd_core.c ****         }
 758:/home/dat/Documents/colir_one/rocket_code/Middlewares/ST/STM32_USB_Device_Library/Core/Src/usbd_core.c ****       }
 759:/home/dat/Documents/colir_one/rocket_code/Middlewares/ST/STM32_USB_Device_Library/Core/Src/usbd_core.c ****     }
 760:/home/dat/Documents/colir_one/rocket_code/Middlewares/ST/STM32_USB_Device_Library/Core/Src/usbd_core.c ****   }
 761:/home/dat/Documents/colir_one/rocket_code/Middlewares/ST/STM32_USB_Device_Library/Core/Src/usbd_core.c **** 
 762:/home/dat/Documents/colir_one/rocket_code/Middlewares/ST/STM32_USB_Device_Library/Core/Src/usbd_core.c ****   return USBD_OK;
 763:/home/dat/Documents/colir_one/rocket_code/Middlewares/ST/STM32_USB_Device_Library/Core/Src/usbd_core.c **** }
 764:/home/dat/Documents/colir_one/rocket_code/Middlewares/ST/STM32_USB_Device_Library/Core/Src/usbd_core.c **** 
 765:/home/dat/Documents/colir_one/rocket_code/Middlewares/ST/STM32_USB_Device_Library/Core/Src/usbd_core.c **** /**
 766:/home/dat/Documents/colir_one/rocket_code/Middlewares/ST/STM32_USB_Device_Library/Core/Src/usbd_core.c ****   * @brief  USBD_LL_Reset
 767:/home/dat/Documents/colir_one/rocket_code/Middlewares/ST/STM32_USB_Device_Library/Core/Src/usbd_core.c ****   *         Handle Reset event
 768:/home/dat/Documents/colir_one/rocket_code/Middlewares/ST/STM32_USB_Device_Library/Core/Src/usbd_core.c ****   * @param  pdev: device instance
 769:/home/dat/Documents/colir_one/rocket_code/Middlewares/ST/STM32_USB_Device_Library/Core/Src/usbd_core.c ****   * @retval status
 770:/home/dat/Documents/colir_one/rocket_code/Middlewares/ST/STM32_USB_Device_Library/Core/Src/usbd_core.c ****   */
 771:/home/dat/Documents/colir_one/rocket_code/Middlewares/ST/STM32_USB_Device_Library/Core/Src/usbd_core.c **** USBD_StatusTypeDef USBD_LL_Reset(USBD_HandleTypeDef *pdev)
ARM GAS  /tmp/cc6uACF9.s 			page 24


 772:/home/dat/Documents/colir_one/rocket_code/Middlewares/ST/STM32_USB_Device_Library/Core/Src/usbd_core.c **** {
 544              		.loc 1 772 1 view -0
 545              		.cfi_startproc
 546              		@ args = 0, pretend = 0, frame = 0
 547              		@ frame_needed = 0, uses_anonymous_args = 0
 548              		.loc 1 772 1 is_stmt 0 view .LVU152
 549 0000 F8B5     		push	{r3, r4, r5, r6, r7, lr}
 550              	.LCFI12:
 551              		.cfi_def_cfa_offset 24
 552              		.cfi_offset 3, -24
 553              		.cfi_offset 4, -20
 554              		.cfi_offset 5, -16
 555              		.cfi_offset 6, -12
 556              		.cfi_offset 7, -8
 557              		.cfi_offset 14, -4
 558 0002 0446     		mov	r4, r0
 773:/home/dat/Documents/colir_one/rocket_code/Middlewares/ST/STM32_USB_Device_Library/Core/Src/usbd_core.c ****   USBD_StatusTypeDef ret = USBD_OK;
 559              		.loc 1 773 3 is_stmt 1 view .LVU153
 560              	.LVL44:
 774:/home/dat/Documents/colir_one/rocket_code/Middlewares/ST/STM32_USB_Device_Library/Core/Src/usbd_core.c **** 
 775:/home/dat/Documents/colir_one/rocket_code/Middlewares/ST/STM32_USB_Device_Library/Core/Src/usbd_core.c ****   /* Upon Reset call user call back */
 776:/home/dat/Documents/colir_one/rocket_code/Middlewares/ST/STM32_USB_Device_Library/Core/Src/usbd_core.c ****   pdev->dev_state = USBD_STATE_DEFAULT;
 561              		.loc 1 776 3 view .LVU154
 562              		.loc 1 776 19 is_stmt 0 view .LVU155
 563 0004 0123     		movs	r3, #1
 564 0006 80F89C32 		strb	r3, [r0, #668]
 777:/home/dat/Documents/colir_one/rocket_code/Middlewares/ST/STM32_USB_Device_Library/Core/Src/usbd_core.c ****   pdev->ep0_state = USBD_EP0_IDLE;
 565              		.loc 1 777 3 is_stmt 1 view .LVU156
 566              		.loc 1 777 19 is_stmt 0 view .LVU157
 567 000a 0023     		movs	r3, #0
 568 000c C0F89432 		str	r3, [r0, #660]
 778:/home/dat/Documents/colir_one/rocket_code/Middlewares/ST/STM32_USB_Device_Library/Core/Src/usbd_core.c ****   pdev->dev_config = 0U;
 569              		.loc 1 778 3 is_stmt 1 view .LVU158
 570              		.loc 1 778 20 is_stmt 0 view .LVU159
 571 0010 4360     		str	r3, [r0, #4]
 779:/home/dat/Documents/colir_one/rocket_code/Middlewares/ST/STM32_USB_Device_Library/Core/Src/usbd_core.c ****   pdev->dev_remote_wakeup = 0U;
 572              		.loc 1 779 3 is_stmt 1 view .LVU160
 573              		.loc 1 779 27 is_stmt 0 view .LVU161
 574 0012 C0F8A432 		str	r3, [r0, #676]
 780:/home/dat/Documents/colir_one/rocket_code/Middlewares/ST/STM32_USB_Device_Library/Core/Src/usbd_core.c ****   pdev->dev_test_mode = 0U;
 575              		.loc 1 780 3 is_stmt 1 view .LVU162
 576              		.loc 1 780 23 is_stmt 0 view .LVU163
 577 0016 80F8A032 		strb	r3, [r0, #672]
 781:/home/dat/Documents/colir_one/rocket_code/Middlewares/ST/STM32_USB_Device_Library/Core/Src/usbd_core.c **** 
 782:/home/dat/Documents/colir_one/rocket_code/Middlewares/ST/STM32_USB_Device_Library/Core/Src/usbd_core.c **** #ifdef USE_USBD_COMPOSITE
 783:/home/dat/Documents/colir_one/rocket_code/Middlewares/ST/STM32_USB_Device_Library/Core/Src/usbd_core.c ****   /* Parse the table of classes in use */
 784:/home/dat/Documents/colir_one/rocket_code/Middlewares/ST/STM32_USB_Device_Library/Core/Src/usbd_core.c ****   for (uint32_t i = 0U; i < USBD_MAX_SUPPORTED_CLASS; i++)
 785:/home/dat/Documents/colir_one/rocket_code/Middlewares/ST/STM32_USB_Device_Library/Core/Src/usbd_core.c ****   {
 786:/home/dat/Documents/colir_one/rocket_code/Middlewares/ST/STM32_USB_Device_Library/Core/Src/usbd_core.c ****     /* Check if current class is in use */
 787:/home/dat/Documents/colir_one/rocket_code/Middlewares/ST/STM32_USB_Device_Library/Core/Src/usbd_core.c ****     if ((pdev->tclasslist[i].Active) == 1U)
 788:/home/dat/Documents/colir_one/rocket_code/Middlewares/ST/STM32_USB_Device_Library/Core/Src/usbd_core.c ****     {
 789:/home/dat/Documents/colir_one/rocket_code/Middlewares/ST/STM32_USB_Device_Library/Core/Src/usbd_core.c ****       if (pdev->pClass[i] != NULL)
 790:/home/dat/Documents/colir_one/rocket_code/Middlewares/ST/STM32_USB_Device_Library/Core/Src/usbd_core.c ****       {
 791:/home/dat/Documents/colir_one/rocket_code/Middlewares/ST/STM32_USB_Device_Library/Core/Src/usbd_core.c ****         pdev->classId = i;
 792:/home/dat/Documents/colir_one/rocket_code/Middlewares/ST/STM32_USB_Device_Library/Core/Src/usbd_core.c ****         /* Clear configuration  and De-initialize the Class process*/
 793:/home/dat/Documents/colir_one/rocket_code/Middlewares/ST/STM32_USB_Device_Library/Core/Src/usbd_core.c **** 
 794:/home/dat/Documents/colir_one/rocket_code/Middlewares/ST/STM32_USB_Device_Library/Core/Src/usbd_core.c ****         if (pdev->pClass[i]->DeInit != NULL)
ARM GAS  /tmp/cc6uACF9.s 			page 25


 795:/home/dat/Documents/colir_one/rocket_code/Middlewares/ST/STM32_USB_Device_Library/Core/Src/usbd_core.c ****         {
 796:/home/dat/Documents/colir_one/rocket_code/Middlewares/ST/STM32_USB_Device_Library/Core/Src/usbd_core.c ****           if (pdev->pClass[i]->DeInit(pdev, (uint8_t)pdev->dev_config) != USBD_OK)
 797:/home/dat/Documents/colir_one/rocket_code/Middlewares/ST/STM32_USB_Device_Library/Core/Src/usbd_core.c ****           {
 798:/home/dat/Documents/colir_one/rocket_code/Middlewares/ST/STM32_USB_Device_Library/Core/Src/usbd_core.c ****             ret = USBD_FAIL;
 799:/home/dat/Documents/colir_one/rocket_code/Middlewares/ST/STM32_USB_Device_Library/Core/Src/usbd_core.c ****           }
 800:/home/dat/Documents/colir_one/rocket_code/Middlewares/ST/STM32_USB_Device_Library/Core/Src/usbd_core.c ****         }
 801:/home/dat/Documents/colir_one/rocket_code/Middlewares/ST/STM32_USB_Device_Library/Core/Src/usbd_core.c ****       }
 802:/home/dat/Documents/colir_one/rocket_code/Middlewares/ST/STM32_USB_Device_Library/Core/Src/usbd_core.c ****     }
 803:/home/dat/Documents/colir_one/rocket_code/Middlewares/ST/STM32_USB_Device_Library/Core/Src/usbd_core.c ****   }
 804:/home/dat/Documents/colir_one/rocket_code/Middlewares/ST/STM32_USB_Device_Library/Core/Src/usbd_core.c **** #else
 805:/home/dat/Documents/colir_one/rocket_code/Middlewares/ST/STM32_USB_Device_Library/Core/Src/usbd_core.c **** 
 806:/home/dat/Documents/colir_one/rocket_code/Middlewares/ST/STM32_USB_Device_Library/Core/Src/usbd_core.c ****   if (pdev->pClass[0] != NULL)
 578              		.loc 1 806 3 is_stmt 1 view .LVU164
 579              		.loc 1 806 19 is_stmt 0 view .LVU165
 580 001a D0F8B832 		ldr	r3, [r0, #696]
 581              		.loc 1 806 6 view .LVU166
 582 001e DBB1     		cbz	r3, .L40
 807:/home/dat/Documents/colir_one/rocket_code/Middlewares/ST/STM32_USB_Device_Library/Core/Src/usbd_core.c ****   {
 808:/home/dat/Documents/colir_one/rocket_code/Middlewares/ST/STM32_USB_Device_Library/Core/Src/usbd_core.c ****     if (pdev->pClass[0]->DeInit != NULL)
 583              		.loc 1 808 5 is_stmt 1 view .LVU167
 584              		.loc 1 808 24 is_stmt 0 view .LVU168
 585 0020 5B68     		ldr	r3, [r3, #4]
 586              		.loc 1 808 8 view .LVU169
 587 0022 DBB1     		cbz	r3, .L41
 809:/home/dat/Documents/colir_one/rocket_code/Middlewares/ST/STM32_USB_Device_Library/Core/Src/usbd_core.c ****     {
 810:/home/dat/Documents/colir_one/rocket_code/Middlewares/ST/STM32_USB_Device_Library/Core/Src/usbd_core.c ****       if (pdev->pClass[0]->DeInit(pdev, (uint8_t)pdev->dev_config) != USBD_OK)
 588              		.loc 1 810 7 is_stmt 1 view .LVU170
 589              		.loc 1 810 11 is_stmt 0 view .LVU171
 590 0024 0021     		movs	r1, #0
 591 0026 9847     		blx	r3
 592              	.LVL45:
 593              		.loc 1 810 10 discriminator 1 view .LVU172
 594 0028 0746     		mov	r7, r0
 595 002a C8B9     		cbnz	r0, .L44
 596              	.L39:
 597              	.LVL46:
 811:/home/dat/Documents/colir_one/rocket_code/Middlewares/ST/STM32_USB_Device_Library/Core/Src/usbd_core.c ****       {
 812:/home/dat/Documents/colir_one/rocket_code/Middlewares/ST/STM32_USB_Device_Library/Core/Src/usbd_core.c ****         ret = USBD_FAIL;
 813:/home/dat/Documents/colir_one/rocket_code/Middlewares/ST/STM32_USB_Device_Library/Core/Src/usbd_core.c ****       }
 814:/home/dat/Documents/colir_one/rocket_code/Middlewares/ST/STM32_USB_Device_Library/Core/Src/usbd_core.c ****     }
 815:/home/dat/Documents/colir_one/rocket_code/Middlewares/ST/STM32_USB_Device_Library/Core/Src/usbd_core.c ****   }
 816:/home/dat/Documents/colir_one/rocket_code/Middlewares/ST/STM32_USB_Device_Library/Core/Src/usbd_core.c **** #endif /* USE_USBD_COMPOSITE */
 817:/home/dat/Documents/colir_one/rocket_code/Middlewares/ST/STM32_USB_Device_Library/Core/Src/usbd_core.c **** 
 818:/home/dat/Documents/colir_one/rocket_code/Middlewares/ST/STM32_USB_Device_Library/Core/Src/usbd_core.c ****   /* Open EP0 OUT */
 819:/home/dat/Documents/colir_one/rocket_code/Middlewares/ST/STM32_USB_Device_Library/Core/Src/usbd_core.c ****   (void)USBD_LL_OpenEP(pdev, 0x00U, USBD_EP_TYPE_CTRL, USB_MAX_EP0_SIZE);
 598              		.loc 1 819 3 is_stmt 1 view .LVU173
 599              		.loc 1 819 9 is_stmt 0 view .LVU174
 600 002c 4023     		movs	r3, #64
 601 002e 0022     		movs	r2, #0
 602 0030 1146     		mov	r1, r2
 603 0032 2046     		mov	r0, r4
 604 0034 FFF7FEFF 		bl	USBD_LL_OpenEP
 605              	.LVL47:
 820:/home/dat/Documents/colir_one/rocket_code/Middlewares/ST/STM32_USB_Device_Library/Core/Src/usbd_core.c ****   pdev->ep_out[0x00U & 0xFU].is_used = 1U;
 606              		.loc 1 820 3 is_stmt 1 view .LVU175
 607              		.loc 1 820 38 is_stmt 0 view .LVU176
 608 0038 0126     		movs	r6, #1
ARM GAS  /tmp/cc6uACF9.s 			page 26


 609 003a A4F86461 		strh	r6, [r4, #356]	@ movhi
 821:/home/dat/Documents/colir_one/rocket_code/Middlewares/ST/STM32_USB_Device_Library/Core/Src/usbd_core.c **** 
 822:/home/dat/Documents/colir_one/rocket_code/Middlewares/ST/STM32_USB_Device_Library/Core/Src/usbd_core.c ****   pdev->ep_out[0].maxpacket = USB_MAX_EP0_SIZE;
 610              		.loc 1 822 3 is_stmt 1 view .LVU177
 611              		.loc 1 822 29 is_stmt 0 view .LVU178
 612 003e 4025     		movs	r5, #64
 613 0040 C4F86051 		str	r5, [r4, #352]
 823:/home/dat/Documents/colir_one/rocket_code/Middlewares/ST/STM32_USB_Device_Library/Core/Src/usbd_core.c **** 
 824:/home/dat/Documents/colir_one/rocket_code/Middlewares/ST/STM32_USB_Device_Library/Core/Src/usbd_core.c ****   /* Open EP0 IN */
 825:/home/dat/Documents/colir_one/rocket_code/Middlewares/ST/STM32_USB_Device_Library/Core/Src/usbd_core.c ****   (void)USBD_LL_OpenEP(pdev, 0x80U, USBD_EP_TYPE_CTRL, USB_MAX_EP0_SIZE);
 614              		.loc 1 825 3 is_stmt 1 view .LVU179
 615              		.loc 1 825 9 is_stmt 0 view .LVU180
 616 0044 2B46     		mov	r3, r5
 617 0046 0022     		movs	r2, #0
 618 0048 8021     		movs	r1, #128
 619 004a 2046     		mov	r0, r4
 620 004c FFF7FEFF 		bl	USBD_LL_OpenEP
 621              	.LVL48:
 826:/home/dat/Documents/colir_one/rocket_code/Middlewares/ST/STM32_USB_Device_Library/Core/Src/usbd_core.c ****   pdev->ep_in[0x80U & 0xFU].is_used = 1U;
 622              		.loc 1 826 3 is_stmt 1 view .LVU181
 623              		.loc 1 826 37 is_stmt 0 view .LVU182
 624 0050 A684     		strh	r6, [r4, #36]	@ movhi
 827:/home/dat/Documents/colir_one/rocket_code/Middlewares/ST/STM32_USB_Device_Library/Core/Src/usbd_core.c **** 
 828:/home/dat/Documents/colir_one/rocket_code/Middlewares/ST/STM32_USB_Device_Library/Core/Src/usbd_core.c ****   pdev->ep_in[0].maxpacket = USB_MAX_EP0_SIZE;
 625              		.loc 1 828 3 is_stmt 1 view .LVU183
 626              		.loc 1 828 28 is_stmt 0 view .LVU184
 627 0052 2562     		str	r5, [r4, #32]
 829:/home/dat/Documents/colir_one/rocket_code/Middlewares/ST/STM32_USB_Device_Library/Core/Src/usbd_core.c **** 
 830:/home/dat/Documents/colir_one/rocket_code/Middlewares/ST/STM32_USB_Device_Library/Core/Src/usbd_core.c ****   return ret;
 628              		.loc 1 830 3 is_stmt 1 view .LVU185
 831:/home/dat/Documents/colir_one/rocket_code/Middlewares/ST/STM32_USB_Device_Library/Core/Src/usbd_core.c **** }
 629              		.loc 1 831 1 is_stmt 0 view .LVU186
 630 0054 3846     		mov	r0, r7
 631 0056 F8BD     		pop	{r3, r4, r5, r6, r7, pc}
 632              	.LVL49:
 633              	.L40:
 773:/home/dat/Documents/colir_one/rocket_code/Middlewares/ST/STM32_USB_Device_Library/Core/Src/usbd_core.c **** 
 634              		.loc 1 773 22 view .LVU187
 635 0058 0027     		movs	r7, #0
 636 005a E7E7     		b	.L39
 637              	.L41:
 638 005c 0027     		movs	r7, #0
 639 005e E5E7     		b	.L39
 640              	.LVL50:
 641              	.L44:
 812:/home/dat/Documents/colir_one/rocket_code/Middlewares/ST/STM32_USB_Device_Library/Core/Src/usbd_core.c ****       }
 642              		.loc 1 812 13 view .LVU188
 643 0060 0327     		movs	r7, #3
 644 0062 E3E7     		b	.L39
 645              		.cfi_endproc
 646              	.LFE149:
 648              		.section	.text.USBD_LL_SetSpeed,"ax",%progbits
 649              		.align	1
 650              		.global	USBD_LL_SetSpeed
 651              		.syntax unified
 652              		.thumb
 653              		.thumb_func
ARM GAS  /tmp/cc6uACF9.s 			page 27


 655              	USBD_LL_SetSpeed:
 656              	.LVL51:
 657              	.LFB150:
 832:/home/dat/Documents/colir_one/rocket_code/Middlewares/ST/STM32_USB_Device_Library/Core/Src/usbd_core.c **** 
 833:/home/dat/Documents/colir_one/rocket_code/Middlewares/ST/STM32_USB_Device_Library/Core/Src/usbd_core.c **** /**
 834:/home/dat/Documents/colir_one/rocket_code/Middlewares/ST/STM32_USB_Device_Library/Core/Src/usbd_core.c ****   * @brief  USBD_LL_SetSpeed
 835:/home/dat/Documents/colir_one/rocket_code/Middlewares/ST/STM32_USB_Device_Library/Core/Src/usbd_core.c ****   *         Handle Reset event
 836:/home/dat/Documents/colir_one/rocket_code/Middlewares/ST/STM32_USB_Device_Library/Core/Src/usbd_core.c ****   * @param  pdev: device instance
 837:/home/dat/Documents/colir_one/rocket_code/Middlewares/ST/STM32_USB_Device_Library/Core/Src/usbd_core.c ****   * @retval status
 838:/home/dat/Documents/colir_one/rocket_code/Middlewares/ST/STM32_USB_Device_Library/Core/Src/usbd_core.c ****   */
 839:/home/dat/Documents/colir_one/rocket_code/Middlewares/ST/STM32_USB_Device_Library/Core/Src/usbd_core.c **** USBD_StatusTypeDef USBD_LL_SetSpeed(USBD_HandleTypeDef *pdev,
 840:/home/dat/Documents/colir_one/rocket_code/Middlewares/ST/STM32_USB_Device_Library/Core/Src/usbd_core.c ****                                     USBD_SpeedTypeDef speed)
 841:/home/dat/Documents/colir_one/rocket_code/Middlewares/ST/STM32_USB_Device_Library/Core/Src/usbd_core.c **** {
 658              		.loc 1 841 1 is_stmt 1 view -0
 659              		.cfi_startproc
 660              		@ args = 0, pretend = 0, frame = 0
 661              		@ frame_needed = 0, uses_anonymous_args = 0
 662              		@ link register save eliminated.
 842:/home/dat/Documents/colir_one/rocket_code/Middlewares/ST/STM32_USB_Device_Library/Core/Src/usbd_core.c ****   pdev->dev_speed = speed;
 663              		.loc 1 842 3 view .LVU190
 664              		.loc 1 842 19 is_stmt 0 view .LVU191
 665 0000 0174     		strb	r1, [r0, #16]
 843:/home/dat/Documents/colir_one/rocket_code/Middlewares/ST/STM32_USB_Device_Library/Core/Src/usbd_core.c **** 
 844:/home/dat/Documents/colir_one/rocket_code/Middlewares/ST/STM32_USB_Device_Library/Core/Src/usbd_core.c ****   return USBD_OK;
 666              		.loc 1 844 3 is_stmt 1 view .LVU192
 845:/home/dat/Documents/colir_one/rocket_code/Middlewares/ST/STM32_USB_Device_Library/Core/Src/usbd_core.c **** }
 667              		.loc 1 845 1 is_stmt 0 view .LVU193
 668 0002 0020     		movs	r0, #0
 669              	.LVL52:
 670              		.loc 1 845 1 view .LVU194
 671 0004 7047     		bx	lr
 672              		.cfi_endproc
 673              	.LFE150:
 675              		.section	.text.USBD_LL_Suspend,"ax",%progbits
 676              		.align	1
 677              		.global	USBD_LL_Suspend
 678              		.syntax unified
 679              		.thumb
 680              		.thumb_func
 682              	USBD_LL_Suspend:
 683              	.LVL53:
 684              	.LFB151:
 846:/home/dat/Documents/colir_one/rocket_code/Middlewares/ST/STM32_USB_Device_Library/Core/Src/usbd_core.c **** 
 847:/home/dat/Documents/colir_one/rocket_code/Middlewares/ST/STM32_USB_Device_Library/Core/Src/usbd_core.c **** /**
 848:/home/dat/Documents/colir_one/rocket_code/Middlewares/ST/STM32_USB_Device_Library/Core/Src/usbd_core.c ****   * @brief  USBD_LL_Suspend
 849:/home/dat/Documents/colir_one/rocket_code/Middlewares/ST/STM32_USB_Device_Library/Core/Src/usbd_core.c ****   *         Handle Suspend event
 850:/home/dat/Documents/colir_one/rocket_code/Middlewares/ST/STM32_USB_Device_Library/Core/Src/usbd_core.c ****   * @param  pdev: device instance
 851:/home/dat/Documents/colir_one/rocket_code/Middlewares/ST/STM32_USB_Device_Library/Core/Src/usbd_core.c ****   * @retval status
 852:/home/dat/Documents/colir_one/rocket_code/Middlewares/ST/STM32_USB_Device_Library/Core/Src/usbd_core.c ****   */
 853:/home/dat/Documents/colir_one/rocket_code/Middlewares/ST/STM32_USB_Device_Library/Core/Src/usbd_core.c **** USBD_StatusTypeDef USBD_LL_Suspend(USBD_HandleTypeDef *pdev)
 854:/home/dat/Documents/colir_one/rocket_code/Middlewares/ST/STM32_USB_Device_Library/Core/Src/usbd_core.c **** {
 685              		.loc 1 854 1 is_stmt 1 view -0
 686              		.cfi_startproc
 687              		@ args = 0, pretend = 0, frame = 0
 688              		@ frame_needed = 0, uses_anonymous_args = 0
 689              		@ link register save eliminated.
 855:/home/dat/Documents/colir_one/rocket_code/Middlewares/ST/STM32_USB_Device_Library/Core/Src/usbd_core.c ****   if (pdev->dev_state != USBD_STATE_SUSPENDED)
ARM GAS  /tmp/cc6uACF9.s 			page 28


 690              		.loc 1 855 3 view .LVU196
 691              		.loc 1 855 11 is_stmt 0 view .LVU197
 692 0000 90F89C32 		ldrb	r3, [r0, #668]	@ zero_extendqisi2
 693 0004 DBB2     		uxtb	r3, r3
 694              		.loc 1 855 6 view .LVU198
 695 0006 042B     		cmp	r3, #4
 696 0008 04D0     		beq	.L47
 856:/home/dat/Documents/colir_one/rocket_code/Middlewares/ST/STM32_USB_Device_Library/Core/Src/usbd_core.c ****   {
 857:/home/dat/Documents/colir_one/rocket_code/Middlewares/ST/STM32_USB_Device_Library/Core/Src/usbd_core.c ****     pdev->dev_old_state = pdev->dev_state;
 697              		.loc 1 857 5 is_stmt 1 view .LVU199
 698              		.loc 1 857 31 is_stmt 0 view .LVU200
 699 000a 90F89C32 		ldrb	r3, [r0, #668]	@ zero_extendqisi2
 700 000e DBB2     		uxtb	r3, r3
 701              		.loc 1 857 25 view .LVU201
 702 0010 80F89D32 		strb	r3, [r0, #669]
 703              	.L47:
 858:/home/dat/Documents/colir_one/rocket_code/Middlewares/ST/STM32_USB_Device_Library/Core/Src/usbd_core.c ****   }
 859:/home/dat/Documents/colir_one/rocket_code/Middlewares/ST/STM32_USB_Device_Library/Core/Src/usbd_core.c **** 
 860:/home/dat/Documents/colir_one/rocket_code/Middlewares/ST/STM32_USB_Device_Library/Core/Src/usbd_core.c ****   pdev->dev_state = USBD_STATE_SUSPENDED;
 704              		.loc 1 860 3 is_stmt 1 view .LVU202
 705              		.loc 1 860 19 is_stmt 0 view .LVU203
 706 0014 0423     		movs	r3, #4
 707 0016 80F89C32 		strb	r3, [r0, #668]
 861:/home/dat/Documents/colir_one/rocket_code/Middlewares/ST/STM32_USB_Device_Library/Core/Src/usbd_core.c **** 
 862:/home/dat/Documents/colir_one/rocket_code/Middlewares/ST/STM32_USB_Device_Library/Core/Src/usbd_core.c ****   return USBD_OK;
 708              		.loc 1 862 3 is_stmt 1 view .LVU204
 863:/home/dat/Documents/colir_one/rocket_code/Middlewares/ST/STM32_USB_Device_Library/Core/Src/usbd_core.c **** }
 709              		.loc 1 863 1 is_stmt 0 view .LVU205
 710 001a 0020     		movs	r0, #0
 711              	.LVL54:
 712              		.loc 1 863 1 view .LVU206
 713 001c 7047     		bx	lr
 714              		.cfi_endproc
 715              	.LFE151:
 717              		.section	.text.USBD_LL_Resume,"ax",%progbits
 718              		.align	1
 719              		.global	USBD_LL_Resume
 720              		.syntax unified
 721              		.thumb
 722              		.thumb_func
 724              	USBD_LL_Resume:
 725              	.LVL55:
 726              	.LFB152:
 864:/home/dat/Documents/colir_one/rocket_code/Middlewares/ST/STM32_USB_Device_Library/Core/Src/usbd_core.c **** 
 865:/home/dat/Documents/colir_one/rocket_code/Middlewares/ST/STM32_USB_Device_Library/Core/Src/usbd_core.c **** /**
 866:/home/dat/Documents/colir_one/rocket_code/Middlewares/ST/STM32_USB_Device_Library/Core/Src/usbd_core.c ****   * @brief  USBD_LL_Resume
 867:/home/dat/Documents/colir_one/rocket_code/Middlewares/ST/STM32_USB_Device_Library/Core/Src/usbd_core.c ****   *         Handle Resume event
 868:/home/dat/Documents/colir_one/rocket_code/Middlewares/ST/STM32_USB_Device_Library/Core/Src/usbd_core.c ****   * @param  pdev: device instance
 869:/home/dat/Documents/colir_one/rocket_code/Middlewares/ST/STM32_USB_Device_Library/Core/Src/usbd_core.c ****   * @retval status
 870:/home/dat/Documents/colir_one/rocket_code/Middlewares/ST/STM32_USB_Device_Library/Core/Src/usbd_core.c ****   */
 871:/home/dat/Documents/colir_one/rocket_code/Middlewares/ST/STM32_USB_Device_Library/Core/Src/usbd_core.c **** USBD_StatusTypeDef USBD_LL_Resume(USBD_HandleTypeDef *pdev)
 872:/home/dat/Documents/colir_one/rocket_code/Middlewares/ST/STM32_USB_Device_Library/Core/Src/usbd_core.c **** {
 727              		.loc 1 872 1 is_stmt 1 view -0
 728              		.cfi_startproc
 729              		@ args = 0, pretend = 0, frame = 0
 730              		@ frame_needed = 0, uses_anonymous_args = 0
 731              		@ link register save eliminated.
ARM GAS  /tmp/cc6uACF9.s 			page 29


 873:/home/dat/Documents/colir_one/rocket_code/Middlewares/ST/STM32_USB_Device_Library/Core/Src/usbd_core.c ****   if (pdev->dev_state == USBD_STATE_SUSPENDED)
 732              		.loc 1 873 3 view .LVU208
 733              		.loc 1 873 11 is_stmt 0 view .LVU209
 734 0000 90F89C32 		ldrb	r3, [r0, #668]	@ zero_extendqisi2
 735 0004 DBB2     		uxtb	r3, r3
 736              		.loc 1 873 6 view .LVU210
 737 0006 042B     		cmp	r3, #4
 738 0008 01D0     		beq	.L50
 739              	.L49:
 874:/home/dat/Documents/colir_one/rocket_code/Middlewares/ST/STM32_USB_Device_Library/Core/Src/usbd_core.c ****   {
 875:/home/dat/Documents/colir_one/rocket_code/Middlewares/ST/STM32_USB_Device_Library/Core/Src/usbd_core.c ****     pdev->dev_state = pdev->dev_old_state;
 876:/home/dat/Documents/colir_one/rocket_code/Middlewares/ST/STM32_USB_Device_Library/Core/Src/usbd_core.c ****   }
 877:/home/dat/Documents/colir_one/rocket_code/Middlewares/ST/STM32_USB_Device_Library/Core/Src/usbd_core.c **** 
 878:/home/dat/Documents/colir_one/rocket_code/Middlewares/ST/STM32_USB_Device_Library/Core/Src/usbd_core.c ****   return USBD_OK;
 740              		.loc 1 878 3 is_stmt 1 view .LVU211
 879:/home/dat/Documents/colir_one/rocket_code/Middlewares/ST/STM32_USB_Device_Library/Core/Src/usbd_core.c **** }
 741              		.loc 1 879 1 is_stmt 0 view .LVU212
 742 000a 0020     		movs	r0, #0
 743              	.LVL56:
 744              		.loc 1 879 1 view .LVU213
 745 000c 7047     		bx	lr
 746              	.LVL57:
 747              	.L50:
 875:/home/dat/Documents/colir_one/rocket_code/Middlewares/ST/STM32_USB_Device_Library/Core/Src/usbd_core.c ****   }
 748              		.loc 1 875 5 is_stmt 1 view .LVU214
 875:/home/dat/Documents/colir_one/rocket_code/Middlewares/ST/STM32_USB_Device_Library/Core/Src/usbd_core.c ****   }
 749              		.loc 1 875 27 is_stmt 0 view .LVU215
 750 000e 90F89D32 		ldrb	r3, [r0, #669]	@ zero_extendqisi2
 751 0012 DBB2     		uxtb	r3, r3
 875:/home/dat/Documents/colir_one/rocket_code/Middlewares/ST/STM32_USB_Device_Library/Core/Src/usbd_core.c ****   }
 752              		.loc 1 875 21 view .LVU216
 753 0014 80F89C32 		strb	r3, [r0, #668]
 754 0018 F7E7     		b	.L49
 755              		.cfi_endproc
 756              	.LFE152:
 758              		.section	.text.USBD_LL_SOF,"ax",%progbits
 759              		.align	1
 760              		.global	USBD_LL_SOF
 761              		.syntax unified
 762              		.thumb
 763              		.thumb_func
 765              	USBD_LL_SOF:
 766              	.LVL58:
 767              	.LFB153:
 880:/home/dat/Documents/colir_one/rocket_code/Middlewares/ST/STM32_USB_Device_Library/Core/Src/usbd_core.c **** 
 881:/home/dat/Documents/colir_one/rocket_code/Middlewares/ST/STM32_USB_Device_Library/Core/Src/usbd_core.c **** /**
 882:/home/dat/Documents/colir_one/rocket_code/Middlewares/ST/STM32_USB_Device_Library/Core/Src/usbd_core.c ****   * @brief  USBD_LL_SOF
 883:/home/dat/Documents/colir_one/rocket_code/Middlewares/ST/STM32_USB_Device_Library/Core/Src/usbd_core.c ****   *         Handle SOF event
 884:/home/dat/Documents/colir_one/rocket_code/Middlewares/ST/STM32_USB_Device_Library/Core/Src/usbd_core.c ****   * @param  pdev: device instance
 885:/home/dat/Documents/colir_one/rocket_code/Middlewares/ST/STM32_USB_Device_Library/Core/Src/usbd_core.c ****   * @retval status
 886:/home/dat/Documents/colir_one/rocket_code/Middlewares/ST/STM32_USB_Device_Library/Core/Src/usbd_core.c ****   */
 887:/home/dat/Documents/colir_one/rocket_code/Middlewares/ST/STM32_USB_Device_Library/Core/Src/usbd_core.c **** USBD_StatusTypeDef USBD_LL_SOF(USBD_HandleTypeDef *pdev)
 888:/home/dat/Documents/colir_one/rocket_code/Middlewares/ST/STM32_USB_Device_Library/Core/Src/usbd_core.c **** {
 768              		.loc 1 888 1 is_stmt 1 view -0
 769              		.cfi_startproc
 770              		@ args = 0, pretend = 0, frame = 0
 771              		@ frame_needed = 0, uses_anonymous_args = 0
ARM GAS  /tmp/cc6uACF9.s 			page 30


 772              		.loc 1 888 1 is_stmt 0 view .LVU218
 773 0000 08B5     		push	{r3, lr}
 774              	.LCFI13:
 775              		.cfi_def_cfa_offset 8
 776              		.cfi_offset 3, -8
 777              		.cfi_offset 14, -4
 889:/home/dat/Documents/colir_one/rocket_code/Middlewares/ST/STM32_USB_Device_Library/Core/Src/usbd_core.c ****   /* The SOF event can be distributed for all classes that support it */
 890:/home/dat/Documents/colir_one/rocket_code/Middlewares/ST/STM32_USB_Device_Library/Core/Src/usbd_core.c ****   if (pdev->dev_state == USBD_STATE_CONFIGURED)
 778              		.loc 1 890 3 is_stmt 1 view .LVU219
 779              		.loc 1 890 11 is_stmt 0 view .LVU220
 780 0002 90F89C32 		ldrb	r3, [r0, #668]	@ zero_extendqisi2
 781 0006 DBB2     		uxtb	r3, r3
 782              		.loc 1 890 6 view .LVU221
 783 0008 032B     		cmp	r3, #3
 784 000a 01D0     		beq	.L54
 785              	.LVL59:
 786              	.L52:
 891:/home/dat/Documents/colir_one/rocket_code/Middlewares/ST/STM32_USB_Device_Library/Core/Src/usbd_core.c ****   {
 892:/home/dat/Documents/colir_one/rocket_code/Middlewares/ST/STM32_USB_Device_Library/Core/Src/usbd_core.c **** #ifdef USE_USBD_COMPOSITE
 893:/home/dat/Documents/colir_one/rocket_code/Middlewares/ST/STM32_USB_Device_Library/Core/Src/usbd_core.c ****     /* Parse the table of classes in use */
 894:/home/dat/Documents/colir_one/rocket_code/Middlewares/ST/STM32_USB_Device_Library/Core/Src/usbd_core.c ****     for (uint32_t i = 0; i < USBD_MAX_SUPPORTED_CLASS; i++)
 895:/home/dat/Documents/colir_one/rocket_code/Middlewares/ST/STM32_USB_Device_Library/Core/Src/usbd_core.c ****     {
 896:/home/dat/Documents/colir_one/rocket_code/Middlewares/ST/STM32_USB_Device_Library/Core/Src/usbd_core.c ****       /* Check if current class is in use */
 897:/home/dat/Documents/colir_one/rocket_code/Middlewares/ST/STM32_USB_Device_Library/Core/Src/usbd_core.c ****       if ((pdev->tclasslist[i].Active) == 1U)
 898:/home/dat/Documents/colir_one/rocket_code/Middlewares/ST/STM32_USB_Device_Library/Core/Src/usbd_core.c ****       {
 899:/home/dat/Documents/colir_one/rocket_code/Middlewares/ST/STM32_USB_Device_Library/Core/Src/usbd_core.c ****         if (pdev->pClass[i] != NULL)
 900:/home/dat/Documents/colir_one/rocket_code/Middlewares/ST/STM32_USB_Device_Library/Core/Src/usbd_core.c ****         {
 901:/home/dat/Documents/colir_one/rocket_code/Middlewares/ST/STM32_USB_Device_Library/Core/Src/usbd_core.c ****           if (pdev->pClass[i]->SOF != NULL)
 902:/home/dat/Documents/colir_one/rocket_code/Middlewares/ST/STM32_USB_Device_Library/Core/Src/usbd_core.c ****           {
 903:/home/dat/Documents/colir_one/rocket_code/Middlewares/ST/STM32_USB_Device_Library/Core/Src/usbd_core.c ****             pdev->classId = i;
 904:/home/dat/Documents/colir_one/rocket_code/Middlewares/ST/STM32_USB_Device_Library/Core/Src/usbd_core.c ****             (void)pdev->pClass[i]->SOF(pdev);
 905:/home/dat/Documents/colir_one/rocket_code/Middlewares/ST/STM32_USB_Device_Library/Core/Src/usbd_core.c ****           }
 906:/home/dat/Documents/colir_one/rocket_code/Middlewares/ST/STM32_USB_Device_Library/Core/Src/usbd_core.c ****         }
 907:/home/dat/Documents/colir_one/rocket_code/Middlewares/ST/STM32_USB_Device_Library/Core/Src/usbd_core.c ****       }
 908:/home/dat/Documents/colir_one/rocket_code/Middlewares/ST/STM32_USB_Device_Library/Core/Src/usbd_core.c ****     }
 909:/home/dat/Documents/colir_one/rocket_code/Middlewares/ST/STM32_USB_Device_Library/Core/Src/usbd_core.c **** #else
 910:/home/dat/Documents/colir_one/rocket_code/Middlewares/ST/STM32_USB_Device_Library/Core/Src/usbd_core.c ****     if (pdev->pClass[0] != NULL)
 911:/home/dat/Documents/colir_one/rocket_code/Middlewares/ST/STM32_USB_Device_Library/Core/Src/usbd_core.c ****     {
 912:/home/dat/Documents/colir_one/rocket_code/Middlewares/ST/STM32_USB_Device_Library/Core/Src/usbd_core.c ****       if (pdev->pClass[0]->SOF != NULL)
 913:/home/dat/Documents/colir_one/rocket_code/Middlewares/ST/STM32_USB_Device_Library/Core/Src/usbd_core.c ****       {
 914:/home/dat/Documents/colir_one/rocket_code/Middlewares/ST/STM32_USB_Device_Library/Core/Src/usbd_core.c ****         (void)pdev->pClass[0]->SOF(pdev);
 915:/home/dat/Documents/colir_one/rocket_code/Middlewares/ST/STM32_USB_Device_Library/Core/Src/usbd_core.c ****       }
 916:/home/dat/Documents/colir_one/rocket_code/Middlewares/ST/STM32_USB_Device_Library/Core/Src/usbd_core.c ****     }
 917:/home/dat/Documents/colir_one/rocket_code/Middlewares/ST/STM32_USB_Device_Library/Core/Src/usbd_core.c **** #endif /* USE_USBD_COMPOSITE */
 918:/home/dat/Documents/colir_one/rocket_code/Middlewares/ST/STM32_USB_Device_Library/Core/Src/usbd_core.c ****   }
 919:/home/dat/Documents/colir_one/rocket_code/Middlewares/ST/STM32_USB_Device_Library/Core/Src/usbd_core.c **** 
 920:/home/dat/Documents/colir_one/rocket_code/Middlewares/ST/STM32_USB_Device_Library/Core/Src/usbd_core.c ****   return USBD_OK;
 787              		.loc 1 920 3 is_stmt 1 view .LVU222
 921:/home/dat/Documents/colir_one/rocket_code/Middlewares/ST/STM32_USB_Device_Library/Core/Src/usbd_core.c **** }
 788              		.loc 1 921 1 is_stmt 0 view .LVU223
 789 000c 0020     		movs	r0, #0
 790 000e 08BD     		pop	{r3, pc}
 791              	.LVL60:
 792              	.L54:
 910:/home/dat/Documents/colir_one/rocket_code/Middlewares/ST/STM32_USB_Device_Library/Core/Src/usbd_core.c ****     {
 793              		.loc 1 910 5 is_stmt 1 view .LVU224
 910:/home/dat/Documents/colir_one/rocket_code/Middlewares/ST/STM32_USB_Device_Library/Core/Src/usbd_core.c ****     {
ARM GAS  /tmp/cc6uACF9.s 			page 31


 794              		.loc 1 910 21 is_stmt 0 view .LVU225
 795 0010 D0F8B832 		ldr	r3, [r0, #696]
 910:/home/dat/Documents/colir_one/rocket_code/Middlewares/ST/STM32_USB_Device_Library/Core/Src/usbd_core.c ****     {
 796              		.loc 1 910 8 view .LVU226
 797 0014 002B     		cmp	r3, #0
 798 0016 F9D0     		beq	.L52
 912:/home/dat/Documents/colir_one/rocket_code/Middlewares/ST/STM32_USB_Device_Library/Core/Src/usbd_core.c ****       {
 799              		.loc 1 912 7 is_stmt 1 view .LVU227
 912:/home/dat/Documents/colir_one/rocket_code/Middlewares/ST/STM32_USB_Device_Library/Core/Src/usbd_core.c ****       {
 800              		.loc 1 912 26 is_stmt 0 view .LVU228
 801 0018 DB69     		ldr	r3, [r3, #28]
 912:/home/dat/Documents/colir_one/rocket_code/Middlewares/ST/STM32_USB_Device_Library/Core/Src/usbd_core.c ****       {
 802              		.loc 1 912 10 view .LVU229
 803 001a 002B     		cmp	r3, #0
 804 001c F6D0     		beq	.L52
 914:/home/dat/Documents/colir_one/rocket_code/Middlewares/ST/STM32_USB_Device_Library/Core/Src/usbd_core.c ****       }
 805              		.loc 1 914 9 is_stmt 1 view .LVU230
 914:/home/dat/Documents/colir_one/rocket_code/Middlewares/ST/STM32_USB_Device_Library/Core/Src/usbd_core.c ****       }
 806              		.loc 1 914 15 is_stmt 0 view .LVU231
 807 001e 9847     		blx	r3
 808              	.LVL61:
 914:/home/dat/Documents/colir_one/rocket_code/Middlewares/ST/STM32_USB_Device_Library/Core/Src/usbd_core.c ****       }
 809              		.loc 1 914 15 view .LVU232
 810 0020 F4E7     		b	.L52
 811              		.cfi_endproc
 812              	.LFE153:
 814              		.section	.text.USBD_LL_IsoINIncomplete,"ax",%progbits
 815              		.align	1
 816              		.global	USBD_LL_IsoINIncomplete
 817              		.syntax unified
 818              		.thumb
 819              		.thumb_func
 821              	USBD_LL_IsoINIncomplete:
 822              	.LVL62:
 823              	.LFB154:
 922:/home/dat/Documents/colir_one/rocket_code/Middlewares/ST/STM32_USB_Device_Library/Core/Src/usbd_core.c **** 
 923:/home/dat/Documents/colir_one/rocket_code/Middlewares/ST/STM32_USB_Device_Library/Core/Src/usbd_core.c **** /**
 924:/home/dat/Documents/colir_one/rocket_code/Middlewares/ST/STM32_USB_Device_Library/Core/Src/usbd_core.c ****   * @brief  USBD_LL_IsoINIncomplete
 925:/home/dat/Documents/colir_one/rocket_code/Middlewares/ST/STM32_USB_Device_Library/Core/Src/usbd_core.c ****   *         Handle iso in incomplete event
 926:/home/dat/Documents/colir_one/rocket_code/Middlewares/ST/STM32_USB_Device_Library/Core/Src/usbd_core.c ****   * @param  pdev: device instance
 927:/home/dat/Documents/colir_one/rocket_code/Middlewares/ST/STM32_USB_Device_Library/Core/Src/usbd_core.c ****   * @param  epnum: Endpoint number
 928:/home/dat/Documents/colir_one/rocket_code/Middlewares/ST/STM32_USB_Device_Library/Core/Src/usbd_core.c ****   * @retval status
 929:/home/dat/Documents/colir_one/rocket_code/Middlewares/ST/STM32_USB_Device_Library/Core/Src/usbd_core.c ****   */
 930:/home/dat/Documents/colir_one/rocket_code/Middlewares/ST/STM32_USB_Device_Library/Core/Src/usbd_core.c **** USBD_StatusTypeDef USBD_LL_IsoINIncomplete(USBD_HandleTypeDef *pdev,
 931:/home/dat/Documents/colir_one/rocket_code/Middlewares/ST/STM32_USB_Device_Library/Core/Src/usbd_core.c ****                                            uint8_t epnum)
 932:/home/dat/Documents/colir_one/rocket_code/Middlewares/ST/STM32_USB_Device_Library/Core/Src/usbd_core.c **** {
 824              		.loc 1 932 1 is_stmt 1 view -0
 825              		.cfi_startproc
 826              		@ args = 0, pretend = 0, frame = 0
 827              		@ frame_needed = 0, uses_anonymous_args = 0
 828              		.loc 1 932 1 is_stmt 0 view .LVU234
 829 0000 08B5     		push	{r3, lr}
 830              	.LCFI14:
 831              		.cfi_def_cfa_offset 8
 832              		.cfi_offset 3, -8
 833              		.cfi_offset 14, -4
 933:/home/dat/Documents/colir_one/rocket_code/Middlewares/ST/STM32_USB_Device_Library/Core/Src/usbd_core.c ****   if (pdev->pClass[pdev->classId] == NULL)
ARM GAS  /tmp/cc6uACF9.s 			page 32


 834              		.loc 1 933 3 is_stmt 1 view .LVU235
 835              		.loc 1 933 24 is_stmt 0 view .LVU236
 836 0002 D0F8D432 		ldr	r3, [r0, #724]
 837              		.loc 1 933 19 view .LVU237
 838 0006 AE33     		adds	r3, r3, #174
 839 0008 50F82320 		ldr	r2, [r0, r3, lsl #2]
 840              		.loc 1 933 6 view .LVU238
 841 000c 5AB1     		cbz	r2, .L57
 934:/home/dat/Documents/colir_one/rocket_code/Middlewares/ST/STM32_USB_Device_Library/Core/Src/usbd_core.c ****   {
 935:/home/dat/Documents/colir_one/rocket_code/Middlewares/ST/STM32_USB_Device_Library/Core/Src/usbd_core.c ****     return USBD_FAIL;
 936:/home/dat/Documents/colir_one/rocket_code/Middlewares/ST/STM32_USB_Device_Library/Core/Src/usbd_core.c ****   }
 937:/home/dat/Documents/colir_one/rocket_code/Middlewares/ST/STM32_USB_Device_Library/Core/Src/usbd_core.c **** 
 938:/home/dat/Documents/colir_one/rocket_code/Middlewares/ST/STM32_USB_Device_Library/Core/Src/usbd_core.c ****   if (pdev->dev_state == USBD_STATE_CONFIGURED)
 842              		.loc 1 938 3 is_stmt 1 view .LVU239
 843              		.loc 1 938 11 is_stmt 0 view .LVU240
 844 000e 90F89C32 		ldrb	r3, [r0, #668]	@ zero_extendqisi2
 845 0012 DBB2     		uxtb	r3, r3
 846              		.loc 1 938 6 view .LVU241
 847 0014 032B     		cmp	r3, #3
 848 0016 01D0     		beq	.L61
 939:/home/dat/Documents/colir_one/rocket_code/Middlewares/ST/STM32_USB_Device_Library/Core/Src/usbd_core.c ****   {
 940:/home/dat/Documents/colir_one/rocket_code/Middlewares/ST/STM32_USB_Device_Library/Core/Src/usbd_core.c ****     if (pdev->pClass[pdev->classId]->IsoINIncomplete != NULL)
 941:/home/dat/Documents/colir_one/rocket_code/Middlewares/ST/STM32_USB_Device_Library/Core/Src/usbd_core.c ****     {
 942:/home/dat/Documents/colir_one/rocket_code/Middlewares/ST/STM32_USB_Device_Library/Core/Src/usbd_core.c ****       (void)pdev->pClass[pdev->classId]->IsoINIncomplete(pdev, epnum);
 943:/home/dat/Documents/colir_one/rocket_code/Middlewares/ST/STM32_USB_Device_Library/Core/Src/usbd_core.c ****     }
 944:/home/dat/Documents/colir_one/rocket_code/Middlewares/ST/STM32_USB_Device_Library/Core/Src/usbd_core.c ****   }
 945:/home/dat/Documents/colir_one/rocket_code/Middlewares/ST/STM32_USB_Device_Library/Core/Src/usbd_core.c **** 
 946:/home/dat/Documents/colir_one/rocket_code/Middlewares/ST/STM32_USB_Device_Library/Core/Src/usbd_core.c ****   return USBD_OK;
 849              		.loc 1 946 10 view .LVU242
 850 0018 0020     		movs	r0, #0
 851              	.LVL63:
 852              	.L56:
 947:/home/dat/Documents/colir_one/rocket_code/Middlewares/ST/STM32_USB_Device_Library/Core/Src/usbd_core.c **** }
 853              		.loc 1 947 1 view .LVU243
 854 001a 08BD     		pop	{r3, pc}
 855              	.LVL64:
 856              	.L61:
 940:/home/dat/Documents/colir_one/rocket_code/Middlewares/ST/STM32_USB_Device_Library/Core/Src/usbd_core.c ****     {
 857              		.loc 1 940 5 is_stmt 1 view .LVU244
 940:/home/dat/Documents/colir_one/rocket_code/Middlewares/ST/STM32_USB_Device_Library/Core/Src/usbd_core.c ****     {
 858              		.loc 1 940 36 is_stmt 0 view .LVU245
 859 001c 136A     		ldr	r3, [r2, #32]
 940:/home/dat/Documents/colir_one/rocket_code/Middlewares/ST/STM32_USB_Device_Library/Core/Src/usbd_core.c ****     {
 860              		.loc 1 940 8 view .LVU246
 861 001e 23B1     		cbz	r3, .L59
 942:/home/dat/Documents/colir_one/rocket_code/Middlewares/ST/STM32_USB_Device_Library/Core/Src/usbd_core.c ****     }
 862              		.loc 1 942 7 is_stmt 1 view .LVU247
 942:/home/dat/Documents/colir_one/rocket_code/Middlewares/ST/STM32_USB_Device_Library/Core/Src/usbd_core.c ****     }
 863              		.loc 1 942 13 is_stmt 0 view .LVU248
 864 0020 9847     		blx	r3
 865              	.LVL65:
 946:/home/dat/Documents/colir_one/rocket_code/Middlewares/ST/STM32_USB_Device_Library/Core/Src/usbd_core.c **** }
 866              		.loc 1 946 10 view .LVU249
 867 0022 0020     		movs	r0, #0
 868 0024 F9E7     		b	.L56
 869              	.LVL66:
 870              	.L57:
ARM GAS  /tmp/cc6uACF9.s 			page 33


 935:/home/dat/Documents/colir_one/rocket_code/Middlewares/ST/STM32_USB_Device_Library/Core/Src/usbd_core.c ****   }
 871              		.loc 1 935 12 view .LVU250
 872 0026 0320     		movs	r0, #3
 873              	.LVL67:
 935:/home/dat/Documents/colir_one/rocket_code/Middlewares/ST/STM32_USB_Device_Library/Core/Src/usbd_core.c ****   }
 874              		.loc 1 935 12 view .LVU251
 875 0028 F7E7     		b	.L56
 876              	.LVL68:
 877              	.L59:
 946:/home/dat/Documents/colir_one/rocket_code/Middlewares/ST/STM32_USB_Device_Library/Core/Src/usbd_core.c **** }
 878              		.loc 1 946 10 view .LVU252
 879 002a 0020     		movs	r0, #0
 880              	.LVL69:
 946:/home/dat/Documents/colir_one/rocket_code/Middlewares/ST/STM32_USB_Device_Library/Core/Src/usbd_core.c **** }
 881              		.loc 1 946 10 view .LVU253
 882 002c F5E7     		b	.L56
 883              		.cfi_endproc
 884              	.LFE154:
 886              		.section	.text.USBD_LL_IsoOUTIncomplete,"ax",%progbits
 887              		.align	1
 888              		.global	USBD_LL_IsoOUTIncomplete
 889              		.syntax unified
 890              		.thumb
 891              		.thumb_func
 893              	USBD_LL_IsoOUTIncomplete:
 894              	.LVL70:
 895              	.LFB155:
 948:/home/dat/Documents/colir_one/rocket_code/Middlewares/ST/STM32_USB_Device_Library/Core/Src/usbd_core.c **** 
 949:/home/dat/Documents/colir_one/rocket_code/Middlewares/ST/STM32_USB_Device_Library/Core/Src/usbd_core.c **** /**
 950:/home/dat/Documents/colir_one/rocket_code/Middlewares/ST/STM32_USB_Device_Library/Core/Src/usbd_core.c ****   * @brief  USBD_LL_IsoOUTIncomplete
 951:/home/dat/Documents/colir_one/rocket_code/Middlewares/ST/STM32_USB_Device_Library/Core/Src/usbd_core.c ****   *         Handle iso out incomplete event
 952:/home/dat/Documents/colir_one/rocket_code/Middlewares/ST/STM32_USB_Device_Library/Core/Src/usbd_core.c ****   * @param  pdev: device instance
 953:/home/dat/Documents/colir_one/rocket_code/Middlewares/ST/STM32_USB_Device_Library/Core/Src/usbd_core.c ****   * @param  epnum: Endpoint number
 954:/home/dat/Documents/colir_one/rocket_code/Middlewares/ST/STM32_USB_Device_Library/Core/Src/usbd_core.c ****   * @retval status
 955:/home/dat/Documents/colir_one/rocket_code/Middlewares/ST/STM32_USB_Device_Library/Core/Src/usbd_core.c ****   */
 956:/home/dat/Documents/colir_one/rocket_code/Middlewares/ST/STM32_USB_Device_Library/Core/Src/usbd_core.c **** USBD_StatusTypeDef USBD_LL_IsoOUTIncomplete(USBD_HandleTypeDef *pdev,
 957:/home/dat/Documents/colir_one/rocket_code/Middlewares/ST/STM32_USB_Device_Library/Core/Src/usbd_core.c ****                                             uint8_t epnum)
 958:/home/dat/Documents/colir_one/rocket_code/Middlewares/ST/STM32_USB_Device_Library/Core/Src/usbd_core.c **** {
 896              		.loc 1 958 1 is_stmt 1 view -0
 897              		.cfi_startproc
 898              		@ args = 0, pretend = 0, frame = 0
 899              		@ frame_needed = 0, uses_anonymous_args = 0
 900              		.loc 1 958 1 is_stmt 0 view .LVU255
 901 0000 08B5     		push	{r3, lr}
 902              	.LCFI15:
 903              		.cfi_def_cfa_offset 8
 904              		.cfi_offset 3, -8
 905              		.cfi_offset 14, -4
 959:/home/dat/Documents/colir_one/rocket_code/Middlewares/ST/STM32_USB_Device_Library/Core/Src/usbd_core.c ****   if (pdev->pClass[pdev->classId] == NULL)
 906              		.loc 1 959 3 is_stmt 1 view .LVU256
 907              		.loc 1 959 24 is_stmt 0 view .LVU257
 908 0002 D0F8D432 		ldr	r3, [r0, #724]
 909              		.loc 1 959 19 view .LVU258
 910 0006 AE33     		adds	r3, r3, #174
 911 0008 50F82320 		ldr	r2, [r0, r3, lsl #2]
 912              		.loc 1 959 6 view .LVU259
 913 000c 5AB1     		cbz	r2, .L64
ARM GAS  /tmp/cc6uACF9.s 			page 34


 960:/home/dat/Documents/colir_one/rocket_code/Middlewares/ST/STM32_USB_Device_Library/Core/Src/usbd_core.c ****   {
 961:/home/dat/Documents/colir_one/rocket_code/Middlewares/ST/STM32_USB_Device_Library/Core/Src/usbd_core.c ****     return USBD_FAIL;
 962:/home/dat/Documents/colir_one/rocket_code/Middlewares/ST/STM32_USB_Device_Library/Core/Src/usbd_core.c ****   }
 963:/home/dat/Documents/colir_one/rocket_code/Middlewares/ST/STM32_USB_Device_Library/Core/Src/usbd_core.c **** 
 964:/home/dat/Documents/colir_one/rocket_code/Middlewares/ST/STM32_USB_Device_Library/Core/Src/usbd_core.c ****   if (pdev->dev_state == USBD_STATE_CONFIGURED)
 914              		.loc 1 964 3 is_stmt 1 view .LVU260
 915              		.loc 1 964 11 is_stmt 0 view .LVU261
 916 000e 90F89C32 		ldrb	r3, [r0, #668]	@ zero_extendqisi2
 917 0012 DBB2     		uxtb	r3, r3
 918              		.loc 1 964 6 view .LVU262
 919 0014 032B     		cmp	r3, #3
 920 0016 01D0     		beq	.L68
 965:/home/dat/Documents/colir_one/rocket_code/Middlewares/ST/STM32_USB_Device_Library/Core/Src/usbd_core.c ****   {
 966:/home/dat/Documents/colir_one/rocket_code/Middlewares/ST/STM32_USB_Device_Library/Core/Src/usbd_core.c ****     if (pdev->pClass[pdev->classId]->IsoOUTIncomplete != NULL)
 967:/home/dat/Documents/colir_one/rocket_code/Middlewares/ST/STM32_USB_Device_Library/Core/Src/usbd_core.c ****     {
 968:/home/dat/Documents/colir_one/rocket_code/Middlewares/ST/STM32_USB_Device_Library/Core/Src/usbd_core.c ****       (void)pdev->pClass[pdev->classId]->IsoOUTIncomplete(pdev, epnum);
 969:/home/dat/Documents/colir_one/rocket_code/Middlewares/ST/STM32_USB_Device_Library/Core/Src/usbd_core.c ****     }
 970:/home/dat/Documents/colir_one/rocket_code/Middlewares/ST/STM32_USB_Device_Library/Core/Src/usbd_core.c ****   }
 971:/home/dat/Documents/colir_one/rocket_code/Middlewares/ST/STM32_USB_Device_Library/Core/Src/usbd_core.c **** 
 972:/home/dat/Documents/colir_one/rocket_code/Middlewares/ST/STM32_USB_Device_Library/Core/Src/usbd_core.c ****   return USBD_OK;
 921              		.loc 1 972 10 view .LVU263
 922 0018 0020     		movs	r0, #0
 923              	.LVL71:
 924              	.L63:
 973:/home/dat/Documents/colir_one/rocket_code/Middlewares/ST/STM32_USB_Device_Library/Core/Src/usbd_core.c **** }
 925              		.loc 1 973 1 view .LVU264
 926 001a 08BD     		pop	{r3, pc}
 927              	.LVL72:
 928              	.L68:
 966:/home/dat/Documents/colir_one/rocket_code/Middlewares/ST/STM32_USB_Device_Library/Core/Src/usbd_core.c ****     {
 929              		.loc 1 966 5 is_stmt 1 view .LVU265
 966:/home/dat/Documents/colir_one/rocket_code/Middlewares/ST/STM32_USB_Device_Library/Core/Src/usbd_core.c ****     {
 930              		.loc 1 966 36 is_stmt 0 view .LVU266
 931 001c 536A     		ldr	r3, [r2, #36]
 966:/home/dat/Documents/colir_one/rocket_code/Middlewares/ST/STM32_USB_Device_Library/Core/Src/usbd_core.c ****     {
 932              		.loc 1 966 8 view .LVU267
 933 001e 23B1     		cbz	r3, .L66
 968:/home/dat/Documents/colir_one/rocket_code/Middlewares/ST/STM32_USB_Device_Library/Core/Src/usbd_core.c ****     }
 934              		.loc 1 968 7 is_stmt 1 view .LVU268
 968:/home/dat/Documents/colir_one/rocket_code/Middlewares/ST/STM32_USB_Device_Library/Core/Src/usbd_core.c ****     }
 935              		.loc 1 968 13 is_stmt 0 view .LVU269
 936 0020 9847     		blx	r3
 937              	.LVL73:
 972:/home/dat/Documents/colir_one/rocket_code/Middlewares/ST/STM32_USB_Device_Library/Core/Src/usbd_core.c **** }
 938              		.loc 1 972 10 view .LVU270
 939 0022 0020     		movs	r0, #0
 940 0024 F9E7     		b	.L63
 941              	.LVL74:
 942              	.L64:
 961:/home/dat/Documents/colir_one/rocket_code/Middlewares/ST/STM32_USB_Device_Library/Core/Src/usbd_core.c ****   }
 943              		.loc 1 961 12 view .LVU271
 944 0026 0320     		movs	r0, #3
 945              	.LVL75:
 961:/home/dat/Documents/colir_one/rocket_code/Middlewares/ST/STM32_USB_Device_Library/Core/Src/usbd_core.c ****   }
 946              		.loc 1 961 12 view .LVU272
 947 0028 F7E7     		b	.L63
 948              	.LVL76:
ARM GAS  /tmp/cc6uACF9.s 			page 35


 949              	.L66:
 972:/home/dat/Documents/colir_one/rocket_code/Middlewares/ST/STM32_USB_Device_Library/Core/Src/usbd_core.c **** }
 950              		.loc 1 972 10 view .LVU273
 951 002a 0020     		movs	r0, #0
 952              	.LVL77:
 972:/home/dat/Documents/colir_one/rocket_code/Middlewares/ST/STM32_USB_Device_Library/Core/Src/usbd_core.c **** }
 953              		.loc 1 972 10 view .LVU274
 954 002c F5E7     		b	.L63
 955              		.cfi_endproc
 956              	.LFE155:
 958              		.section	.text.USBD_LL_DevConnected,"ax",%progbits
 959              		.align	1
 960              		.global	USBD_LL_DevConnected
 961              		.syntax unified
 962              		.thumb
 963              		.thumb_func
 965              	USBD_LL_DevConnected:
 966              	.LVL78:
 967              	.LFB156:
 974:/home/dat/Documents/colir_one/rocket_code/Middlewares/ST/STM32_USB_Device_Library/Core/Src/usbd_core.c **** 
 975:/home/dat/Documents/colir_one/rocket_code/Middlewares/ST/STM32_USB_Device_Library/Core/Src/usbd_core.c **** /**
 976:/home/dat/Documents/colir_one/rocket_code/Middlewares/ST/STM32_USB_Device_Library/Core/Src/usbd_core.c ****   * @brief  USBD_LL_DevConnected
 977:/home/dat/Documents/colir_one/rocket_code/Middlewares/ST/STM32_USB_Device_Library/Core/Src/usbd_core.c ****   *         Handle device connection event
 978:/home/dat/Documents/colir_one/rocket_code/Middlewares/ST/STM32_USB_Device_Library/Core/Src/usbd_core.c ****   * @param  pdev: device instance
 979:/home/dat/Documents/colir_one/rocket_code/Middlewares/ST/STM32_USB_Device_Library/Core/Src/usbd_core.c ****   * @retval status
 980:/home/dat/Documents/colir_one/rocket_code/Middlewares/ST/STM32_USB_Device_Library/Core/Src/usbd_core.c ****   */
 981:/home/dat/Documents/colir_one/rocket_code/Middlewares/ST/STM32_USB_Device_Library/Core/Src/usbd_core.c **** USBD_StatusTypeDef USBD_LL_DevConnected(USBD_HandleTypeDef *pdev)
 982:/home/dat/Documents/colir_one/rocket_code/Middlewares/ST/STM32_USB_Device_Library/Core/Src/usbd_core.c **** {
 968              		.loc 1 982 1 is_stmt 1 view -0
 969              		.cfi_startproc
 970              		@ args = 0, pretend = 0, frame = 0
 971              		@ frame_needed = 0, uses_anonymous_args = 0
 972              		@ link register save eliminated.
 983:/home/dat/Documents/colir_one/rocket_code/Middlewares/ST/STM32_USB_Device_Library/Core/Src/usbd_core.c ****   /* Prevent unused argument compilation warning */
 984:/home/dat/Documents/colir_one/rocket_code/Middlewares/ST/STM32_USB_Device_Library/Core/Src/usbd_core.c ****   UNUSED(pdev);
 973              		.loc 1 984 3 view .LVU276
 985:/home/dat/Documents/colir_one/rocket_code/Middlewares/ST/STM32_USB_Device_Library/Core/Src/usbd_core.c **** 
 986:/home/dat/Documents/colir_one/rocket_code/Middlewares/ST/STM32_USB_Device_Library/Core/Src/usbd_core.c ****   return USBD_OK;
 974              		.loc 1 986 3 view .LVU277
 987:/home/dat/Documents/colir_one/rocket_code/Middlewares/ST/STM32_USB_Device_Library/Core/Src/usbd_core.c **** }
 975              		.loc 1 987 1 is_stmt 0 view .LVU278
 976 0000 0020     		movs	r0, #0
 977              	.LVL79:
 978              		.loc 1 987 1 view .LVU279
 979 0002 7047     		bx	lr
 980              		.cfi_endproc
 981              	.LFE156:
 983              		.section	.text.USBD_LL_DevDisconnected,"ax",%progbits
 984              		.align	1
 985              		.global	USBD_LL_DevDisconnected
 986              		.syntax unified
 987              		.thumb
 988              		.thumb_func
 990              	USBD_LL_DevDisconnected:
 991              	.LVL80:
 992              	.LFB157:
 988:/home/dat/Documents/colir_one/rocket_code/Middlewares/ST/STM32_USB_Device_Library/Core/Src/usbd_core.c **** 
ARM GAS  /tmp/cc6uACF9.s 			page 36


 989:/home/dat/Documents/colir_one/rocket_code/Middlewares/ST/STM32_USB_Device_Library/Core/Src/usbd_core.c **** /**
 990:/home/dat/Documents/colir_one/rocket_code/Middlewares/ST/STM32_USB_Device_Library/Core/Src/usbd_core.c ****   * @brief  USBD_LL_DevDisconnected
 991:/home/dat/Documents/colir_one/rocket_code/Middlewares/ST/STM32_USB_Device_Library/Core/Src/usbd_core.c ****   *         Handle device disconnection event
 992:/home/dat/Documents/colir_one/rocket_code/Middlewares/ST/STM32_USB_Device_Library/Core/Src/usbd_core.c ****   * @param  pdev: device instance
 993:/home/dat/Documents/colir_one/rocket_code/Middlewares/ST/STM32_USB_Device_Library/Core/Src/usbd_core.c ****   * @retval status
 994:/home/dat/Documents/colir_one/rocket_code/Middlewares/ST/STM32_USB_Device_Library/Core/Src/usbd_core.c ****   */
 995:/home/dat/Documents/colir_one/rocket_code/Middlewares/ST/STM32_USB_Device_Library/Core/Src/usbd_core.c **** USBD_StatusTypeDef USBD_LL_DevDisconnected(USBD_HandleTypeDef *pdev)
 996:/home/dat/Documents/colir_one/rocket_code/Middlewares/ST/STM32_USB_Device_Library/Core/Src/usbd_core.c **** {
 993              		.loc 1 996 1 is_stmt 1 view -0
 994              		.cfi_startproc
 995              		@ args = 0, pretend = 0, frame = 0
 996              		@ frame_needed = 0, uses_anonymous_args = 0
 997              		.loc 1 996 1 is_stmt 0 view .LVU281
 998 0000 08B5     		push	{r3, lr}
 999              	.LCFI16:
 1000              		.cfi_def_cfa_offset 8
 1001              		.cfi_offset 3, -8
 1002              		.cfi_offset 14, -4
 997:/home/dat/Documents/colir_one/rocket_code/Middlewares/ST/STM32_USB_Device_Library/Core/Src/usbd_core.c ****   USBD_StatusTypeDef   ret = USBD_OK;
 1003              		.loc 1 997 3 is_stmt 1 view .LVU282
 1004              	.LVL81:
 998:/home/dat/Documents/colir_one/rocket_code/Middlewares/ST/STM32_USB_Device_Library/Core/Src/usbd_core.c **** 
 999:/home/dat/Documents/colir_one/rocket_code/Middlewares/ST/STM32_USB_Device_Library/Core/Src/usbd_core.c ****   /* Free Class Resources */
1000:/home/dat/Documents/colir_one/rocket_code/Middlewares/ST/STM32_USB_Device_Library/Core/Src/usbd_core.c ****   pdev->dev_state = USBD_STATE_DEFAULT;
 1005              		.loc 1 1000 3 view .LVU283
 1006              		.loc 1 1000 19 is_stmt 0 view .LVU284
 1007 0002 0123     		movs	r3, #1
 1008 0004 80F89C32 		strb	r3, [r0, #668]
1001:/home/dat/Documents/colir_one/rocket_code/Middlewares/ST/STM32_USB_Device_Library/Core/Src/usbd_core.c **** 
1002:/home/dat/Documents/colir_one/rocket_code/Middlewares/ST/STM32_USB_Device_Library/Core/Src/usbd_core.c **** #ifdef USE_USBD_COMPOSITE
1003:/home/dat/Documents/colir_one/rocket_code/Middlewares/ST/STM32_USB_Device_Library/Core/Src/usbd_core.c ****   /* Parse the table of classes in use */
1004:/home/dat/Documents/colir_one/rocket_code/Middlewares/ST/STM32_USB_Device_Library/Core/Src/usbd_core.c ****   for (uint32_t i = 0; i < USBD_MAX_SUPPORTED_CLASS; i++)
1005:/home/dat/Documents/colir_one/rocket_code/Middlewares/ST/STM32_USB_Device_Library/Core/Src/usbd_core.c ****   {
1006:/home/dat/Documents/colir_one/rocket_code/Middlewares/ST/STM32_USB_Device_Library/Core/Src/usbd_core.c ****     /* Check if current class is in use */
1007:/home/dat/Documents/colir_one/rocket_code/Middlewares/ST/STM32_USB_Device_Library/Core/Src/usbd_core.c ****     if ((pdev->tclasslist[i].Active) == 1U)
1008:/home/dat/Documents/colir_one/rocket_code/Middlewares/ST/STM32_USB_Device_Library/Core/Src/usbd_core.c ****     {
1009:/home/dat/Documents/colir_one/rocket_code/Middlewares/ST/STM32_USB_Device_Library/Core/Src/usbd_core.c ****       if (pdev->pClass[i] != NULL)
1010:/home/dat/Documents/colir_one/rocket_code/Middlewares/ST/STM32_USB_Device_Library/Core/Src/usbd_core.c ****       {
1011:/home/dat/Documents/colir_one/rocket_code/Middlewares/ST/STM32_USB_Device_Library/Core/Src/usbd_core.c ****         pdev->classId = i;
1012:/home/dat/Documents/colir_one/rocket_code/Middlewares/ST/STM32_USB_Device_Library/Core/Src/usbd_core.c ****         /* Clear configuration  and De-initialize the Class process*/
1013:/home/dat/Documents/colir_one/rocket_code/Middlewares/ST/STM32_USB_Device_Library/Core/Src/usbd_core.c ****         if (pdev->pClass[i]->DeInit(pdev, (uint8_t)pdev->dev_config) != 0U)
1014:/home/dat/Documents/colir_one/rocket_code/Middlewares/ST/STM32_USB_Device_Library/Core/Src/usbd_core.c ****         {
1015:/home/dat/Documents/colir_one/rocket_code/Middlewares/ST/STM32_USB_Device_Library/Core/Src/usbd_core.c ****           ret = USBD_FAIL;
1016:/home/dat/Documents/colir_one/rocket_code/Middlewares/ST/STM32_USB_Device_Library/Core/Src/usbd_core.c ****         }
1017:/home/dat/Documents/colir_one/rocket_code/Middlewares/ST/STM32_USB_Device_Library/Core/Src/usbd_core.c ****       }
1018:/home/dat/Documents/colir_one/rocket_code/Middlewares/ST/STM32_USB_Device_Library/Core/Src/usbd_core.c ****     }
1019:/home/dat/Documents/colir_one/rocket_code/Middlewares/ST/STM32_USB_Device_Library/Core/Src/usbd_core.c ****   }
1020:/home/dat/Documents/colir_one/rocket_code/Middlewares/ST/STM32_USB_Device_Library/Core/Src/usbd_core.c **** #else
1021:/home/dat/Documents/colir_one/rocket_code/Middlewares/ST/STM32_USB_Device_Library/Core/Src/usbd_core.c ****   if (pdev->pClass[0] != NULL)
 1009              		.loc 1 1021 3 is_stmt 1 view .LVU285
 1010              		.loc 1 1021 19 is_stmt 0 view .LVU286
 1011 0008 D0F8B832 		ldr	r3, [r0, #696]
 1012              		.loc 1 1021 6 view .LVU287
 1013 000c 23B1     		cbz	r3, .L72
1022:/home/dat/Documents/colir_one/rocket_code/Middlewares/ST/STM32_USB_Device_Library/Core/Src/usbd_core.c ****   {
1023:/home/dat/Documents/colir_one/rocket_code/Middlewares/ST/STM32_USB_Device_Library/Core/Src/usbd_core.c ****     if (pdev->pClass[0]->DeInit(pdev, (uint8_t)pdev->dev_config) != 0U)
 1014              		.loc 1 1023 5 is_stmt 1 view .LVU288
ARM GAS  /tmp/cc6uACF9.s 			page 37


 1015              		.loc 1 1023 24 is_stmt 0 view .LVU289
 1016 000e 5B68     		ldr	r3, [r3, #4]
 1017              		.loc 1 1023 9 view .LVU290
 1018 0010 0179     		ldrb	r1, [r0, #4]	@ zero_extendqisi2
 1019 0012 9847     		blx	r3
 1020              	.LVL82:
 1021              		.loc 1 1023 8 discriminator 1 view .LVU291
 1022 0014 10B9     		cbnz	r0, .L75
 1023              	.L71:
 1024              	.LVL83:
1024:/home/dat/Documents/colir_one/rocket_code/Middlewares/ST/STM32_USB_Device_Library/Core/Src/usbd_core.c ****     {
1025:/home/dat/Documents/colir_one/rocket_code/Middlewares/ST/STM32_USB_Device_Library/Core/Src/usbd_core.c ****       ret = USBD_FAIL;
1026:/home/dat/Documents/colir_one/rocket_code/Middlewares/ST/STM32_USB_Device_Library/Core/Src/usbd_core.c ****     }
1027:/home/dat/Documents/colir_one/rocket_code/Middlewares/ST/STM32_USB_Device_Library/Core/Src/usbd_core.c ****   }
1028:/home/dat/Documents/colir_one/rocket_code/Middlewares/ST/STM32_USB_Device_Library/Core/Src/usbd_core.c **** #endif /* USE_USBD_COMPOSITE */
1029:/home/dat/Documents/colir_one/rocket_code/Middlewares/ST/STM32_USB_Device_Library/Core/Src/usbd_core.c **** 
1030:/home/dat/Documents/colir_one/rocket_code/Middlewares/ST/STM32_USB_Device_Library/Core/Src/usbd_core.c ****   return ret;
 1025              		.loc 1 1030 3 is_stmt 1 view .LVU292
1031:/home/dat/Documents/colir_one/rocket_code/Middlewares/ST/STM32_USB_Device_Library/Core/Src/usbd_core.c **** }
 1026              		.loc 1 1031 1 is_stmt 0 view .LVU293
 1027 0016 08BD     		pop	{r3, pc}
 1028              	.LVL84:
 1029              	.L72:
 997:/home/dat/Documents/colir_one/rocket_code/Middlewares/ST/STM32_USB_Device_Library/Core/Src/usbd_core.c **** 
 1030              		.loc 1 997 24 view .LVU294
 1031 0018 0020     		movs	r0, #0
 1032              	.LVL85:
 997:/home/dat/Documents/colir_one/rocket_code/Middlewares/ST/STM32_USB_Device_Library/Core/Src/usbd_core.c **** 
 1033              		.loc 1 997 24 view .LVU295
 1034 001a FCE7     		b	.L71
 1035              	.L75:
1025:/home/dat/Documents/colir_one/rocket_code/Middlewares/ST/STM32_USB_Device_Library/Core/Src/usbd_core.c ****     }
 1036              		.loc 1 1025 11 view .LVU296
 1037 001c 0320     		movs	r0, #3
 1038 001e FAE7     		b	.L71
 1039              		.cfi_endproc
 1040              	.LFE157:
 1042              		.section	.text.USBD_CoreFindIF,"ax",%progbits
 1043              		.align	1
 1044              		.global	USBD_CoreFindIF
 1045              		.syntax unified
 1046              		.thumb
 1047              		.thumb_func
 1049              	USBD_CoreFindIF:
 1050              	.LVL86:
 1051              	.LFB158:
1032:/home/dat/Documents/colir_one/rocket_code/Middlewares/ST/STM32_USB_Device_Library/Core/Src/usbd_core.c **** 
1033:/home/dat/Documents/colir_one/rocket_code/Middlewares/ST/STM32_USB_Device_Library/Core/Src/usbd_core.c **** /**
1034:/home/dat/Documents/colir_one/rocket_code/Middlewares/ST/STM32_USB_Device_Library/Core/Src/usbd_core.c ****   * @brief  USBD_CoreFindIF
1035:/home/dat/Documents/colir_one/rocket_code/Middlewares/ST/STM32_USB_Device_Library/Core/Src/usbd_core.c ****   *         return the class index relative to the selected interface
1036:/home/dat/Documents/colir_one/rocket_code/Middlewares/ST/STM32_USB_Device_Library/Core/Src/usbd_core.c ****   * @param  pdev: device instance
1037:/home/dat/Documents/colir_one/rocket_code/Middlewares/ST/STM32_USB_Device_Library/Core/Src/usbd_core.c ****   * @param  index : selected interface number
1038:/home/dat/Documents/colir_one/rocket_code/Middlewares/ST/STM32_USB_Device_Library/Core/Src/usbd_core.c ****   * @retval index of the class using the selected interface number. OxFF if no class found.
1039:/home/dat/Documents/colir_one/rocket_code/Middlewares/ST/STM32_USB_Device_Library/Core/Src/usbd_core.c ****   */
1040:/home/dat/Documents/colir_one/rocket_code/Middlewares/ST/STM32_USB_Device_Library/Core/Src/usbd_core.c **** uint8_t USBD_CoreFindIF(USBD_HandleTypeDef *pdev, uint8_t index)
1041:/home/dat/Documents/colir_one/rocket_code/Middlewares/ST/STM32_USB_Device_Library/Core/Src/usbd_core.c **** {
 1052              		.loc 1 1041 1 is_stmt 1 view -0
ARM GAS  /tmp/cc6uACF9.s 			page 38


 1053              		.cfi_startproc
 1054              		@ args = 0, pretend = 0, frame = 0
 1055              		@ frame_needed = 0, uses_anonymous_args = 0
 1056              		@ link register save eliminated.
1042:/home/dat/Documents/colir_one/rocket_code/Middlewares/ST/STM32_USB_Device_Library/Core/Src/usbd_core.c **** #ifdef USE_USBD_COMPOSITE
1043:/home/dat/Documents/colir_one/rocket_code/Middlewares/ST/STM32_USB_Device_Library/Core/Src/usbd_core.c ****   /* Parse the table of classes in use */
1044:/home/dat/Documents/colir_one/rocket_code/Middlewares/ST/STM32_USB_Device_Library/Core/Src/usbd_core.c ****   for (uint32_t i = 0U; i < USBD_MAX_SUPPORTED_CLASS; i++)
1045:/home/dat/Documents/colir_one/rocket_code/Middlewares/ST/STM32_USB_Device_Library/Core/Src/usbd_core.c ****   {
1046:/home/dat/Documents/colir_one/rocket_code/Middlewares/ST/STM32_USB_Device_Library/Core/Src/usbd_core.c ****     /* Check if current class is in use */
1047:/home/dat/Documents/colir_one/rocket_code/Middlewares/ST/STM32_USB_Device_Library/Core/Src/usbd_core.c ****     if ((pdev->tclasslist[i].Active) == 1U)
1048:/home/dat/Documents/colir_one/rocket_code/Middlewares/ST/STM32_USB_Device_Library/Core/Src/usbd_core.c ****     {
1049:/home/dat/Documents/colir_one/rocket_code/Middlewares/ST/STM32_USB_Device_Library/Core/Src/usbd_core.c ****       /* Parse all interfaces listed in the current class */
1050:/home/dat/Documents/colir_one/rocket_code/Middlewares/ST/STM32_USB_Device_Library/Core/Src/usbd_core.c ****       for (uint32_t j = 0U; j < pdev->tclasslist[i].NumIf; j++)
1051:/home/dat/Documents/colir_one/rocket_code/Middlewares/ST/STM32_USB_Device_Library/Core/Src/usbd_core.c ****       {
1052:/home/dat/Documents/colir_one/rocket_code/Middlewares/ST/STM32_USB_Device_Library/Core/Src/usbd_core.c ****         /* Check if requested Interface matches the current class interface */
1053:/home/dat/Documents/colir_one/rocket_code/Middlewares/ST/STM32_USB_Device_Library/Core/Src/usbd_core.c ****         if (pdev->tclasslist[i].Ifs[j] == index)
1054:/home/dat/Documents/colir_one/rocket_code/Middlewares/ST/STM32_USB_Device_Library/Core/Src/usbd_core.c ****         {
1055:/home/dat/Documents/colir_one/rocket_code/Middlewares/ST/STM32_USB_Device_Library/Core/Src/usbd_core.c ****           if (pdev->pClass[i]->Setup != NULL)
1056:/home/dat/Documents/colir_one/rocket_code/Middlewares/ST/STM32_USB_Device_Library/Core/Src/usbd_core.c ****           {
1057:/home/dat/Documents/colir_one/rocket_code/Middlewares/ST/STM32_USB_Device_Library/Core/Src/usbd_core.c ****             return (uint8_t)i;
1058:/home/dat/Documents/colir_one/rocket_code/Middlewares/ST/STM32_USB_Device_Library/Core/Src/usbd_core.c ****           }
1059:/home/dat/Documents/colir_one/rocket_code/Middlewares/ST/STM32_USB_Device_Library/Core/Src/usbd_core.c ****         }
1060:/home/dat/Documents/colir_one/rocket_code/Middlewares/ST/STM32_USB_Device_Library/Core/Src/usbd_core.c ****       }
1061:/home/dat/Documents/colir_one/rocket_code/Middlewares/ST/STM32_USB_Device_Library/Core/Src/usbd_core.c ****     }
1062:/home/dat/Documents/colir_one/rocket_code/Middlewares/ST/STM32_USB_Device_Library/Core/Src/usbd_core.c ****   }
1063:/home/dat/Documents/colir_one/rocket_code/Middlewares/ST/STM32_USB_Device_Library/Core/Src/usbd_core.c **** 
1064:/home/dat/Documents/colir_one/rocket_code/Middlewares/ST/STM32_USB_Device_Library/Core/Src/usbd_core.c ****   return 0xFFU;
1065:/home/dat/Documents/colir_one/rocket_code/Middlewares/ST/STM32_USB_Device_Library/Core/Src/usbd_core.c **** #else
1066:/home/dat/Documents/colir_one/rocket_code/Middlewares/ST/STM32_USB_Device_Library/Core/Src/usbd_core.c ****   UNUSED(pdev);
 1057              		.loc 1 1066 3 view .LVU298
1067:/home/dat/Documents/colir_one/rocket_code/Middlewares/ST/STM32_USB_Device_Library/Core/Src/usbd_core.c ****   UNUSED(index);
 1058              		.loc 1 1067 3 view .LVU299
1068:/home/dat/Documents/colir_one/rocket_code/Middlewares/ST/STM32_USB_Device_Library/Core/Src/usbd_core.c **** 
1069:/home/dat/Documents/colir_one/rocket_code/Middlewares/ST/STM32_USB_Device_Library/Core/Src/usbd_core.c ****   return 0x00U;
 1059              		.loc 1 1069 3 view .LVU300
1070:/home/dat/Documents/colir_one/rocket_code/Middlewares/ST/STM32_USB_Device_Library/Core/Src/usbd_core.c **** #endif /* USE_USBD_COMPOSITE */
1071:/home/dat/Documents/colir_one/rocket_code/Middlewares/ST/STM32_USB_Device_Library/Core/Src/usbd_core.c **** }
 1060              		.loc 1 1071 1 is_stmt 0 view .LVU301
 1061 0000 0020     		movs	r0, #0
 1062              	.LVL87:
 1063              		.loc 1 1071 1 view .LVU302
 1064 0002 7047     		bx	lr
 1065              		.cfi_endproc
 1066              	.LFE158:
 1068              		.section	.text.USBD_CoreFindEP,"ax",%progbits
 1069              		.align	1
 1070              		.global	USBD_CoreFindEP
 1071              		.syntax unified
 1072              		.thumb
 1073              		.thumb_func
 1075              	USBD_CoreFindEP:
 1076              	.LVL88:
 1077              	.LFB159:
1072:/home/dat/Documents/colir_one/rocket_code/Middlewares/ST/STM32_USB_Device_Library/Core/Src/usbd_core.c **** 
1073:/home/dat/Documents/colir_one/rocket_code/Middlewares/ST/STM32_USB_Device_Library/Core/Src/usbd_core.c **** /**
1074:/home/dat/Documents/colir_one/rocket_code/Middlewares/ST/STM32_USB_Device_Library/Core/Src/usbd_core.c ****   * @brief  USBD_CoreFindEP
1075:/home/dat/Documents/colir_one/rocket_code/Middlewares/ST/STM32_USB_Device_Library/Core/Src/usbd_core.c ****   *         return the class index relative to the selected endpoint
ARM GAS  /tmp/cc6uACF9.s 			page 39


1076:/home/dat/Documents/colir_one/rocket_code/Middlewares/ST/STM32_USB_Device_Library/Core/Src/usbd_core.c ****   * @param  pdev: device instance
1077:/home/dat/Documents/colir_one/rocket_code/Middlewares/ST/STM32_USB_Device_Library/Core/Src/usbd_core.c ****   * @param  index : selected endpoint number
1078:/home/dat/Documents/colir_one/rocket_code/Middlewares/ST/STM32_USB_Device_Library/Core/Src/usbd_core.c ****   * @retval index of the class using the selected endpoint number. 0xFF if no class found.
1079:/home/dat/Documents/colir_one/rocket_code/Middlewares/ST/STM32_USB_Device_Library/Core/Src/usbd_core.c ****   */
1080:/home/dat/Documents/colir_one/rocket_code/Middlewares/ST/STM32_USB_Device_Library/Core/Src/usbd_core.c **** uint8_t USBD_CoreFindEP(USBD_HandleTypeDef *pdev, uint8_t index)
1081:/home/dat/Documents/colir_one/rocket_code/Middlewares/ST/STM32_USB_Device_Library/Core/Src/usbd_core.c **** {
 1078              		.loc 1 1081 1 is_stmt 1 view -0
 1079              		.cfi_startproc
 1080              		@ args = 0, pretend = 0, frame = 0
 1081              		@ frame_needed = 0, uses_anonymous_args = 0
 1082              		@ link register save eliminated.
1082:/home/dat/Documents/colir_one/rocket_code/Middlewares/ST/STM32_USB_Device_Library/Core/Src/usbd_core.c **** #ifdef USE_USBD_COMPOSITE
1083:/home/dat/Documents/colir_one/rocket_code/Middlewares/ST/STM32_USB_Device_Library/Core/Src/usbd_core.c ****   /* Parse the table of classes in use */
1084:/home/dat/Documents/colir_one/rocket_code/Middlewares/ST/STM32_USB_Device_Library/Core/Src/usbd_core.c ****   for (uint32_t i = 0U; i < USBD_MAX_SUPPORTED_CLASS; i++)
1085:/home/dat/Documents/colir_one/rocket_code/Middlewares/ST/STM32_USB_Device_Library/Core/Src/usbd_core.c ****   {
1086:/home/dat/Documents/colir_one/rocket_code/Middlewares/ST/STM32_USB_Device_Library/Core/Src/usbd_core.c ****     /* Check if current class is in use */
1087:/home/dat/Documents/colir_one/rocket_code/Middlewares/ST/STM32_USB_Device_Library/Core/Src/usbd_core.c ****     if ((pdev->tclasslist[i].Active) == 1U)
1088:/home/dat/Documents/colir_one/rocket_code/Middlewares/ST/STM32_USB_Device_Library/Core/Src/usbd_core.c ****     {
1089:/home/dat/Documents/colir_one/rocket_code/Middlewares/ST/STM32_USB_Device_Library/Core/Src/usbd_core.c ****       /* Parse all endpoints listed in the current class */
1090:/home/dat/Documents/colir_one/rocket_code/Middlewares/ST/STM32_USB_Device_Library/Core/Src/usbd_core.c ****       for (uint32_t j = 0U; j < pdev->tclasslist[i].NumEps; j++)
1091:/home/dat/Documents/colir_one/rocket_code/Middlewares/ST/STM32_USB_Device_Library/Core/Src/usbd_core.c ****       {
1092:/home/dat/Documents/colir_one/rocket_code/Middlewares/ST/STM32_USB_Device_Library/Core/Src/usbd_core.c ****         /* Check if requested endpoint matches the current class endpoint */
1093:/home/dat/Documents/colir_one/rocket_code/Middlewares/ST/STM32_USB_Device_Library/Core/Src/usbd_core.c ****         if (pdev->tclasslist[i].Eps[j].add == index)
1094:/home/dat/Documents/colir_one/rocket_code/Middlewares/ST/STM32_USB_Device_Library/Core/Src/usbd_core.c ****         {
1095:/home/dat/Documents/colir_one/rocket_code/Middlewares/ST/STM32_USB_Device_Library/Core/Src/usbd_core.c ****           if (pdev->pClass[i]->Setup != NULL)
1096:/home/dat/Documents/colir_one/rocket_code/Middlewares/ST/STM32_USB_Device_Library/Core/Src/usbd_core.c ****           {
1097:/home/dat/Documents/colir_one/rocket_code/Middlewares/ST/STM32_USB_Device_Library/Core/Src/usbd_core.c ****             return (uint8_t)i;
1098:/home/dat/Documents/colir_one/rocket_code/Middlewares/ST/STM32_USB_Device_Library/Core/Src/usbd_core.c ****           }
1099:/home/dat/Documents/colir_one/rocket_code/Middlewares/ST/STM32_USB_Device_Library/Core/Src/usbd_core.c ****         }
1100:/home/dat/Documents/colir_one/rocket_code/Middlewares/ST/STM32_USB_Device_Library/Core/Src/usbd_core.c ****       }
1101:/home/dat/Documents/colir_one/rocket_code/Middlewares/ST/STM32_USB_Device_Library/Core/Src/usbd_core.c ****     }
1102:/home/dat/Documents/colir_one/rocket_code/Middlewares/ST/STM32_USB_Device_Library/Core/Src/usbd_core.c ****   }
1103:/home/dat/Documents/colir_one/rocket_code/Middlewares/ST/STM32_USB_Device_Library/Core/Src/usbd_core.c **** 
1104:/home/dat/Documents/colir_one/rocket_code/Middlewares/ST/STM32_USB_Device_Library/Core/Src/usbd_core.c ****   return 0xFFU;
1105:/home/dat/Documents/colir_one/rocket_code/Middlewares/ST/STM32_USB_Device_Library/Core/Src/usbd_core.c **** #else
1106:/home/dat/Documents/colir_one/rocket_code/Middlewares/ST/STM32_USB_Device_Library/Core/Src/usbd_core.c ****   UNUSED(pdev);
 1083              		.loc 1 1106 3 view .LVU304
1107:/home/dat/Documents/colir_one/rocket_code/Middlewares/ST/STM32_USB_Device_Library/Core/Src/usbd_core.c ****   UNUSED(index);
 1084              		.loc 1 1107 3 view .LVU305
1108:/home/dat/Documents/colir_one/rocket_code/Middlewares/ST/STM32_USB_Device_Library/Core/Src/usbd_core.c **** 
1109:/home/dat/Documents/colir_one/rocket_code/Middlewares/ST/STM32_USB_Device_Library/Core/Src/usbd_core.c ****   return 0x00U;
 1085              		.loc 1 1109 3 view .LVU306
1110:/home/dat/Documents/colir_one/rocket_code/Middlewares/ST/STM32_USB_Device_Library/Core/Src/usbd_core.c **** #endif /* USE_USBD_COMPOSITE */
1111:/home/dat/Documents/colir_one/rocket_code/Middlewares/ST/STM32_USB_Device_Library/Core/Src/usbd_core.c **** }
 1086              		.loc 1 1111 1 is_stmt 0 view .LVU307
 1087 0000 0020     		movs	r0, #0
 1088              	.LVL89:
 1089              		.loc 1 1111 1 view .LVU308
 1090 0002 7047     		bx	lr
 1091              		.cfi_endproc
 1092              	.LFE159:
 1094              		.section	.text.USBD_LL_DataOutStage,"ax",%progbits
 1095              		.align	1
 1096              		.global	USBD_LL_DataOutStage
 1097              		.syntax unified
 1098              		.thumb
 1099              		.thumb_func
ARM GAS  /tmp/cc6uACF9.s 			page 40


 1101              	USBD_LL_DataOutStage:
 1102              	.LVL90:
 1103              	.LFB147:
 588:/home/dat/Documents/colir_one/rocket_code/Middlewares/ST/STM32_USB_Device_Library/Core/Src/usbd_core.c ****   USBD_EndpointTypeDef *pep;
 1104              		.loc 1 588 1 is_stmt 1 view -0
 1105              		.cfi_startproc
 1106              		@ args = 0, pretend = 0, frame = 0
 1107              		@ frame_needed = 0, uses_anonymous_args = 0
 588:/home/dat/Documents/colir_one/rocket_code/Middlewares/ST/STM32_USB_Device_Library/Core/Src/usbd_core.c ****   USBD_EndpointTypeDef *pep;
 1108              		.loc 1 588 1 is_stmt 0 view .LVU310
 1109 0000 38B5     		push	{r3, r4, r5, lr}
 1110              	.LCFI17:
 1111              		.cfi_def_cfa_offset 16
 1112              		.cfi_offset 3, -16
 1113              		.cfi_offset 4, -12
 1114              		.cfi_offset 5, -8
 1115              		.cfi_offset 14, -4
 1116 0002 0446     		mov	r4, r0
 589:/home/dat/Documents/colir_one/rocket_code/Middlewares/ST/STM32_USB_Device_Library/Core/Src/usbd_core.c ****   USBD_StatusTypeDef ret = USBD_OK;
 1117              		.loc 1 589 3 is_stmt 1 view .LVU311
 590:/home/dat/Documents/colir_one/rocket_code/Middlewares/ST/STM32_USB_Device_Library/Core/Src/usbd_core.c ****   uint8_t idx;
 1118              		.loc 1 590 3 view .LVU312
 1119              	.LVL91:
 591:/home/dat/Documents/colir_one/rocket_code/Middlewares/ST/STM32_USB_Device_Library/Core/Src/usbd_core.c **** 
 1120              		.loc 1 591 3 view .LVU313
 593:/home/dat/Documents/colir_one/rocket_code/Middlewares/ST/STM32_USB_Device_Library/Core/Src/usbd_core.c ****   {
 1121              		.loc 1 593 3 view .LVU314
 593:/home/dat/Documents/colir_one/rocket_code/Middlewares/ST/STM32_USB_Device_Library/Core/Src/usbd_core.c ****   {
 1122              		.loc 1 593 6 is_stmt 0 view .LVU315
 1123 0004 0D46     		mov	r5, r1
 1124 0006 0029     		cmp	r1, #0
 1125 0008 42D1     		bne	.L79
 1126 000a 1346     		mov	r3, r2
 595:/home/dat/Documents/colir_one/rocket_code/Middlewares/ST/STM32_USB_Device_Library/Core/Src/usbd_core.c **** 
 1127              		.loc 1 595 5 is_stmt 1 view .LVU316
 1128              	.LVL92:
 597:/home/dat/Documents/colir_one/rocket_code/Middlewares/ST/STM32_USB_Device_Library/Core/Src/usbd_core.c ****     {
 1129              		.loc 1 597 5 view .LVU317
 597:/home/dat/Documents/colir_one/rocket_code/Middlewares/ST/STM32_USB_Device_Library/Core/Src/usbd_core.c ****     {
 1130              		.loc 1 597 13 is_stmt 0 view .LVU318
 1131 000c D0F89422 		ldr	r2, [r0, #660]
 1132              	.LVL93:
 597:/home/dat/Documents/colir_one/rocket_code/Middlewares/ST/STM32_USB_Device_Library/Core/Src/usbd_core.c ****     {
 1133              		.loc 1 597 8 view .LVU319
 1134 0010 032A     		cmp	r2, #3
 1135 0012 01D0     		beq	.L90
 670:/home/dat/Documents/colir_one/rocket_code/Middlewares/ST/STM32_USB_Device_Library/Core/Src/usbd_core.c **** }
 1136              		.loc 1 670 10 view .LVU320
 1137 0014 0846     		mov	r0, r1
 1138              	.LVL94:
 1139              	.L80:
 671:/home/dat/Documents/colir_one/rocket_code/Middlewares/ST/STM32_USB_Device_Library/Core/Src/usbd_core.c **** 
 1140              		.loc 1 671 1 view .LVU321
 1141 0016 38BD     		pop	{r3, r4, r5, pc}
 1142              	.LVL95:
 1143              	.L90:
 599:/home/dat/Documents/colir_one/rocket_code/Middlewares/ST/STM32_USB_Device_Library/Core/Src/usbd_core.c ****       {
ARM GAS  /tmp/cc6uACF9.s 			page 41


 1144              		.loc 1 599 7 is_stmt 1 view .LVU322
 599:/home/dat/Documents/colir_one/rocket_code/Middlewares/ST/STM32_USB_Device_Library/Core/Src/usbd_core.c ****       {
 1145              		.loc 1 599 14 is_stmt 0 view .LVU323
 1146 0018 D0F85C11 		ldr	r1, [r0, #348]
 1147              	.LVL96:
 599:/home/dat/Documents/colir_one/rocket_code/Middlewares/ST/STM32_USB_Device_Library/Core/Src/usbd_core.c ****       {
 1148              		.loc 1 599 32 view .LVU324
 1149 001c D0F86021 		ldr	r2, [r0, #352]
 599:/home/dat/Documents/colir_one/rocket_code/Middlewares/ST/STM32_USB_Device_Library/Core/Src/usbd_core.c ****       {
 1150              		.loc 1 599 10 view .LVU325
 1151 0020 9142     		cmp	r1, r2
 1152 0022 09D8     		bhi	.L91
 608:/home/dat/Documents/colir_one/rocket_code/Middlewares/ST/STM32_USB_Device_Library/Core/Src/usbd_core.c ****         {
 1153              		.loc 1 608 9 is_stmt 1 view .LVU326
 608:/home/dat/Documents/colir_one/rocket_code/Middlewares/ST/STM32_USB_Device_Library/Core/Src/usbd_core.c ****         {
 1154              		.loc 1 608 30 is_stmt 0 view .LVU327
 1155 0024 90F8AA32 		ldrb	r3, [r0, #682]	@ zero_extendqisi2
 1156              	.LVL97:
 608:/home/dat/Documents/colir_one/rocket_code/Middlewares/ST/STM32_USB_Device_Library/Core/Src/usbd_core.c ****         {
 1157              		.loc 1 608 30 view .LVU328
 1158 0028 03F01F03 		and	r3, r3, #31
 608:/home/dat/Documents/colir_one/rocket_code/Middlewares/ST/STM32_USB_Device_Library/Core/Src/usbd_core.c ****         {
 1159              		.loc 1 608 9 view .LVU329
 1160 002c 012B     		cmp	r3, #1
 1161 002e 0ED0     		beq	.L82
 1162 0030 022B     		cmp	r3, #2
 1163 0032 1BD0     		beq	.L83
 1164 0034 2846     		mov	r0, r5
 1165              	.LVL98:
 608:/home/dat/Documents/colir_one/rocket_code/Middlewares/ST/STM32_USB_Device_Library/Core/Src/usbd_core.c ****         {
 1166              		.loc 1 608 9 view .LVU330
 1167 0036 0FE0     		b	.L84
 1168              	.LVL99:
 1169              	.L91:
 601:/home/dat/Documents/colir_one/rocket_code/Middlewares/ST/STM32_USB_Device_Library/Core/Src/usbd_core.c **** 
 1170              		.loc 1 601 9 is_stmt 1 view .LVU331
 601:/home/dat/Documents/colir_one/rocket_code/Middlewares/ST/STM32_USB_Device_Library/Core/Src/usbd_core.c **** 
 1171              		.loc 1 601 25 is_stmt 0 view .LVU332
 1172 0038 891A     		subs	r1, r1, r2
 1173 003a C0F85C11 		str	r1, [r0, #348]
 603:/home/dat/Documents/colir_one/rocket_code/Middlewares/ST/STM32_USB_Device_Library/Core/Src/usbd_core.c ****       }
 1174              		.loc 1 603 9 is_stmt 1 view .LVU333
 603:/home/dat/Documents/colir_one/rocket_code/Middlewares/ST/STM32_USB_Device_Library/Core/Src/usbd_core.c ****       }
 1175              		.loc 1 603 15 is_stmt 0 view .LVU334
 1176 003e 8A42     		cmp	r2, r1
 1177 0040 28BF     		it	cs
 1178 0042 0A46     		movcs	r2, r1
 1179 0044 1946     		mov	r1, r3
 1180 0046 FFF7FEFF 		bl	USBD_CtlContinueRx
 1181              	.LVL100:
 670:/home/dat/Documents/colir_one/rocket_code/Middlewares/ST/STM32_USB_Device_Library/Core/Src/usbd_core.c **** }
 1182              		.loc 1 670 10 view .LVU335
 1183 004a 2846     		mov	r0, r5
 1184 004c E3E7     		b	.L80
 1185              	.LVL101:
 1186              	.L82:
 617:/home/dat/Documents/colir_one/rocket_code/Middlewares/ST/STM32_USB_Device_Library/Core/Src/usbd_core.c ****             break;
ARM GAS  /tmp/cc6uACF9.s 			page 42


 1187              		.loc 1 617 13 is_stmt 1 view .LVU336
 617:/home/dat/Documents/colir_one/rocket_code/Middlewares/ST/STM32_USB_Device_Library/Core/Src/usbd_core.c ****             break;
 1188              		.loc 1 617 19 is_stmt 0 view .LVU337
 1189 004e 90F8AE12 		ldrb	r1, [r0, #686]	@ zero_extendqisi2
 1190 0052 FFF7FEFF 		bl	USBD_CoreFindIF
 1191              	.LVL102:
 618:/home/dat/Documents/colir_one/rocket_code/Middlewares/ST/STM32_USB_Device_Library/Core/Src/usbd_core.c **** 
 1192              		.loc 1 618 13 is_stmt 1 view .LVU338
 1193              	.L85:
 630:/home/dat/Documents/colir_one/rocket_code/Middlewares/ST/STM32_USB_Device_Library/Core/Src/usbd_core.c ****         {
 1194              		.loc 1 630 9 view .LVU339
 630:/home/dat/Documents/colir_one/rocket_code/Middlewares/ST/STM32_USB_Device_Library/Core/Src/usbd_core.c ****         {
 1195              		.loc 1 630 12 is_stmt 0 view .LVU340
 1196 0056 20B9     		cbnz	r0, .L86
 1197              	.LVL103:
 1198              	.L84:
 633:/home/dat/Documents/colir_one/rocket_code/Middlewares/ST/STM32_USB_Device_Library/Core/Src/usbd_core.c ****           {
 1199              		.loc 1 633 11 is_stmt 1 view .LVU341
 633:/home/dat/Documents/colir_one/rocket_code/Middlewares/ST/STM32_USB_Device_Library/Core/Src/usbd_core.c ****           {
 1200              		.loc 1 633 19 is_stmt 0 view .LVU342
 1201 0058 94F89C32 		ldrb	r3, [r4, #668]	@ zero_extendqisi2
 1202 005c DBB2     		uxtb	r3, r3
 633:/home/dat/Documents/colir_one/rocket_code/Middlewares/ST/STM32_USB_Device_Library/Core/Src/usbd_core.c ****           {
 1203              		.loc 1 633 14 view .LVU343
 1204 005e 032B     		cmp	r3, #3
 1205 0060 09D0     		beq	.L92
 1206              	.L86:
 643:/home/dat/Documents/colir_one/rocket_code/Middlewares/ST/STM32_USB_Device_Library/Core/Src/usbd_core.c ****       }
 1207              		.loc 1 643 9 is_stmt 1 view .LVU344
 643:/home/dat/Documents/colir_one/rocket_code/Middlewares/ST/STM32_USB_Device_Library/Core/Src/usbd_core.c ****       }
 1208              		.loc 1 643 15 is_stmt 0 view .LVU345
 1209 0062 2046     		mov	r0, r4
 1210 0064 FFF7FEFF 		bl	USBD_CtlSendStatus
 1211              	.LVL104:
 670:/home/dat/Documents/colir_one/rocket_code/Middlewares/ST/STM32_USB_Device_Library/Core/Src/usbd_core.c **** }
 1212              		.loc 1 670 10 view .LVU346
 1213 0068 2846     		mov	r0, r5
 1214 006a D4E7     		b	.L80
 1215              	.LVL105:
 1216              	.L83:
 621:/home/dat/Documents/colir_one/rocket_code/Middlewares/ST/STM32_USB_Device_Library/Core/Src/usbd_core.c ****             break;
 1217              		.loc 1 621 13 is_stmt 1 view .LVU347
 621:/home/dat/Documents/colir_one/rocket_code/Middlewares/ST/STM32_USB_Device_Library/Core/Src/usbd_core.c ****             break;
 1218              		.loc 1 621 19 is_stmt 0 view .LVU348
 1219 006c 90F8AE12 		ldrb	r1, [r0, #686]	@ zero_extendqisi2
 1220 0070 FFF7FEFF 		bl	USBD_CoreFindEP
 1221              	.LVL106:
 622:/home/dat/Documents/colir_one/rocket_code/Middlewares/ST/STM32_USB_Device_Library/Core/Src/usbd_core.c **** 
 1222              		.loc 1 622 13 is_stmt 1 view .LVU349
 1223 0074 EFE7     		b	.L85
 1224              	.LVL107:
 1225              	.L92:
 635:/home/dat/Documents/colir_one/rocket_code/Middlewares/ST/STM32_USB_Device_Library/Core/Src/usbd_core.c ****             {
 1226              		.loc 1 635 13 view .LVU350
 635:/home/dat/Documents/colir_one/rocket_code/Middlewares/ST/STM32_USB_Device_Library/Core/Src/usbd_core.c ****             {
 1227              		.loc 1 635 29 is_stmt 0 view .LVU351
 1228 0076 00F1AE03 		add	r3, r0, #174
ARM GAS  /tmp/cc6uACF9.s 			page 43


 1229 007a 54F82330 		ldr	r3, [r4, r3, lsl #2]
 635:/home/dat/Documents/colir_one/rocket_code/Middlewares/ST/STM32_USB_Device_Library/Core/Src/usbd_core.c ****             {
 1230              		.loc 1 635 34 view .LVU352
 1231 007e 1A69     		ldr	r2, [r3, #16]
 635:/home/dat/Documents/colir_one/rocket_code/Middlewares/ST/STM32_USB_Device_Library/Core/Src/usbd_core.c ****             {
 1232              		.loc 1 635 16 view .LVU353
 1233 0080 002A     		cmp	r2, #0
 1234 0082 EED0     		beq	.L86
 637:/home/dat/Documents/colir_one/rocket_code/Middlewares/ST/STM32_USB_Device_Library/Core/Src/usbd_core.c ****               pdev->pClass[idx]->EP0_RxReady(pdev);
 1235              		.loc 1 637 15 is_stmt 1 view .LVU354
 637:/home/dat/Documents/colir_one/rocket_code/Middlewares/ST/STM32_USB_Device_Library/Core/Src/usbd_core.c ****               pdev->pClass[idx]->EP0_RxReady(pdev);
 1236              		.loc 1 637 29 is_stmt 0 view .LVU355
 1237 0084 C4F8D402 		str	r0, [r4, #724]
 638:/home/dat/Documents/colir_one/rocket_code/Middlewares/ST/STM32_USB_Device_Library/Core/Src/usbd_core.c ****             }
 1238              		.loc 1 638 15 is_stmt 1 view .LVU356
 638:/home/dat/Documents/colir_one/rocket_code/Middlewares/ST/STM32_USB_Device_Library/Core/Src/usbd_core.c ****             }
 1239              		.loc 1 638 32 is_stmt 0 view .LVU357
 1240 0088 1B69     		ldr	r3, [r3, #16]
 638:/home/dat/Documents/colir_one/rocket_code/Middlewares/ST/STM32_USB_Device_Library/Core/Src/usbd_core.c ****             }
 1241              		.loc 1 638 15 view .LVU358
 1242 008a 2046     		mov	r0, r4
 1243 008c 9847     		blx	r3
 1244              	.LVL108:
 1245 008e E8E7     		b	.L86
 1246              	.LVL109:
 1247              	.L79:
 650:/home/dat/Documents/colir_one/rocket_code/Middlewares/ST/STM32_USB_Device_Library/Core/Src/usbd_core.c **** 
 1248              		.loc 1 650 5 is_stmt 1 view .LVU359
 650:/home/dat/Documents/colir_one/rocket_code/Middlewares/ST/STM32_USB_Device_Library/Core/Src/usbd_core.c **** 
 1249              		.loc 1 650 11 is_stmt 0 view .LVU360
 1250 0090 01F07F01 		and	r1, r1, #127
 1251              	.LVL110:
 650:/home/dat/Documents/colir_one/rocket_code/Middlewares/ST/STM32_USB_Device_Library/Core/Src/usbd_core.c **** 
 1252              		.loc 1 650 11 view .LVU361
 1253 0094 FFF7FEFF 		bl	USBD_CoreFindEP
 1254              	.LVL111:
 652:/home/dat/Documents/colir_one/rocket_code/Middlewares/ST/STM32_USB_Device_Library/Core/Src/usbd_core.c ****     {
 1255              		.loc 1 652 5 is_stmt 1 view .LVU362
 652:/home/dat/Documents/colir_one/rocket_code/Middlewares/ST/STM32_USB_Device_Library/Core/Src/usbd_core.c ****     {
 1256              		.loc 1 652 8 is_stmt 0 view .LVU363
 1257 0098 90B9     		cbnz	r0, .L88
 655:/home/dat/Documents/colir_one/rocket_code/Middlewares/ST/STM32_USB_Device_Library/Core/Src/usbd_core.c ****       {
 1258              		.loc 1 655 7 is_stmt 1 view .LVU364
 655:/home/dat/Documents/colir_one/rocket_code/Middlewares/ST/STM32_USB_Device_Library/Core/Src/usbd_core.c ****       {
 1259              		.loc 1 655 15 is_stmt 0 view .LVU365
 1260 009a 94F89C32 		ldrb	r3, [r4, #668]	@ zero_extendqisi2
 1261 009e DBB2     		uxtb	r3, r3
 655:/home/dat/Documents/colir_one/rocket_code/Middlewares/ST/STM32_USB_Device_Library/Core/Src/usbd_core.c ****       {
 1262              		.loc 1 655 10 view .LVU366
 1263 00a0 032B     		cmp	r3, #3
 1264 00a2 B8D1     		bne	.L80
 657:/home/dat/Documents/colir_one/rocket_code/Middlewares/ST/STM32_USB_Device_Library/Core/Src/usbd_core.c ****         {
 1265              		.loc 1 657 9 is_stmt 1 view .LVU367
 657:/home/dat/Documents/colir_one/rocket_code/Middlewares/ST/STM32_USB_Device_Library/Core/Src/usbd_core.c ****         {
 1266              		.loc 1 657 25 is_stmt 0 view .LVU368
 1267 00a4 00F1AE03 		add	r3, r0, #174
 1268 00a8 54F82330 		ldr	r3, [r4, r3, lsl #2]
ARM GAS  /tmp/cc6uACF9.s 			page 44


 657:/home/dat/Documents/colir_one/rocket_code/Middlewares/ST/STM32_USB_Device_Library/Core/Src/usbd_core.c ****         {
 1269              		.loc 1 657 30 view .LVU369
 1270 00ac 9A69     		ldr	r2, [r3, #24]
 657:/home/dat/Documents/colir_one/rocket_code/Middlewares/ST/STM32_USB_Device_Library/Core/Src/usbd_core.c ****         {
 1271              		.loc 1 657 12 view .LVU370
 1272 00ae 002A     		cmp	r2, #0
 1273 00b0 B1D0     		beq	.L80
 659:/home/dat/Documents/colir_one/rocket_code/Middlewares/ST/STM32_USB_Device_Library/Core/Src/usbd_core.c ****           ret = (USBD_StatusTypeDef)pdev->pClass[idx]->DataOut(pdev, epnum);
 1274              		.loc 1 659 11 is_stmt 1 view .LVU371
 659:/home/dat/Documents/colir_one/rocket_code/Middlewares/ST/STM32_USB_Device_Library/Core/Src/usbd_core.c ****           ret = (USBD_StatusTypeDef)pdev->pClass[idx]->DataOut(pdev, epnum);
 1275              		.loc 1 659 25 is_stmt 0 view .LVU372
 1276 00b2 C4F8D402 		str	r0, [r4, #724]
 660:/home/dat/Documents/colir_one/rocket_code/Middlewares/ST/STM32_USB_Device_Library/Core/Src/usbd_core.c ****         }
 1277              		.loc 1 660 11 is_stmt 1 view .LVU373
 660:/home/dat/Documents/colir_one/rocket_code/Middlewares/ST/STM32_USB_Device_Library/Core/Src/usbd_core.c ****         }
 1278              		.loc 1 660 54 is_stmt 0 view .LVU374
 1279 00b6 9B69     		ldr	r3, [r3, #24]
 660:/home/dat/Documents/colir_one/rocket_code/Middlewares/ST/STM32_USB_Device_Library/Core/Src/usbd_core.c ****         }
 1280              		.loc 1 660 37 view .LVU375
 1281 00b8 2946     		mov	r1, r5
 1282 00ba 2046     		mov	r0, r4
 1283              	.LVL112:
 660:/home/dat/Documents/colir_one/rocket_code/Middlewares/ST/STM32_USB_Device_Library/Core/Src/usbd_core.c ****         }
 1284              		.loc 1 660 37 view .LVU376
 1285 00bc 9847     		blx	r3
 1286              	.LVL113:
 663:/home/dat/Documents/colir_one/rocket_code/Middlewares/ST/STM32_USB_Device_Library/Core/Src/usbd_core.c ****       {
 1287              		.loc 1 663 7 is_stmt 1 view .LVU377
 1288 00be AAE7     		b	.L80
 1289              	.LVL114:
 1290              	.L88:
 670:/home/dat/Documents/colir_one/rocket_code/Middlewares/ST/STM32_USB_Device_Library/Core/Src/usbd_core.c **** }
 1291              		.loc 1 670 10 is_stmt 0 view .LVU378
 1292 00c0 0020     		movs	r0, #0
 1293              	.LVL115:
 670:/home/dat/Documents/colir_one/rocket_code/Middlewares/ST/STM32_USB_Device_Library/Core/Src/usbd_core.c **** }
 1294              		.loc 1 670 10 view .LVU379
 1295 00c2 A8E7     		b	.L80
 1296              		.cfi_endproc
 1297              	.LFE147:
 1299              		.section	.text.USBD_LL_DataInStage,"ax",%progbits
 1300              		.align	1
 1301              		.global	USBD_LL_DataInStage
 1302              		.syntax unified
 1303              		.thumb
 1304              		.thumb_func
 1306              	USBD_LL_DataInStage:
 1307              	.LVL116:
 1308              	.LFB148:
 683:/home/dat/Documents/colir_one/rocket_code/Middlewares/ST/STM32_USB_Device_Library/Core/Src/usbd_core.c ****   USBD_EndpointTypeDef *pep;
 1309              		.loc 1 683 1 is_stmt 1 view -0
 1310              		.cfi_startproc
 1311              		@ args = 0, pretend = 0, frame = 0
 1312              		@ frame_needed = 0, uses_anonymous_args = 0
 683:/home/dat/Documents/colir_one/rocket_code/Middlewares/ST/STM32_USB_Device_Library/Core/Src/usbd_core.c ****   USBD_EndpointTypeDef *pep;
 1313              		.loc 1 683 1 is_stmt 0 view .LVU381
 1314 0000 38B5     		push	{r3, r4, r5, lr}
ARM GAS  /tmp/cc6uACF9.s 			page 45


 1315              	.LCFI18:
 1316              		.cfi_def_cfa_offset 16
 1317              		.cfi_offset 3, -16
 1318              		.cfi_offset 4, -12
 1319              		.cfi_offset 5, -8
 1320              		.cfi_offset 14, -4
 1321 0002 0446     		mov	r4, r0
 684:/home/dat/Documents/colir_one/rocket_code/Middlewares/ST/STM32_USB_Device_Library/Core/Src/usbd_core.c ****   USBD_StatusTypeDef ret;
 1322              		.loc 1 684 3 is_stmt 1 view .LVU382
 685:/home/dat/Documents/colir_one/rocket_code/Middlewares/ST/STM32_USB_Device_Library/Core/Src/usbd_core.c ****   uint8_t idx;
 1323              		.loc 1 685 3 view .LVU383
 686:/home/dat/Documents/colir_one/rocket_code/Middlewares/ST/STM32_USB_Device_Library/Core/Src/usbd_core.c **** 
 1324              		.loc 1 686 3 view .LVU384
 688:/home/dat/Documents/colir_one/rocket_code/Middlewares/ST/STM32_USB_Device_Library/Core/Src/usbd_core.c ****   {
 1325              		.loc 1 688 3 view .LVU385
 688:/home/dat/Documents/colir_one/rocket_code/Middlewares/ST/STM32_USB_Device_Library/Core/Src/usbd_core.c ****   {
 1326              		.loc 1 688 6 is_stmt 0 view .LVU386
 1327 0004 0D46     		mov	r5, r1
 1328 0006 0029     		cmp	r1, #0
 1329 0008 4BD1     		bne	.L94
 1330 000a 1346     		mov	r3, r2
 690:/home/dat/Documents/colir_one/rocket_code/Middlewares/ST/STM32_USB_Device_Library/Core/Src/usbd_core.c **** 
 1331              		.loc 1 690 5 is_stmt 1 view .LVU387
 1332              	.LVL117:
 692:/home/dat/Documents/colir_one/rocket_code/Middlewares/ST/STM32_USB_Device_Library/Core/Src/usbd_core.c ****     {
 1333              		.loc 1 692 5 view .LVU388
 692:/home/dat/Documents/colir_one/rocket_code/Middlewares/ST/STM32_USB_Device_Library/Core/Src/usbd_core.c ****     {
 1334              		.loc 1 692 13 is_stmt 0 view .LVU389
 1335 000c D0F89422 		ldr	r2, [r0, #660]
 1336              	.LVL118:
 692:/home/dat/Documents/colir_one/rocket_code/Middlewares/ST/STM32_USB_Device_Library/Core/Src/usbd_core.c ****     {
 1337              		.loc 1 692 8 view .LVU390
 1338 0010 022A     		cmp	r2, #2
 1339 0012 07D0     		beq	.L102
 1340              	.LVL119:
 1341              	.L95:
 732:/home/dat/Documents/colir_one/rocket_code/Middlewares/ST/STM32_USB_Device_Library/Core/Src/usbd_core.c ****     {
 1342              		.loc 1 732 5 is_stmt 1 view .LVU391
 732:/home/dat/Documents/colir_one/rocket_code/Middlewares/ST/STM32_USB_Device_Library/Core/Src/usbd_core.c ****     {
 1343              		.loc 1 732 13 is_stmt 0 view .LVU392
 1344 0014 94F8A002 		ldrb	r0, [r4, #672]	@ zero_extendqisi2
 732:/home/dat/Documents/colir_one/rocket_code/Middlewares/ST/STM32_USB_Device_Library/Core/Src/usbd_core.c ****     {
 1345              		.loc 1 732 8 view .LVU393
 1346 0018 18B1     		cbz	r0, .L99
 734:/home/dat/Documents/colir_one/rocket_code/Middlewares/ST/STM32_USB_Device_Library/Core/Src/usbd_core.c ****       pdev->dev_test_mode = 0U;
 1347              		.loc 1 734 7 is_stmt 1 view .LVU394
 735:/home/dat/Documents/colir_one/rocket_code/Middlewares/ST/STM32_USB_Device_Library/Core/Src/usbd_core.c ****     }
 1348              		.loc 1 735 7 view .LVU395
 735:/home/dat/Documents/colir_one/rocket_code/Middlewares/ST/STM32_USB_Device_Library/Core/Src/usbd_core.c ****     }
 1349              		.loc 1 735 27 is_stmt 0 view .LVU396
 1350 001a 0023     		movs	r3, #0
 1351 001c 84F8A032 		strb	r3, [r4, #672]
 762:/home/dat/Documents/colir_one/rocket_code/Middlewares/ST/STM32_USB_Device_Library/Core/Src/usbd_core.c **** }
 1352              		.loc 1 762 10 view .LVU397
 1353 0020 2846     		mov	r0, r5
 1354              	.LVL120:
 1355              	.L99:
ARM GAS  /tmp/cc6uACF9.s 			page 46


 763:/home/dat/Documents/colir_one/rocket_code/Middlewares/ST/STM32_USB_Device_Library/Core/Src/usbd_core.c **** 
 1356              		.loc 1 763 1 view .LVU398
 1357 0022 38BD     		pop	{r3, r4, r5, pc}
 1358              	.LVL121:
 1359              	.L102:
 694:/home/dat/Documents/colir_one/rocket_code/Middlewares/ST/STM32_USB_Device_Library/Core/Src/usbd_core.c ****       {
 1360              		.loc 1 694 7 is_stmt 1 view .LVU399
 694:/home/dat/Documents/colir_one/rocket_code/Middlewares/ST/STM32_USB_Device_Library/Core/Src/usbd_core.c ****       {
 1361              		.loc 1 694 14 is_stmt 0 view .LVU400
 1362 0024 C269     		ldr	r2, [r0, #28]
 694:/home/dat/Documents/colir_one/rocket_code/Middlewares/ST/STM32_USB_Device_Library/Core/Src/usbd_core.c ****       {
 1363              		.loc 1 694 32 view .LVU401
 1364 0026 016A     		ldr	r1, [r0, #32]
 1365              	.LVL122:
 694:/home/dat/Documents/colir_one/rocket_code/Middlewares/ST/STM32_USB_Device_Library/Core/Src/usbd_core.c ****       {
 1366              		.loc 1 694 10 view .LVU402
 1367 0028 8A42     		cmp	r2, r1
 1368 002a 0ED8     		bhi	.L103
 706:/home/dat/Documents/colir_one/rocket_code/Middlewares/ST/STM32_USB_Device_Library/Core/Src/usbd_core.c ****             (pep->total_length >= pep->maxpacket) &&
 1369              		.loc 1 706 9 is_stmt 1 view .LVU403
 706:/home/dat/Documents/colir_one/rocket_code/Middlewares/ST/STM32_USB_Device_Library/Core/Src/usbd_core.c ****             (pep->total_length >= pep->maxpacket) &&
 1370              		.loc 1 706 12 is_stmt 0 view .LVU404
 1371 002c 8A42     		cmp	r2, r1
 1372 002e 18D0     		beq	.L104
 1373              	.LVL123:
 1374              	.L97:
 718:/home/dat/Documents/colir_one/rocket_code/Middlewares/ST/STM32_USB_Device_Library/Core/Src/usbd_core.c ****           {
 1375              		.loc 1 718 11 is_stmt 1 view .LVU405
 718:/home/dat/Documents/colir_one/rocket_code/Middlewares/ST/STM32_USB_Device_Library/Core/Src/usbd_core.c ****           {
 1376              		.loc 1 718 19 is_stmt 0 view .LVU406
 1377 0030 94F89C32 		ldrb	r3, [r4, #668]	@ zero_extendqisi2
 1378 0034 DBB2     		uxtb	r3, r3
 718:/home/dat/Documents/colir_one/rocket_code/Middlewares/ST/STM32_USB_Device_Library/Core/Src/usbd_core.c ****           {
 1379              		.loc 1 718 14 view .LVU407
 1380 0036 032B     		cmp	r3, #3
 1381 0038 27D0     		beq	.L105
 1382              	.LVL124:
 1383              	.L98:
 726:/home/dat/Documents/colir_one/rocket_code/Middlewares/ST/STM32_USB_Device_Library/Core/Src/usbd_core.c ****           (void)USBD_CtlReceiveStatus(pdev);
 1384              		.loc 1 726 11 is_stmt 1 view .LVU408
 726:/home/dat/Documents/colir_one/rocket_code/Middlewares/ST/STM32_USB_Device_Library/Core/Src/usbd_core.c ****           (void)USBD_CtlReceiveStatus(pdev);
 1385              		.loc 1 726 17 is_stmt 0 view .LVU409
 1386 003a 8021     		movs	r1, #128
 1387 003c 2046     		mov	r0, r4
 1388 003e FFF7FEFF 		bl	USBD_LL_StallEP
 1389              	.LVL125:
 727:/home/dat/Documents/colir_one/rocket_code/Middlewares/ST/STM32_USB_Device_Library/Core/Src/usbd_core.c ****         }
 1390              		.loc 1 727 11 is_stmt 1 view .LVU410
 727:/home/dat/Documents/colir_one/rocket_code/Middlewares/ST/STM32_USB_Device_Library/Core/Src/usbd_core.c ****         }
 1391              		.loc 1 727 17 is_stmt 0 view .LVU411
 1392 0042 2046     		mov	r0, r4
 1393 0044 FFF7FEFF 		bl	USBD_CtlReceiveStatus
 1394              	.LVL126:
 1395 0048 E4E7     		b	.L95
 1396              	.LVL127:
 1397              	.L103:
 696:/home/dat/Documents/colir_one/rocket_code/Middlewares/ST/STM32_USB_Device_Library/Core/Src/usbd_core.c **** 
ARM GAS  /tmp/cc6uACF9.s 			page 47


 1398              		.loc 1 696 9 is_stmt 1 view .LVU412
 696:/home/dat/Documents/colir_one/rocket_code/Middlewares/ST/STM32_USB_Device_Library/Core/Src/usbd_core.c **** 
 1399              		.loc 1 696 25 is_stmt 0 view .LVU413
 1400 004a 521A     		subs	r2, r2, r1
 1401 004c C261     		str	r2, [r0, #28]
 698:/home/dat/Documents/colir_one/rocket_code/Middlewares/ST/STM32_USB_Device_Library/Core/Src/usbd_core.c **** 
 1402              		.loc 1 698 9 is_stmt 1 view .LVU414
 698:/home/dat/Documents/colir_one/rocket_code/Middlewares/ST/STM32_USB_Device_Library/Core/Src/usbd_core.c **** 
 1403              		.loc 1 698 15 is_stmt 0 view .LVU415
 1404 004e 1946     		mov	r1, r3
 1405 0050 FFF7FEFF 		bl	USBD_CtlContinueSendData
 1406              	.LVL128:
 701:/home/dat/Documents/colir_one/rocket_code/Middlewares/ST/STM32_USB_Device_Library/Core/Src/usbd_core.c ****       }
 1407              		.loc 1 701 9 is_stmt 1 view .LVU416
 701:/home/dat/Documents/colir_one/rocket_code/Middlewares/ST/STM32_USB_Device_Library/Core/Src/usbd_core.c ****       }
 1408              		.loc 1 701 15 is_stmt 0 view .LVU417
 1409 0054 0023     		movs	r3, #0
 1410 0056 1A46     		mov	r2, r3
 1411 0058 1946     		mov	r1, r3
 1412 005a 2046     		mov	r0, r4
 1413 005c FFF7FEFF 		bl	USBD_LL_PrepareReceive
 1414              	.LVL129:
 1415 0060 D8E7     		b	.L95
 1416              	.LVL130:
 1417              	.L104:
 707:/home/dat/Documents/colir_one/rocket_code/Middlewares/ST/STM32_USB_Device_Library/Core/Src/usbd_core.c ****             (pep->total_length < pdev->ep0_data_len))
 1418              		.loc 1 707 17 view .LVU418
 1419 0062 8369     		ldr	r3, [r0, #24]
 1420              	.LVL131:
 706:/home/dat/Documents/colir_one/rocket_code/Middlewares/ST/STM32_USB_Device_Library/Core/Src/usbd_core.c ****             (pep->total_length >= pep->maxpacket) &&
 1421              		.loc 1 706 49 discriminator 1 view .LVU419
 1422 0064 9942     		cmp	r1, r3
 1423 0066 E3D8     		bhi	.L97
 708:/home/dat/Documents/colir_one/rocket_code/Middlewares/ST/STM32_USB_Device_Library/Core/Src/usbd_core.c ****         {
 1424              		.loc 1 708 38 view .LVU420
 1425 0068 D0F89822 		ldr	r2, [r0, #664]
 707:/home/dat/Documents/colir_one/rocket_code/Middlewares/ST/STM32_USB_Device_Library/Core/Src/usbd_core.c ****             (pep->total_length < pdev->ep0_data_len))
 1426              		.loc 1 707 51 view .LVU421
 1427 006c 9342     		cmp	r3, r2
 1428 006e DFD2     		bcs	.L97
 710:/home/dat/Documents/colir_one/rocket_code/Middlewares/ST/STM32_USB_Device_Library/Core/Src/usbd_core.c ****           pdev->ep0_data_len = 0U;
 1429              		.loc 1 710 11 is_stmt 1 view .LVU422
 710:/home/dat/Documents/colir_one/rocket_code/Middlewares/ST/STM32_USB_Device_Library/Core/Src/usbd_core.c ****           pdev->ep0_data_len = 0U;
 1430              		.loc 1 710 17 is_stmt 0 view .LVU423
 1431 0070 0022     		movs	r2, #0
 1432 0072 1146     		mov	r1, r2
 1433 0074 FFF7FEFF 		bl	USBD_CtlContinueSendData
 1434              	.LVL132:
 711:/home/dat/Documents/colir_one/rocket_code/Middlewares/ST/STM32_USB_Device_Library/Core/Src/usbd_core.c **** 
 1435              		.loc 1 711 11 is_stmt 1 view .LVU424
 711:/home/dat/Documents/colir_one/rocket_code/Middlewares/ST/STM32_USB_Device_Library/Core/Src/usbd_core.c **** 
 1436              		.loc 1 711 30 is_stmt 0 view .LVU425
 1437 0078 0021     		movs	r1, #0
 1438 007a C4F89812 		str	r1, [r4, #664]
 714:/home/dat/Documents/colir_one/rocket_code/Middlewares/ST/STM32_USB_Device_Library/Core/Src/usbd_core.c ****         }
 1439              		.loc 1 714 11 is_stmt 1 view .LVU426
 714:/home/dat/Documents/colir_one/rocket_code/Middlewares/ST/STM32_USB_Device_Library/Core/Src/usbd_core.c ****         }
ARM GAS  /tmp/cc6uACF9.s 			page 48


 1440              		.loc 1 714 17 is_stmt 0 view .LVU427
 1441 007e 0B46     		mov	r3, r1
 1442 0080 0A46     		mov	r2, r1
 1443 0082 2046     		mov	r0, r4
 1444 0084 FFF7FEFF 		bl	USBD_LL_PrepareReceive
 1445              	.LVL133:
 714:/home/dat/Documents/colir_one/rocket_code/Middlewares/ST/STM32_USB_Device_Library/Core/Src/usbd_core.c ****         }
 1446              		.loc 1 714 11 view .LVU428
 1447 0088 C4E7     		b	.L95
 1448              	.LVL134:
 1449              	.L105:
 720:/home/dat/Documents/colir_one/rocket_code/Middlewares/ST/STM32_USB_Device_Library/Core/Src/usbd_core.c ****             {
 1450              		.loc 1 720 13 is_stmt 1 view .LVU429
 720:/home/dat/Documents/colir_one/rocket_code/Middlewares/ST/STM32_USB_Device_Library/Core/Src/usbd_core.c ****             {
 1451              		.loc 1 720 29 is_stmt 0 view .LVU430
 1452 008a D4F8B832 		ldr	r3, [r4, #696]
 720:/home/dat/Documents/colir_one/rocket_code/Middlewares/ST/STM32_USB_Device_Library/Core/Src/usbd_core.c ****             {
 1453              		.loc 1 720 32 view .LVU431
 1454 008e DA68     		ldr	r2, [r3, #12]
 720:/home/dat/Documents/colir_one/rocket_code/Middlewares/ST/STM32_USB_Device_Library/Core/Src/usbd_core.c ****             {
 1455              		.loc 1 720 16 view .LVU432
 1456 0090 002A     		cmp	r2, #0
 1457 0092 D2D0     		beq	.L98
 722:/home/dat/Documents/colir_one/rocket_code/Middlewares/ST/STM32_USB_Device_Library/Core/Src/usbd_core.c ****               pdev->pClass[0]->EP0_TxSent(pdev);
 1458              		.loc 1 722 15 is_stmt 1 view .LVU433
 722:/home/dat/Documents/colir_one/rocket_code/Middlewares/ST/STM32_USB_Device_Library/Core/Src/usbd_core.c ****               pdev->pClass[0]->EP0_TxSent(pdev);
 1459              		.loc 1 722 29 is_stmt 0 view .LVU434
 1460 0094 0022     		movs	r2, #0
 1461 0096 C4F8D422 		str	r2, [r4, #724]
 723:/home/dat/Documents/colir_one/rocket_code/Middlewares/ST/STM32_USB_Device_Library/Core/Src/usbd_core.c ****             }
 1462              		.loc 1 723 15 is_stmt 1 view .LVU435
 723:/home/dat/Documents/colir_one/rocket_code/Middlewares/ST/STM32_USB_Device_Library/Core/Src/usbd_core.c ****             }
 1463              		.loc 1 723 30 is_stmt 0 view .LVU436
 1464 009a DB68     		ldr	r3, [r3, #12]
 723:/home/dat/Documents/colir_one/rocket_code/Middlewares/ST/STM32_USB_Device_Library/Core/Src/usbd_core.c ****             }
 1465              		.loc 1 723 15 view .LVU437
 1466 009c 2046     		mov	r0, r4
 1467              	.LVL135:
 723:/home/dat/Documents/colir_one/rocket_code/Middlewares/ST/STM32_USB_Device_Library/Core/Src/usbd_core.c ****             }
 1468              		.loc 1 723 15 view .LVU438
 1469 009e 9847     		blx	r3
 1470              	.LVL136:
 1471 00a0 CBE7     		b	.L98
 1472              	.LVL137:
 1473              	.L94:
 741:/home/dat/Documents/colir_one/rocket_code/Middlewares/ST/STM32_USB_Device_Library/Core/Src/usbd_core.c **** 
 1474              		.loc 1 741 5 is_stmt 1 view .LVU439
 741:/home/dat/Documents/colir_one/rocket_code/Middlewares/ST/STM32_USB_Device_Library/Core/Src/usbd_core.c **** 
 1475              		.loc 1 741 11 is_stmt 0 view .LVU440
 1476 00a2 41F08001 		orr	r1, r1, #128
 1477              	.LVL138:
 741:/home/dat/Documents/colir_one/rocket_code/Middlewares/ST/STM32_USB_Device_Library/Core/Src/usbd_core.c **** 
 1478              		.loc 1 741 11 view .LVU441
 1479 00a6 FFF7FEFF 		bl	USBD_CoreFindEP
 1480              	.LVL139:
 743:/home/dat/Documents/colir_one/rocket_code/Middlewares/ST/STM32_USB_Device_Library/Core/Src/usbd_core.c ****     {
 1481              		.loc 1 743 5 is_stmt 1 view .LVU442
ARM GAS  /tmp/cc6uACF9.s 			page 49


 743:/home/dat/Documents/colir_one/rocket_code/Middlewares/ST/STM32_USB_Device_Library/Core/Src/usbd_core.c ****     {
 1482              		.loc 1 743 8 is_stmt 0 view .LVU443
 1483 00aa 90B9     		cbnz	r0, .L100
 746:/home/dat/Documents/colir_one/rocket_code/Middlewares/ST/STM32_USB_Device_Library/Core/Src/usbd_core.c ****       {
 1484              		.loc 1 746 7 is_stmt 1 view .LVU444
 746:/home/dat/Documents/colir_one/rocket_code/Middlewares/ST/STM32_USB_Device_Library/Core/Src/usbd_core.c ****       {
 1485              		.loc 1 746 15 is_stmt 0 view .LVU445
 1486 00ac 94F89C32 		ldrb	r3, [r4, #668]	@ zero_extendqisi2
 1487 00b0 DBB2     		uxtb	r3, r3
 746:/home/dat/Documents/colir_one/rocket_code/Middlewares/ST/STM32_USB_Device_Library/Core/Src/usbd_core.c ****       {
 1488              		.loc 1 746 10 view .LVU446
 1489 00b2 032B     		cmp	r3, #3
 1490 00b4 B5D1     		bne	.L99
 748:/home/dat/Documents/colir_one/rocket_code/Middlewares/ST/STM32_USB_Device_Library/Core/Src/usbd_core.c ****         {
 1491              		.loc 1 748 9 is_stmt 1 view .LVU447
 748:/home/dat/Documents/colir_one/rocket_code/Middlewares/ST/STM32_USB_Device_Library/Core/Src/usbd_core.c ****         {
 1492              		.loc 1 748 25 is_stmt 0 view .LVU448
 1493 00b6 00F1AE03 		add	r3, r0, #174
 1494 00ba 54F82330 		ldr	r3, [r4, r3, lsl #2]
 748:/home/dat/Documents/colir_one/rocket_code/Middlewares/ST/STM32_USB_Device_Library/Core/Src/usbd_core.c ****         {
 1495              		.loc 1 748 30 view .LVU449
 1496 00be 5A69     		ldr	r2, [r3, #20]
 748:/home/dat/Documents/colir_one/rocket_code/Middlewares/ST/STM32_USB_Device_Library/Core/Src/usbd_core.c ****         {
 1497              		.loc 1 748 12 view .LVU450
 1498 00c0 002A     		cmp	r2, #0
 1499 00c2 AED0     		beq	.L99
 750:/home/dat/Documents/colir_one/rocket_code/Middlewares/ST/STM32_USB_Device_Library/Core/Src/usbd_core.c ****           ret = (USBD_StatusTypeDef)pdev->pClass[idx]->DataIn(pdev, epnum);
 1500              		.loc 1 750 11 is_stmt 1 view .LVU451
 750:/home/dat/Documents/colir_one/rocket_code/Middlewares/ST/STM32_USB_Device_Library/Core/Src/usbd_core.c ****           ret = (USBD_StatusTypeDef)pdev->pClass[idx]->DataIn(pdev, epnum);
 1501              		.loc 1 750 25 is_stmt 0 view .LVU452
 1502 00c4 C4F8D402 		str	r0, [r4, #724]
 751:/home/dat/Documents/colir_one/rocket_code/Middlewares/ST/STM32_USB_Device_Library/Core/Src/usbd_core.c **** 
 1503              		.loc 1 751 11 is_stmt 1 view .LVU453
 751:/home/dat/Documents/colir_one/rocket_code/Middlewares/ST/STM32_USB_Device_Library/Core/Src/usbd_core.c **** 
 1504              		.loc 1 751 54 is_stmt 0 view .LVU454
 1505 00c8 5B69     		ldr	r3, [r3, #20]
 751:/home/dat/Documents/colir_one/rocket_code/Middlewares/ST/STM32_USB_Device_Library/Core/Src/usbd_core.c **** 
 1506              		.loc 1 751 37 view .LVU455
 1507 00ca 2946     		mov	r1, r5
 1508 00cc 2046     		mov	r0, r4
 1509              	.LVL140:
 751:/home/dat/Documents/colir_one/rocket_code/Middlewares/ST/STM32_USB_Device_Library/Core/Src/usbd_core.c **** 
 1510              		.loc 1 751 37 view .LVU456
 1511 00ce 9847     		blx	r3
 1512              	.LVL141:
 753:/home/dat/Documents/colir_one/rocket_code/Middlewares/ST/STM32_USB_Device_Library/Core/Src/usbd_core.c ****           {
 1513              		.loc 1 753 11 is_stmt 1 view .LVU457
 1514 00d0 A7E7     		b	.L99
 1515              	.LVL142:
 1516              	.L100:
 762:/home/dat/Documents/colir_one/rocket_code/Middlewares/ST/STM32_USB_Device_Library/Core/Src/usbd_core.c **** }
 1517              		.loc 1 762 10 is_stmt 0 view .LVU458
 1518 00d2 0020     		movs	r0, #0
 1519              	.LVL143:
 762:/home/dat/Documents/colir_one/rocket_code/Middlewares/ST/STM32_USB_Device_Library/Core/Src/usbd_core.c **** }
 1520              		.loc 1 762 10 view .LVU459
 1521 00d4 A5E7     		b	.L99
ARM GAS  /tmp/cc6uACF9.s 			page 50


 1522              		.cfi_endproc
 1523              	.LFE148:
 1525              		.section	.text.USBD_GetNextDesc,"ax",%progbits
 1526              		.align	1
 1527              		.global	USBD_GetNextDesc
 1528              		.syntax unified
 1529              		.thumb
 1530              		.thumb_func
 1532              	USBD_GetNextDesc:
 1533              	.LVL144:
 1534              	.LFB161:
1112:/home/dat/Documents/colir_one/rocket_code/Middlewares/ST/STM32_USB_Device_Library/Core/Src/usbd_core.c **** 
1113:/home/dat/Documents/colir_one/rocket_code/Middlewares/ST/STM32_USB_Device_Library/Core/Src/usbd_core.c **** #ifdef USE_USBD_COMPOSITE
1114:/home/dat/Documents/colir_one/rocket_code/Middlewares/ST/STM32_USB_Device_Library/Core/Src/usbd_core.c **** /**
1115:/home/dat/Documents/colir_one/rocket_code/Middlewares/ST/STM32_USB_Device_Library/Core/Src/usbd_core.c ****   * @brief  USBD_CoreGetEPAdd
1116:/home/dat/Documents/colir_one/rocket_code/Middlewares/ST/STM32_USB_Device_Library/Core/Src/usbd_core.c ****   *         Get the endpoint address relative to a selected class
1117:/home/dat/Documents/colir_one/rocket_code/Middlewares/ST/STM32_USB_Device_Library/Core/Src/usbd_core.c ****   * @param  pdev: device instance
1118:/home/dat/Documents/colir_one/rocket_code/Middlewares/ST/STM32_USB_Device_Library/Core/Src/usbd_core.c ****   * @param  ep_dir: USBD_EP_IN or USBD_EP_OUT
1119:/home/dat/Documents/colir_one/rocket_code/Middlewares/ST/STM32_USB_Device_Library/Core/Src/usbd_core.c ****   * @param  ep_type: USBD_EP_TYPE_CTRL, USBD_EP_TYPE_ISOC, USBD_EP_TYPE_BULK or USBD_EP_TYPE_INTR
1120:/home/dat/Documents/colir_one/rocket_code/Middlewares/ST/STM32_USB_Device_Library/Core/Src/usbd_core.c ****   * @param  ClassId: The Class ID
1121:/home/dat/Documents/colir_one/rocket_code/Middlewares/ST/STM32_USB_Device_Library/Core/Src/usbd_core.c ****   * @retval Address of the selected endpoint or 0xFFU if no endpoint found.
1122:/home/dat/Documents/colir_one/rocket_code/Middlewares/ST/STM32_USB_Device_Library/Core/Src/usbd_core.c ****   */
1123:/home/dat/Documents/colir_one/rocket_code/Middlewares/ST/STM32_USB_Device_Library/Core/Src/usbd_core.c **** uint8_t USBD_CoreGetEPAdd(USBD_HandleTypeDef *pdev, uint8_t ep_dir, uint8_t ep_type, uint8_t ClassI
1124:/home/dat/Documents/colir_one/rocket_code/Middlewares/ST/STM32_USB_Device_Library/Core/Src/usbd_core.c **** {
1125:/home/dat/Documents/colir_one/rocket_code/Middlewares/ST/STM32_USB_Device_Library/Core/Src/usbd_core.c ****   uint8_t idx;
1126:/home/dat/Documents/colir_one/rocket_code/Middlewares/ST/STM32_USB_Device_Library/Core/Src/usbd_core.c **** 
1127:/home/dat/Documents/colir_one/rocket_code/Middlewares/ST/STM32_USB_Device_Library/Core/Src/usbd_core.c ****   /* Find the EP address in the selected class table */
1128:/home/dat/Documents/colir_one/rocket_code/Middlewares/ST/STM32_USB_Device_Library/Core/Src/usbd_core.c ****   for (idx = 0; idx < pdev->tclasslist[ClassId].NumEps; idx++)
1129:/home/dat/Documents/colir_one/rocket_code/Middlewares/ST/STM32_USB_Device_Library/Core/Src/usbd_core.c ****   {
1130:/home/dat/Documents/colir_one/rocket_code/Middlewares/ST/STM32_USB_Device_Library/Core/Src/usbd_core.c ****     if (((pdev->tclasslist[ClassId].Eps[idx].add & USBD_EP_IN) == ep_dir) && \
1131:/home/dat/Documents/colir_one/rocket_code/Middlewares/ST/STM32_USB_Device_Library/Core/Src/usbd_core.c ****         (pdev->tclasslist[ClassId].Eps[idx].type == ep_type) && \
1132:/home/dat/Documents/colir_one/rocket_code/Middlewares/ST/STM32_USB_Device_Library/Core/Src/usbd_core.c ****         (pdev->tclasslist[ClassId].Eps[idx].is_used != 0U))
1133:/home/dat/Documents/colir_one/rocket_code/Middlewares/ST/STM32_USB_Device_Library/Core/Src/usbd_core.c ****     {
1134:/home/dat/Documents/colir_one/rocket_code/Middlewares/ST/STM32_USB_Device_Library/Core/Src/usbd_core.c ****       return (pdev->tclasslist[ClassId].Eps[idx].add);
1135:/home/dat/Documents/colir_one/rocket_code/Middlewares/ST/STM32_USB_Device_Library/Core/Src/usbd_core.c ****     }
1136:/home/dat/Documents/colir_one/rocket_code/Middlewares/ST/STM32_USB_Device_Library/Core/Src/usbd_core.c ****   }
1137:/home/dat/Documents/colir_one/rocket_code/Middlewares/ST/STM32_USB_Device_Library/Core/Src/usbd_core.c **** 
1138:/home/dat/Documents/colir_one/rocket_code/Middlewares/ST/STM32_USB_Device_Library/Core/Src/usbd_core.c ****   /* If reaching this point, then no endpoint was found */
1139:/home/dat/Documents/colir_one/rocket_code/Middlewares/ST/STM32_USB_Device_Library/Core/Src/usbd_core.c ****   return 0xFFU;
1140:/home/dat/Documents/colir_one/rocket_code/Middlewares/ST/STM32_USB_Device_Library/Core/Src/usbd_core.c **** }
1141:/home/dat/Documents/colir_one/rocket_code/Middlewares/ST/STM32_USB_Device_Library/Core/Src/usbd_core.c **** #endif /* USE_USBD_COMPOSITE */
1142:/home/dat/Documents/colir_one/rocket_code/Middlewares/ST/STM32_USB_Device_Library/Core/Src/usbd_core.c **** 
1143:/home/dat/Documents/colir_one/rocket_code/Middlewares/ST/STM32_USB_Device_Library/Core/Src/usbd_core.c **** /**
1144:/home/dat/Documents/colir_one/rocket_code/Middlewares/ST/STM32_USB_Device_Library/Core/Src/usbd_core.c ****   * @brief  USBD_GetEpDesc
1145:/home/dat/Documents/colir_one/rocket_code/Middlewares/ST/STM32_USB_Device_Library/Core/Src/usbd_core.c ****   *         This function return the Endpoint descriptor
1146:/home/dat/Documents/colir_one/rocket_code/Middlewares/ST/STM32_USB_Device_Library/Core/Src/usbd_core.c ****   * @param  pdev: device instance
1147:/home/dat/Documents/colir_one/rocket_code/Middlewares/ST/STM32_USB_Device_Library/Core/Src/usbd_core.c ****   * @param  pConfDesc:  pointer to Bos descriptor
1148:/home/dat/Documents/colir_one/rocket_code/Middlewares/ST/STM32_USB_Device_Library/Core/Src/usbd_core.c ****   * @param  EpAddr:  endpoint address
1149:/home/dat/Documents/colir_one/rocket_code/Middlewares/ST/STM32_USB_Device_Library/Core/Src/usbd_core.c ****   * @retval pointer to video endpoint descriptor
1150:/home/dat/Documents/colir_one/rocket_code/Middlewares/ST/STM32_USB_Device_Library/Core/Src/usbd_core.c ****   */
1151:/home/dat/Documents/colir_one/rocket_code/Middlewares/ST/STM32_USB_Device_Library/Core/Src/usbd_core.c **** void *USBD_GetEpDesc(uint8_t *pConfDesc, uint8_t EpAddr)
1152:/home/dat/Documents/colir_one/rocket_code/Middlewares/ST/STM32_USB_Device_Library/Core/Src/usbd_core.c **** {
1153:/home/dat/Documents/colir_one/rocket_code/Middlewares/ST/STM32_USB_Device_Library/Core/Src/usbd_core.c ****   USBD_DescHeaderTypeDef *pdesc = (USBD_DescHeaderTypeDef *)(void *)pConfDesc;
1154:/home/dat/Documents/colir_one/rocket_code/Middlewares/ST/STM32_USB_Device_Library/Core/Src/usbd_core.c ****   USBD_ConfigDescTypeDef *desc = (USBD_ConfigDescTypeDef *)(void *)pConfDesc;
1155:/home/dat/Documents/colir_one/rocket_code/Middlewares/ST/STM32_USB_Device_Library/Core/Src/usbd_core.c ****   USBD_EpDescTypeDef *pEpDesc = NULL;
1156:/home/dat/Documents/colir_one/rocket_code/Middlewares/ST/STM32_USB_Device_Library/Core/Src/usbd_core.c ****   uint16_t ptr;
1157:/home/dat/Documents/colir_one/rocket_code/Middlewares/ST/STM32_USB_Device_Library/Core/Src/usbd_core.c **** 
ARM GAS  /tmp/cc6uACF9.s 			page 51


1158:/home/dat/Documents/colir_one/rocket_code/Middlewares/ST/STM32_USB_Device_Library/Core/Src/usbd_core.c ****   if (desc->wTotalLength > desc->bLength)
1159:/home/dat/Documents/colir_one/rocket_code/Middlewares/ST/STM32_USB_Device_Library/Core/Src/usbd_core.c ****   {
1160:/home/dat/Documents/colir_one/rocket_code/Middlewares/ST/STM32_USB_Device_Library/Core/Src/usbd_core.c ****     ptr = desc->bLength;
1161:/home/dat/Documents/colir_one/rocket_code/Middlewares/ST/STM32_USB_Device_Library/Core/Src/usbd_core.c **** 
1162:/home/dat/Documents/colir_one/rocket_code/Middlewares/ST/STM32_USB_Device_Library/Core/Src/usbd_core.c ****     while (ptr < desc->wTotalLength)
1163:/home/dat/Documents/colir_one/rocket_code/Middlewares/ST/STM32_USB_Device_Library/Core/Src/usbd_core.c ****     {
1164:/home/dat/Documents/colir_one/rocket_code/Middlewares/ST/STM32_USB_Device_Library/Core/Src/usbd_core.c ****       pdesc = USBD_GetNextDesc((uint8_t *)pdesc, &ptr);
1165:/home/dat/Documents/colir_one/rocket_code/Middlewares/ST/STM32_USB_Device_Library/Core/Src/usbd_core.c **** 
1166:/home/dat/Documents/colir_one/rocket_code/Middlewares/ST/STM32_USB_Device_Library/Core/Src/usbd_core.c ****       if (pdesc->bDescriptorType == USB_DESC_TYPE_ENDPOINT)
1167:/home/dat/Documents/colir_one/rocket_code/Middlewares/ST/STM32_USB_Device_Library/Core/Src/usbd_core.c ****       {
1168:/home/dat/Documents/colir_one/rocket_code/Middlewares/ST/STM32_USB_Device_Library/Core/Src/usbd_core.c ****         pEpDesc = (USBD_EpDescTypeDef *)(void *)pdesc;
1169:/home/dat/Documents/colir_one/rocket_code/Middlewares/ST/STM32_USB_Device_Library/Core/Src/usbd_core.c **** 
1170:/home/dat/Documents/colir_one/rocket_code/Middlewares/ST/STM32_USB_Device_Library/Core/Src/usbd_core.c ****         if (pEpDesc->bEndpointAddress == EpAddr)
1171:/home/dat/Documents/colir_one/rocket_code/Middlewares/ST/STM32_USB_Device_Library/Core/Src/usbd_core.c ****         {
1172:/home/dat/Documents/colir_one/rocket_code/Middlewares/ST/STM32_USB_Device_Library/Core/Src/usbd_core.c ****           break;
