ARM GAS  /tmp/cclZauEM.s 			page 1


   1              		.cpu cortex-m4
   2              		.arch armv7e-m
   3              		.fpu fpv4-sp-d16
   4              		.eabi_attribute 27, 1
   5              		.eabi_attribute 28, 1
   6              		.eabi_attribute 20, 1
   7              		.eabi_attribute 21, 1
   8              		.eabi_attribute 23, 3
   9              		.eabi_attribute 24, 1
  10              		.eabi_attribute 25, 1
  11              		.eabi_attribute 26, 1
  12              		.eabi_attribute 30, 1
  13              		.eabi_attribute 34, 1
  14              		.eabi_attribute 18, 4
  15              		.file	"bno055.c"
  16              		.text
  17              	.Ltext0:
  18              		.cfi_sections	.debug_frame
  19              		.file 1 "/home/dat/Documents/colir_one/rocket_code/Module/Src/bno055.c"
  20              		.section	.text.bno055_writeData,"ax",%progbits
  21              		.align	1
  22              		.syntax unified
  23              		.thumb
  24              		.thumb_func
  26              	bno055_writeData:
  27              	.LVL0:
  28              	.LFB139:
   1:/home/dat/Documents/colir_one/rocket_code/Module/Src/bno055.c **** /*
   2:/home/dat/Documents/colir_one/rocket_code/Module/Src/bno055.c ****  * bmo055.c
   3:/home/dat/Documents/colir_one/rocket_code/Module/Src/bno055.c ****  *
   4:/home/dat/Documents/colir_one/rocket_code/Module/Src/bno055.c ****  *  Created on: April 28, 2025
   5:/home/dat/Documents/colir_one/rocket_code/Module/Src/bno055.c ****  *      Author: Dat Hoang
   6:/home/dat/Documents/colir_one/rocket_code/Module/Src/bno055.c ****  */
   7:/home/dat/Documents/colir_one/rocket_code/Module/Src/bno055.c **** #include "bno055.h"
   8:/home/dat/Documents/colir_one/rocket_code/Module/Src/bno055.c **** #include <string.h>
   9:/home/dat/Documents/colir_one/rocket_code/Module/Src/bno055.c **** #include <stm32f4xx_hal_i2c.h>
  10:/home/dat/Documents/colir_one/rocket_code/Module/Src/bno055.c **** 
  11:/home/dat/Documents/colir_one/rocket_code/Module/Src/bno055.c **** uint16_t accelScale = 100;
  12:/home/dat/Documents/colir_one/rocket_code/Module/Src/bno055.c **** uint16_t tempScale = 1;
  13:/home/dat/Documents/colir_one/rocket_code/Module/Src/bno055.c **** uint16_t angularRateScale = 16;
  14:/home/dat/Documents/colir_one/rocket_code/Module/Src/bno055.c **** uint16_t eulerScale = 16;
  15:/home/dat/Documents/colir_one/rocket_code/Module/Src/bno055.c **** uint16_t magScale = 16;
  16:/home/dat/Documents/colir_one/rocket_code/Module/Src/bno055.c **** uint16_t quaScale = (1<<14);    // 2^14
  17:/home/dat/Documents/colir_one/rocket_code/Module/Src/bno055.c **** 
  18:/home/dat/Documents/colir_one/rocket_code/Module/Src/bno055.c **** I2C_HandleTypeDef *_bno055_i2c_port;
  19:/home/dat/Documents/colir_one/rocket_code/Module/Src/bno055.c **** 
  20:/home/dat/Documents/colir_one/rocket_code/Module/Src/bno055.c **** void bno055_assignI2C(I2C_HandleTypeDef *hi2c_device) {
  21:/home/dat/Documents/colir_one/rocket_code/Module/Src/bno055.c ****   _bno055_i2c_port = hi2c_device;
  22:/home/dat/Documents/colir_one/rocket_code/Module/Src/bno055.c **** }
  23:/home/dat/Documents/colir_one/rocket_code/Module/Src/bno055.c **** 
  24:/home/dat/Documents/colir_one/rocket_code/Module/Src/bno055.c **** static void bno055_delay(int time) {
  25:/home/dat/Documents/colir_one/rocket_code/Module/Src/bno055.c **** #ifdef FREERTOS_ENABLED
  26:/home/dat/Documents/colir_one/rocket_code/Module/Src/bno055.c ****   osDelay(time);
  27:/home/dat/Documents/colir_one/rocket_code/Module/Src/bno055.c **** #else
  28:/home/dat/Documents/colir_one/rocket_code/Module/Src/bno055.c ****   HAL_Delay(time);
  29:/home/dat/Documents/colir_one/rocket_code/Module/Src/bno055.c **** #endif
  30:/home/dat/Documents/colir_one/rocket_code/Module/Src/bno055.c **** }
ARM GAS  /tmp/cclZauEM.s 			page 2


  31:/home/dat/Documents/colir_one/rocket_code/Module/Src/bno055.c **** 
  32:/home/dat/Documents/colir_one/rocket_code/Module/Src/bno055.c **** static HAL_StatusTypeDef bno055_writeData(uint8_t reg, uint8_t data) {
  29              		.loc 1 32 70 view -0
  30              		.cfi_startproc
  31              		@ args = 0, pretend = 0, frame = 8
  32              		@ frame_needed = 0, uses_anonymous_args = 0
  33              		.loc 1 32 70 is_stmt 0 view .LVU1
  34 0000 00B5     		push	{lr}
  35              	.LCFI0:
  36              		.cfi_def_cfa_offset 4
  37              		.cfi_offset 14, -4
  38 0002 85B0     		sub	sp, sp, #20
  39              	.LCFI1:
  40              		.cfi_def_cfa_offset 24
  33:/home/dat/Documents/colir_one/rocket_code/Module/Src/bno055.c ****   uint8_t txdata[2] = {reg, data};
  41              		.loc 1 33 3 is_stmt 1 view .LVU2
  42              		.loc 1 33 11 is_stmt 0 view .LVU3
  43 0004 8DF80C00 		strb	r0, [sp, #12]
  44 0008 8DF80D10 		strb	r1, [sp, #13]
  34:/home/dat/Documents/colir_one/rocket_code/Module/Src/bno055.c ****   HAL_StatusTypeDef status;
  45              		.loc 1 34 3 is_stmt 1 view .LVU4
  35:/home/dat/Documents/colir_one/rocket_code/Module/Src/bno055.c ****   status = HAL_I2C_Master_Transmit(_bno055_i2c_port, BNO055_I2C_ADDR << 1,
  46              		.loc 1 35 3 view .LVU5
  47              		.loc 1 35 12 is_stmt 0 view .LVU6
  48 000c 0A23     		movs	r3, #10
  49 000e 0093     		str	r3, [sp]
  50 0010 0223     		movs	r3, #2
  51 0012 03AA     		add	r2, sp, #12
  52 0014 5021     		movs	r1, #80
  53              	.LVL1:
  54              		.loc 1 35 12 view .LVU7
  55 0016 0348     		ldr	r0, .L3
  56              	.LVL2:
  57              		.loc 1 35 12 view .LVU8
  58 0018 0068     		ldr	r0, [r0]
  59 001a FFF7FEFF 		bl	HAL_I2C_Master_Transmit
  60              	.LVL3:
  36:/home/dat/Documents/colir_one/rocket_code/Module/Src/bno055.c ****                                    txdata, sizeof(txdata), 10);
  37:/home/dat/Documents/colir_one/rocket_code/Module/Src/bno055.c ****   return status;
  61              		.loc 1 37 3 is_stmt 1 view .LVU9
  38:/home/dat/Documents/colir_one/rocket_code/Module/Src/bno055.c **** }
  62              		.loc 1 38 1 is_stmt 0 view .LVU10
  63 001e 05B0     		add	sp, sp, #20
  64              	.LCFI2:
  65              		.cfi_def_cfa_offset 4
  66              		@ sp needed
  67 0020 5DF804FB 		ldr	pc, [sp], #4
  68              	.L4:
  69              		.align	2
  70              	.L3:
  71 0024 00000000 		.word	_bno055_i2c_port
  72              		.cfi_endproc
  73              	.LFE139:
  75              		.section	.text.bno055_setPage,"ax",%progbits
  76              		.align	1
  77              		.syntax unified
  78              		.thumb
ARM GAS  /tmp/cclZauEM.s 			page 3


  79              		.thumb_func
  81              	bno055_setPage:
  82              	.LVL4:
  83              	.LFB141:
  39:/home/dat/Documents/colir_one/rocket_code/Module/Src/bno055.c **** 
  40:/home/dat/Documents/colir_one/rocket_code/Module/Src/bno055.c **** static HAL_StatusTypeDef bno055_readData(uint8_t reg, uint8_t *data, uint8_t len) {
  41:/home/dat/Documents/colir_one/rocket_code/Module/Src/bno055.c ****   HAL_StatusTypeDef status = HAL_OK;
  42:/home/dat/Documents/colir_one/rocket_code/Module/Src/bno055.c ****   status |= HAL_I2C_Master_Transmit(_bno055_i2c_port, BNO055_I2C_ADDR << 1, &reg, 1,
  43:/home/dat/Documents/colir_one/rocket_code/Module/Src/bno055.c ****                           100);
  44:/home/dat/Documents/colir_one/rocket_code/Module/Src/bno055.c ****   status |= HAL_I2C_Master_Receive(_bno055_i2c_port, BNO055_I2C_ADDR << 1, data, len,
  45:/home/dat/Documents/colir_one/rocket_code/Module/Src/bno055.c ****                          100);
  46:/home/dat/Documents/colir_one/rocket_code/Module/Src/bno055.c ****   return status;
  47:/home/dat/Documents/colir_one/rocket_code/Module/Src/bno055.c **** }
  48:/home/dat/Documents/colir_one/rocket_code/Module/Src/bno055.c **** 
  49:/home/dat/Documents/colir_one/rocket_code/Module/Src/bno055.c **** 
  50:/home/dat/Documents/colir_one/rocket_code/Module/Src/bno055.c **** static HAL_StatusTypeDef bno055_setPage(uint8_t page) { 
  84              		.loc 1 50 55 is_stmt 1 view -0
  85              		.cfi_startproc
  86              		@ args = 0, pretend = 0, frame = 0
  87              		@ frame_needed = 0, uses_anonymous_args = 0
  88              		.loc 1 50 55 is_stmt 0 view .LVU12
  89 0000 08B5     		push	{r3, lr}
  90              	.LCFI3:
  91              		.cfi_def_cfa_offset 8
  92              		.cfi_offset 3, -8
  93              		.cfi_offset 14, -4
  94 0002 0146     		mov	r1, r0
  51:/home/dat/Documents/colir_one/rocket_code/Module/Src/bno055.c ****   HAL_StatusTypeDef status = bno055_writeData(BNO055_PAGE_ID, page); 
  95              		.loc 1 51 3 is_stmt 1 view .LVU13
  96              		.loc 1 51 30 is_stmt 0 view .LVU14
  97 0004 0720     		movs	r0, #7
  98              	.LVL5:
  99              		.loc 1 51 30 view .LVU15
 100 0006 FFF7FEFF 		bl	bno055_writeData
 101              	.LVL6:
  52:/home/dat/Documents/colir_one/rocket_code/Module/Src/bno055.c ****   return status;
 102              		.loc 1 52 3 is_stmt 1 view .LVU16
  53:/home/dat/Documents/colir_one/rocket_code/Module/Src/bno055.c **** }
 103              		.loc 1 53 1 is_stmt 0 view .LVU17
 104 000a 08BD     		pop	{r3, pc}
 105              		.cfi_endproc
 106              	.LFE141:
 108              		.section	.text.bno055_readData,"ax",%progbits
 109              		.align	1
 110              		.syntax unified
 111              		.thumb
 112              		.thumb_func
 114              	bno055_readData:
 115              	.LVL7:
 116              	.LFB140:
  40:/home/dat/Documents/colir_one/rocket_code/Module/Src/bno055.c ****   HAL_StatusTypeDef status = HAL_OK;
 117              		.loc 1 40 83 is_stmt 1 view -0
 118              		.cfi_startproc
 119              		@ args = 0, pretend = 0, frame = 8
 120              		@ frame_needed = 0, uses_anonymous_args = 0
  40:/home/dat/Documents/colir_one/rocket_code/Module/Src/bno055.c ****   HAL_StatusTypeDef status = HAL_OK;
 121              		.loc 1 40 83 is_stmt 0 view .LVU19
ARM GAS  /tmp/cclZauEM.s 			page 4


 122 0000 2DE9F041 		push	{r4, r5, r6, r7, r8, lr}
 123              	.LCFI4:
 124              		.cfi_def_cfa_offset 24
 125              		.cfi_offset 4, -24
 126              		.cfi_offset 5, -20
 127              		.cfi_offset 6, -16
 128              		.cfi_offset 7, -12
 129              		.cfi_offset 8, -8
 130              		.cfi_offset 14, -4
 131 0004 84B0     		sub	sp, sp, #16
 132              	.LCFI5:
 133              		.cfi_def_cfa_offset 40
 134 0006 0D46     		mov	r5, r1
 135 0008 1646     		mov	r6, r2
 136 000a 8DF80F00 		strb	r0, [sp, #15]
  41:/home/dat/Documents/colir_one/rocket_code/Module/Src/bno055.c ****   status |= HAL_I2C_Master_Transmit(_bno055_i2c_port, BNO055_I2C_ADDR << 1, &reg, 1,
 137              		.loc 1 41 3 is_stmt 1 view .LVU20
 138              	.LVL8:
  42:/home/dat/Documents/colir_one/rocket_code/Module/Src/bno055.c ****                           100);
 139              		.loc 1 42 3 view .LVU21
  42:/home/dat/Documents/colir_one/rocket_code/Module/Src/bno055.c ****                           100);
 140              		.loc 1 42 13 is_stmt 0 view .LVU22
 141 000e 0D4F     		ldr	r7, .L9
 142 0010 4FF06408 		mov	r8, #100
 143 0014 CDF80080 		str	r8, [sp]
 144 0018 0123     		movs	r3, #1
 145 001a 0DF10F02 		add	r2, sp, #15
 146              	.LVL9:
  42:/home/dat/Documents/colir_one/rocket_code/Module/Src/bno055.c ****                           100);
 147              		.loc 1 42 13 view .LVU23
 148 001e 5021     		movs	r1, #80
 149              	.LVL10:
  42:/home/dat/Documents/colir_one/rocket_code/Module/Src/bno055.c ****                           100);
 150              		.loc 1 42 13 view .LVU24
 151 0020 3868     		ldr	r0, [r7]
 152              	.LVL11:
  42:/home/dat/Documents/colir_one/rocket_code/Module/Src/bno055.c ****                           100);
 153              		.loc 1 42 13 view .LVU25
 154 0022 FFF7FEFF 		bl	HAL_I2C_Master_Transmit
 155              	.LVL12:
  42:/home/dat/Documents/colir_one/rocket_code/Module/Src/bno055.c ****                           100);
 156              		.loc 1 42 13 view .LVU26
 157 0026 0446     		mov	r4, r0
 158              	.LVL13:
  44:/home/dat/Documents/colir_one/rocket_code/Module/Src/bno055.c ****                          100);
 159              		.loc 1 44 3 is_stmt 1 view .LVU27
  44:/home/dat/Documents/colir_one/rocket_code/Module/Src/bno055.c ****                          100);
 160              		.loc 1 44 13 is_stmt 0 view .LVU28
 161 0028 CDF80080 		str	r8, [sp]
 162 002c 3346     		mov	r3, r6
 163 002e 2A46     		mov	r2, r5
 164 0030 5021     		movs	r1, #80
 165 0032 3868     		ldr	r0, [r7]
 166 0034 FFF7FEFF 		bl	HAL_I2C_Master_Receive
 167              	.LVL14:
  44:/home/dat/Documents/colir_one/rocket_code/Module/Src/bno055.c ****                          100);
 168              		.loc 1 44 10 discriminator 1 view .LVU29
ARM GAS  /tmp/cclZauEM.s 			page 5


 169 0038 2043     		orrs	r0, r0, r4
 170              	.LVL15:
  46:/home/dat/Documents/colir_one/rocket_code/Module/Src/bno055.c **** }
 171              		.loc 1 46 3 is_stmt 1 view .LVU30
  47:/home/dat/Documents/colir_one/rocket_code/Module/Src/bno055.c **** 
 172              		.loc 1 47 1 is_stmt 0 view .LVU31
 173 003a C0B2     		uxtb	r0, r0
  47:/home/dat/Documents/colir_one/rocket_code/Module/Src/bno055.c **** 
 174              		.loc 1 47 1 view .LVU32
 175 003c 04B0     		add	sp, sp, #16
 176              	.LCFI6:
 177              		.cfi_def_cfa_offset 24
 178              		@ sp needed
 179 003e BDE8F081 		pop	{r4, r5, r6, r7, r8, pc}
 180              	.LVL16:
 181              	.L10:
  47:/home/dat/Documents/colir_one/rocket_code/Module/Src/bno055.c **** 
 182              		.loc 1 47 1 view .LVU33
 183 0042 00BF     		.align	2
 184              	.L9:
 185 0044 00000000 		.word	_bno055_i2c_port
 186              		.cfi_endproc
 187              	.LFE140:
 189              		.global	__aeabi_ui2d
 190              		.global	__aeabi_i2d
 191              		.global	__aeabi_ddiv
 192              		.global	__aeabi_d2f
 193              		.section	.text.bno055_getVector,"ax",%progbits
 194              		.align	1
 195              		.syntax unified
 196              		.thumb
 197              		.thumb_func
 199              	bno055_getVector:
 200              	.LVL17:
 201              	.LFB160:
  54:/home/dat/Documents/colir_one/rocket_code/Module/Src/bno055.c **** 
  55:/home/dat/Documents/colir_one/rocket_code/Module/Src/bno055.c **** HAL_StatusTypeDef bno055_getOperationMode(bno055_opmode_t *mode) {
  56:/home/dat/Documents/colir_one/rocket_code/Module/Src/bno055.c ****   // bno055_opmode_t mode;
  57:/home/dat/Documents/colir_one/rocket_code/Module/Src/bno055.c ****   HAL_StatusTypeDef status= bno055_readData(BNO055_OPR_MODE, mode, 1);
  58:/home/dat/Documents/colir_one/rocket_code/Module/Src/bno055.c ****   return status;
  59:/home/dat/Documents/colir_one/rocket_code/Module/Src/bno055.c **** }
  60:/home/dat/Documents/colir_one/rocket_code/Module/Src/bno055.c **** 
  61:/home/dat/Documents/colir_one/rocket_code/Module/Src/bno055.c **** HAL_StatusTypeDef bno055_setOperationMode(bno055_opmode_t mode) {
  62:/home/dat/Documents/colir_one/rocket_code/Module/Src/bno055.c ****   HAL_StatusTypeDef status = bno055_writeData(BNO055_OPR_MODE, mode);
  63:/home/dat/Documents/colir_one/rocket_code/Module/Src/bno055.c ****   if (mode == BNO055_OPERATION_MODE_CONFIG) {
  64:/home/dat/Documents/colir_one/rocket_code/Module/Src/bno055.c ****     bno055_delay(19);
  65:/home/dat/Documents/colir_one/rocket_code/Module/Src/bno055.c ****   } else {
  66:/home/dat/Documents/colir_one/rocket_code/Module/Src/bno055.c ****     bno055_delay(7);
  67:/home/dat/Documents/colir_one/rocket_code/Module/Src/bno055.c ****   }
  68:/home/dat/Documents/colir_one/rocket_code/Module/Src/bno055.c ****   return status;
  69:/home/dat/Documents/colir_one/rocket_code/Module/Src/bno055.c **** }
  70:/home/dat/Documents/colir_one/rocket_code/Module/Src/bno055.c **** 
  71:/home/dat/Documents/colir_one/rocket_code/Module/Src/bno055.c **** HAL_StatusTypeDef bno055_setOperationModeConfig(void) {
  72:/home/dat/Documents/colir_one/rocket_code/Module/Src/bno055.c ****   HAL_StatusTypeDef status =  bno055_setOperationMode(BNO055_OPERATION_MODE_CONFIG);
  73:/home/dat/Documents/colir_one/rocket_code/Module/Src/bno055.c ****   return status;
  74:/home/dat/Documents/colir_one/rocket_code/Module/Src/bno055.c **** }
  75:/home/dat/Documents/colir_one/rocket_code/Module/Src/bno055.c **** 
ARM GAS  /tmp/cclZauEM.s 			page 6


  76:/home/dat/Documents/colir_one/rocket_code/Module/Src/bno055.c **** HAL_StatusTypeDef bno055_setOperationModeNDOF(void) {
  77:/home/dat/Documents/colir_one/rocket_code/Module/Src/bno055.c ****   HAL_StatusTypeDef status = bno055_setOperationMode(BNO055_OPERATION_MODE_NDOF);
  78:/home/dat/Documents/colir_one/rocket_code/Module/Src/bno055.c ****   return status;
  79:/home/dat/Documents/colir_one/rocket_code/Module/Src/bno055.c **** }
  80:/home/dat/Documents/colir_one/rocket_code/Module/Src/bno055.c **** 
  81:/home/dat/Documents/colir_one/rocket_code/Module/Src/bno055.c **** static HAL_StatusTypeDef bno055_setExternalCrystalUse(bool state) {
  82:/home/dat/Documents/colir_one/rocket_code/Module/Src/bno055.c ****   HAL_StatusTypeDef status = HAL_OK;
  83:/home/dat/Documents/colir_one/rocket_code/Module/Src/bno055.c ****   status |= bno055_setPage(0);
  84:/home/dat/Documents/colir_one/rocket_code/Module/Src/bno055.c ****   uint8_t tmp = 0;
  85:/home/dat/Documents/colir_one/rocket_code/Module/Src/bno055.c ****   status |= bno055_readData(BNO055_SYS_TRIGGER, &tmp, 1);
  86:/home/dat/Documents/colir_one/rocket_code/Module/Src/bno055.c ****   tmp |= (state == true) ? 0x80 : 0x0;
  87:/home/dat/Documents/colir_one/rocket_code/Module/Src/bno055.c ****   status |= bno055_writeData(BNO055_SYS_TRIGGER, tmp);
  88:/home/dat/Documents/colir_one/rocket_code/Module/Src/bno055.c ****   bno055_delay(700);
  89:/home/dat/Documents/colir_one/rocket_code/Module/Src/bno055.c ****   return status;
  90:/home/dat/Documents/colir_one/rocket_code/Module/Src/bno055.c **** }
  91:/home/dat/Documents/colir_one/rocket_code/Module/Src/bno055.c **** 
  92:/home/dat/Documents/colir_one/rocket_code/Module/Src/bno055.c **** HAL_StatusTypeDef bno055_enableExternalCrystal(void) { 
  93:/home/dat/Documents/colir_one/rocket_code/Module/Src/bno055.c ****   HAL_StatusTypeDef status =  bno055_setExternalCrystalUse(true); 
  94:/home/dat/Documents/colir_one/rocket_code/Module/Src/bno055.c ****   return status;
  95:/home/dat/Documents/colir_one/rocket_code/Module/Src/bno055.c **** }
  96:/home/dat/Documents/colir_one/rocket_code/Module/Src/bno055.c **** HAL_StatusTypeDef bno055_disableExternalCrystal(void) { 
  97:/home/dat/Documents/colir_one/rocket_code/Module/Src/bno055.c ****   HAL_StatusTypeDef status = bno055_setExternalCrystalUse(false); 
  98:/home/dat/Documents/colir_one/rocket_code/Module/Src/bno055.c ****   return status;
  99:/home/dat/Documents/colir_one/rocket_code/Module/Src/bno055.c **** }
 100:/home/dat/Documents/colir_one/rocket_code/Module/Src/bno055.c **** 
 101:/home/dat/Documents/colir_one/rocket_code/Module/Src/bno055.c **** HAL_StatusTypeDef bno055_reset(void) {
 102:/home/dat/Documents/colir_one/rocket_code/Module/Src/bno055.c ****   HAL_StatusTypeDef status = bno055_writeData(BNO055_SYS_TRIGGER, 0x20);
 103:/home/dat/Documents/colir_one/rocket_code/Module/Src/bno055.c ****   bno055_delay(700);
 104:/home/dat/Documents/colir_one/rocket_code/Module/Src/bno055.c ****   return status;
 105:/home/dat/Documents/colir_one/rocket_code/Module/Src/bno055.c **** }
 106:/home/dat/Documents/colir_one/rocket_code/Module/Src/bno055.c **** 
 107:/home/dat/Documents/colir_one/rocket_code/Module/Src/bno055.c **** HAL_StatusTypeDef bno055_getTemp(uint8_t *temp) {
 108:/home/dat/Documents/colir_one/rocket_code/Module/Src/bno055.c ****   HAL_StatusTypeDef status = HAL_OK;
 109:/home/dat/Documents/colir_one/rocket_code/Module/Src/bno055.c ****   status |= bno055_setPage(0);
 110:/home/dat/Documents/colir_one/rocket_code/Module/Src/bno055.c ****   status |= bno055_readData(BNO055_TEMP, temp, 1);
 111:/home/dat/Documents/colir_one/rocket_code/Module/Src/bno055.c ****   return status;
 112:/home/dat/Documents/colir_one/rocket_code/Module/Src/bno055.c **** }
 113:/home/dat/Documents/colir_one/rocket_code/Module/Src/bno055.c **** 
 114:/home/dat/Documents/colir_one/rocket_code/Module/Src/bno055.c **** HAL_StatusTypeDef bno055_setup(void) {
 115:/home/dat/Documents/colir_one/rocket_code/Module/Src/bno055.c ****   HAL_StatusTypeDef status = HAL_OK;
 116:/home/dat/Documents/colir_one/rocket_code/Module/Src/bno055.c ****   status |= bno055_reset();
 117:/home/dat/Documents/colir_one/rocket_code/Module/Src/bno055.c **** 
 118:/home/dat/Documents/colir_one/rocket_code/Module/Src/bno055.c ****   uint8_t id = 0;
 119:/home/dat/Documents/colir_one/rocket_code/Module/Src/bno055.c ****   status |= bno055_readData(BNO055_CHIP_ID, &id, 1);
 120:/home/dat/Documents/colir_one/rocket_code/Module/Src/bno055.c ****   if (id != BNO055_ID) {
 121:/home/dat/Documents/colir_one/rocket_code/Module/Src/bno055.c ****     printf("Can't find BNO055, id: 0x%02x. Please check your wiring.\r\n", id);
 122:/home/dat/Documents/colir_one/rocket_code/Module/Src/bno055.c ****   }
 123:/home/dat/Documents/colir_one/rocket_code/Module/Src/bno055.c ****   status |= bno055_setPage(0);
 124:/home/dat/Documents/colir_one/rocket_code/Module/Src/bno055.c ****   status |= bno055_writeData(BNO055_SYS_TRIGGER, 0x0);
 125:/home/dat/Documents/colir_one/rocket_code/Module/Src/bno055.c **** 
 126:/home/dat/Documents/colir_one/rocket_code/Module/Src/bno055.c ****   // Select BNO055 config mode
 127:/home/dat/Documents/colir_one/rocket_code/Module/Src/bno055.c ****   status |= bno055_setOperationModeConfig();
 128:/home/dat/Documents/colir_one/rocket_code/Module/Src/bno055.c ****   bno055_delay(10);
 129:/home/dat/Documents/colir_one/rocket_code/Module/Src/bno055.c ****   return status;
 130:/home/dat/Documents/colir_one/rocket_code/Module/Src/bno055.c **** }
 131:/home/dat/Documents/colir_one/rocket_code/Module/Src/bno055.c **** 
 132:/home/dat/Documents/colir_one/rocket_code/Module/Src/bno055.c **** HAL_StatusTypeDef bno055_getSWRevision(int16_t *swRev) {
ARM GAS  /tmp/cclZauEM.s 			page 7


 133:/home/dat/Documents/colir_one/rocket_code/Module/Src/bno055.c ****   HAL_StatusTypeDef status = HAL_OK;
 134:/home/dat/Documents/colir_one/rocket_code/Module/Src/bno055.c ****   status |= bno055_setPage(0);
 135:/home/dat/Documents/colir_one/rocket_code/Module/Src/bno055.c ****   uint8_t buffer[2];
 136:/home/dat/Documents/colir_one/rocket_code/Module/Src/bno055.c ****   status |= bno055_readData(BNO055_SW_REV_ID_LSB, buffer, 2);
 137:/home/dat/Documents/colir_one/rocket_code/Module/Src/bno055.c ****   *swRev = (int16_t)((buffer[1] << 8) | buffer[0]);
 138:/home/dat/Documents/colir_one/rocket_code/Module/Src/bno055.c ****   return status;
 139:/home/dat/Documents/colir_one/rocket_code/Module/Src/bno055.c **** }
 140:/home/dat/Documents/colir_one/rocket_code/Module/Src/bno055.c **** 
 141:/home/dat/Documents/colir_one/rocket_code/Module/Src/bno055.c **** HAL_StatusTypeDef bno055_getBootloaderRevision(uint8_t* blRev) {
 142:/home/dat/Documents/colir_one/rocket_code/Module/Src/bno055.c ****   HAL_StatusTypeDef status = HAL_OK;
 143:/home/dat/Documents/colir_one/rocket_code/Module/Src/bno055.c ****   status |= bno055_setPage(0);
 144:/home/dat/Documents/colir_one/rocket_code/Module/Src/bno055.c ****   status |= bno055_readData(BNO055_BL_REV_ID, blRev, 1);
 145:/home/dat/Documents/colir_one/rocket_code/Module/Src/bno055.c ****   return status;
 146:/home/dat/Documents/colir_one/rocket_code/Module/Src/bno055.c **** }
 147:/home/dat/Documents/colir_one/rocket_code/Module/Src/bno055.c **** 
 148:/home/dat/Documents/colir_one/rocket_code/Module/Src/bno055.c **** HAL_StatusTypeDef bno055_getSystemStatus(uint8_t *sysStatus) {
 149:/home/dat/Documents/colir_one/rocket_code/Module/Src/bno055.c ****   HAL_StatusTypeDef status = HAL_OK;
 150:/home/dat/Documents/colir_one/rocket_code/Module/Src/bno055.c ****   status |= bno055_setPage(0);
 151:/home/dat/Documents/colir_one/rocket_code/Module/Src/bno055.c ****   status |= bno055_readData(BNO055_SYS_STATUS, sysStatus, 1);
 152:/home/dat/Documents/colir_one/rocket_code/Module/Src/bno055.c ****   return status;
 153:/home/dat/Documents/colir_one/rocket_code/Module/Src/bno055.c **** }
 154:/home/dat/Documents/colir_one/rocket_code/Module/Src/bno055.c **** 
 155:/home/dat/Documents/colir_one/rocket_code/Module/Src/bno055.c **** HAL_StatusTypeDef bno055_getSelfTestResult(bno055_self_test_result_t *result) {
 156:/home/dat/Documents/colir_one/rocket_code/Module/Src/bno055.c ****   HAL_StatusTypeDef status = HAL_OK;
 157:/home/dat/Documents/colir_one/rocket_code/Module/Src/bno055.c ****   status |= bno055_setPage(0);
 158:/home/dat/Documents/colir_one/rocket_code/Module/Src/bno055.c ****   uint8_t tmp;
 159:/home/dat/Documents/colir_one/rocket_code/Module/Src/bno055.c ****   status |= bno055_readData(BNO055_ST_RESULT, &tmp, 1);
 160:/home/dat/Documents/colir_one/rocket_code/Module/Src/bno055.c ****   bno055_self_test_result_t _result ={0};
 161:/home/dat/Documents/colir_one/rocket_code/Module/Src/bno055.c ****   _result.mcuState = (tmp >> 3) & 0x01;
 162:/home/dat/Documents/colir_one/rocket_code/Module/Src/bno055.c ****   _result.gyrState = (tmp >> 2) & 0x01;
 163:/home/dat/Documents/colir_one/rocket_code/Module/Src/bno055.c ****   _result.magState = (tmp >> 1) & 0x01;
 164:/home/dat/Documents/colir_one/rocket_code/Module/Src/bno055.c ****   _result.accState = (tmp >> 0) & 0x01;
 165:/home/dat/Documents/colir_one/rocket_code/Module/Src/bno055.c **** 
 166:/home/dat/Documents/colir_one/rocket_code/Module/Src/bno055.c ****   *result = _result;
 167:/home/dat/Documents/colir_one/rocket_code/Module/Src/bno055.c ****   return status;
 168:/home/dat/Documents/colir_one/rocket_code/Module/Src/bno055.c **** }
 169:/home/dat/Documents/colir_one/rocket_code/Module/Src/bno055.c **** 
 170:/home/dat/Documents/colir_one/rocket_code/Module/Src/bno055.c **** HAL_StatusTypeDef bno055_getSystemError(uint8_t* sysError) {
 171:/home/dat/Documents/colir_one/rocket_code/Module/Src/bno055.c ****   HAL_StatusTypeDef status = HAL_OK;
 172:/home/dat/Documents/colir_one/rocket_code/Module/Src/bno055.c ****   status |= bno055_setPage(0);
 173:/home/dat/Documents/colir_one/rocket_code/Module/Src/bno055.c ****   status |= bno055_readData(BNO055_SYS_ERR, sysError, 1);
 174:/home/dat/Documents/colir_one/rocket_code/Module/Src/bno055.c ****   return status;
 175:/home/dat/Documents/colir_one/rocket_code/Module/Src/bno055.c **** }
 176:/home/dat/Documents/colir_one/rocket_code/Module/Src/bno055.c **** 
 177:/home/dat/Documents/colir_one/rocket_code/Module/Src/bno055.c **** HAL_StatusTypeDef bno055_getCalibrationState(bno055_calibration_state_t* calState) {
 178:/home/dat/Documents/colir_one/rocket_code/Module/Src/bno055.c ****   HAL_StatusTypeDef status = HAL_OK;
 179:/home/dat/Documents/colir_one/rocket_code/Module/Src/bno055.c ****   status |= bno055_setPage(0);
 180:/home/dat/Documents/colir_one/rocket_code/Module/Src/bno055.c ****   bno055_calibration_state_t _calState = {.sys = 0, .gyro = 0, .mag = 0, .accel = 0};
 181:/home/dat/Documents/colir_one/rocket_code/Module/Src/bno055.c ****   uint8_t tmp = 0;
 182:/home/dat/Documents/colir_one/rocket_code/Module/Src/bno055.c ****   status |= bno055_readData(BNO055_CALIB_STAT, &tmp, 1);
 183:/home/dat/Documents/colir_one/rocket_code/Module/Src/bno055.c ****   _calState.sys = (tmp >> 6) & 0x03;
 184:/home/dat/Documents/colir_one/rocket_code/Module/Src/bno055.c ****   _calState.gyro = (tmp >> 4) & 0x03;
 185:/home/dat/Documents/colir_one/rocket_code/Module/Src/bno055.c ****   _calState.accel = (tmp >> 2) & 0x03;
 186:/home/dat/Documents/colir_one/rocket_code/Module/Src/bno055.c ****   _calState.mag = tmp & 0x03;
 187:/home/dat/Documents/colir_one/rocket_code/Module/Src/bno055.c **** 
 188:/home/dat/Documents/colir_one/rocket_code/Module/Src/bno055.c ****   *calState = _calState;
 189:/home/dat/Documents/colir_one/rocket_code/Module/Src/bno055.c ****   return status;
ARM GAS  /tmp/cclZauEM.s 			page 8


 190:/home/dat/Documents/colir_one/rocket_code/Module/Src/bno055.c **** }
 191:/home/dat/Documents/colir_one/rocket_code/Module/Src/bno055.c **** 
 192:/home/dat/Documents/colir_one/rocket_code/Module/Src/bno055.c **** 
 193:/home/dat/Documents/colir_one/rocket_code/Module/Src/bno055.c **** HAL_StatusTypeDef bno055_getCalibrationData(bno055_calibration_data_t *calData) {
 194:/home/dat/Documents/colir_one/rocket_code/Module/Src/bno055.c ****   bno055_calibration_data_t _calData;
 195:/home/dat/Documents/colir_one/rocket_code/Module/Src/bno055.c ****   HAL_StatusTypeDef status = HAL_OK;
 196:/home/dat/Documents/colir_one/rocket_code/Module/Src/bno055.c ****   uint8_t buffer[22];
 197:/home/dat/Documents/colir_one/rocket_code/Module/Src/bno055.c ****   bno055_opmode_t operationMode = {0}; 
 198:/home/dat/Documents/colir_one/rocket_code/Module/Src/bno055.c ****   status |= bno055_getOperationMode(&operationMode);
 199:/home/dat/Documents/colir_one/rocket_code/Module/Src/bno055.c ****   status |= bno055_setOperationModeConfig();
 200:/home/dat/Documents/colir_one/rocket_code/Module/Src/bno055.c ****   status |= bno055_setPage(0);
 201:/home/dat/Documents/colir_one/rocket_code/Module/Src/bno055.c **** 
 202:/home/dat/Documents/colir_one/rocket_code/Module/Src/bno055.c ****   status |= bno055_readData(BNO055_ACC_OFFSET_X_LSB, buffer, 22);
 203:/home/dat/Documents/colir_one/rocket_code/Module/Src/bno055.c **** 
 204:/home/dat/Documents/colir_one/rocket_code/Module/Src/bno055.c ****   // Assumes little endian processor
 205:/home/dat/Documents/colir_one/rocket_code/Module/Src/bno055.c ****   memcpy(&_calData.offset.accel, buffer, 6);
 206:/home/dat/Documents/colir_one/rocket_code/Module/Src/bno055.c ****   memcpy(&_calData.offset.mag, buffer + 6, 6);
 207:/home/dat/Documents/colir_one/rocket_code/Module/Src/bno055.c ****   memcpy(&_calData.offset.gyro, buffer + 12, 6);
 208:/home/dat/Documents/colir_one/rocket_code/Module/Src/bno055.c ****   memcpy(&_calData.radius.accel, buffer + 18, 2);
 209:/home/dat/Documents/colir_one/rocket_code/Module/Src/bno055.c ****   memcpy(&_calData.radius.mag, buffer + 20, 2);
 210:/home/dat/Documents/colir_one/rocket_code/Module/Src/bno055.c **** 
 211:/home/dat/Documents/colir_one/rocket_code/Module/Src/bno055.c ****   *calData = _calData;
 212:/home/dat/Documents/colir_one/rocket_code/Module/Src/bno055.c **** 
 213:/home/dat/Documents/colir_one/rocket_code/Module/Src/bno055.c ****   bno055_setOperationMode(operationMode);
 214:/home/dat/Documents/colir_one/rocket_code/Module/Src/bno055.c **** 
 215:/home/dat/Documents/colir_one/rocket_code/Module/Src/bno055.c ****   return status;
 216:/home/dat/Documents/colir_one/rocket_code/Module/Src/bno055.c **** }
 217:/home/dat/Documents/colir_one/rocket_code/Module/Src/bno055.c **** 
 218:/home/dat/Documents/colir_one/rocket_code/Module/Src/bno055.c **** HAL_StatusTypeDef bno055_setCalibrationData(bno055_calibration_data_t calData) {
 219:/home/dat/Documents/colir_one/rocket_code/Module/Src/bno055.c ****   HAL_StatusTypeDef status = HAL_OK;
 220:/home/dat/Documents/colir_one/rocket_code/Module/Src/bno055.c ****   uint8_t buffer[22];
 221:/home/dat/Documents/colir_one/rocket_code/Module/Src/bno055.c ****   bno055_opmode_t operationMode = {0};
 222:/home/dat/Documents/colir_one/rocket_code/Module/Src/bno055.c ****   status |= bno055_getOperationMode(&operationMode);
 223:/home/dat/Documents/colir_one/rocket_code/Module/Src/bno055.c ****   status |= bno055_setOperationModeConfig();
 224:/home/dat/Documents/colir_one/rocket_code/Module/Src/bno055.c ****   status |= bno055_setPage(0);
 225:/home/dat/Documents/colir_one/rocket_code/Module/Src/bno055.c **** 
 226:/home/dat/Documents/colir_one/rocket_code/Module/Src/bno055.c ****   // Assumes litle endian processor
 227:/home/dat/Documents/colir_one/rocket_code/Module/Src/bno055.c ****   memcpy(buffer, &calData.offset.accel, 6);
 228:/home/dat/Documents/colir_one/rocket_code/Module/Src/bno055.c ****   memcpy(buffer + 6, &calData.offset.mag, 6);
 229:/home/dat/Documents/colir_one/rocket_code/Module/Src/bno055.c ****   memcpy(buffer + 12, &calData.offset.gyro, 6);
 230:/home/dat/Documents/colir_one/rocket_code/Module/Src/bno055.c ****   memcpy(buffer + 18, &calData.radius.accel, 2);
 231:/home/dat/Documents/colir_one/rocket_code/Module/Src/bno055.c ****   memcpy(buffer + 20, &calData.radius.mag, 2);
 232:/home/dat/Documents/colir_one/rocket_code/Module/Src/bno055.c **** 
 233:/home/dat/Documents/colir_one/rocket_code/Module/Src/bno055.c ****   for (uint8_t i=0; i < 22; i++) {
 234:/home/dat/Documents/colir_one/rocket_code/Module/Src/bno055.c ****     // TODO(oliv4945): create multibytes write
 235:/home/dat/Documents/colir_one/rocket_code/Module/Src/bno055.c ****     status |= bno055_writeData(BNO055_ACC_OFFSET_X_LSB+i, buffer[i]);
 236:/home/dat/Documents/colir_one/rocket_code/Module/Src/bno055.c ****   }
 237:/home/dat/Documents/colir_one/rocket_code/Module/Src/bno055.c **** 
 238:/home/dat/Documents/colir_one/rocket_code/Module/Src/bno055.c ****   status |= bno055_setOperationMode(operationMode);
 239:/home/dat/Documents/colir_one/rocket_code/Module/Src/bno055.c ****   return status;
 240:/home/dat/Documents/colir_one/rocket_code/Module/Src/bno055.c **** }
 241:/home/dat/Documents/colir_one/rocket_code/Module/Src/bno055.c **** 
 242:/home/dat/Documents/colir_one/rocket_code/Module/Src/bno055.c **** static HAL_StatusTypeDef bno055_getVector(uint8_t vec, bno055_vector_t* xyz) {
 202              		.loc 1 242 78 is_stmt 1 view -0
 203              		.cfi_startproc
 204              		@ args = 0, pretend = 0, frame = 24
 205              		@ frame_needed = 0, uses_anonymous_args = 0
ARM GAS  /tmp/cclZauEM.s 			page 9


 206              		.loc 1 242 78 is_stmt 0 view .LVU35
 207 0000 2DE97043 		push	{r4, r5, r6, r8, r9, lr}
 208              	.LCFI7:
 209              		.cfi_def_cfa_offset 24
 210              		.cfi_offset 4, -24
 211              		.cfi_offset 5, -20
 212              		.cfi_offset 6, -16
 213              		.cfi_offset 8, -12
 214              		.cfi_offset 9, -8
 215              		.cfi_offset 14, -4
 216 0004 86B0     		sub	sp, sp, #24
 217              	.LCFI8:
 218              		.cfi_def_cfa_offset 48
 219 0006 0646     		mov	r6, r0
 220 0008 0D46     		mov	r5, r1
 243:/home/dat/Documents/colir_one/rocket_code/Module/Src/bno055.c ****   HAL_StatusTypeDef status = HAL_OK;
 221              		.loc 1 243 3 is_stmt 1 view .LVU36
 222              	.LVL18:
 244:/home/dat/Documents/colir_one/rocket_code/Module/Src/bno055.c ****   status |= bno055_setPage(0);
 223              		.loc 1 244 3 view .LVU37
 224              		.loc 1 244 13 is_stmt 0 view .LVU38
 225 000a 0020     		movs	r0, #0
 226              	.LVL19:
 227              		.loc 1 244 13 view .LVU39
 228 000c FFF7FEFF 		bl	bno055_setPage
 229              	.LVL20:
 230              		.loc 1 244 13 view .LVU40
 231 0010 0446     		mov	r4, r0
 232              	.LVL21:
 245:/home/dat/Documents/colir_one/rocket_code/Module/Src/bno055.c ****   uint8_t buffer[8];    // Quaternion need 8 bytes
 233              		.loc 1 245 3 is_stmt 1 view .LVU41
 246:/home/dat/Documents/colir_one/rocket_code/Module/Src/bno055.c **** 
 247:/home/dat/Documents/colir_one/rocket_code/Module/Src/bno055.c ****   if (vec == BNO055_VECTOR_QUATERNION)
 234              		.loc 1 247 3 view .LVU42
 235              		.loc 1 247 6 is_stmt 0 view .LVU43
 236 0012 202E     		cmp	r6, #32
 237 0014 20D0     		beq	.L25
 248:/home/dat/Documents/colir_one/rocket_code/Module/Src/bno055.c ****     status |= bno055_readData(vec, buffer, 8);
 249:/home/dat/Documents/colir_one/rocket_code/Module/Src/bno055.c ****   else
 250:/home/dat/Documents/colir_one/rocket_code/Module/Src/bno055.c ****     status |= bno055_readData(vec, buffer, 6);
 238              		.loc 1 250 5 is_stmt 1 view .LVU44
 239              		.loc 1 250 15 is_stmt 0 view .LVU45
 240 0016 0622     		movs	r2, #6
 241 0018 04A9     		add	r1, sp, #16
 242 001a 3046     		mov	r0, r6
 243 001c FFF7FEFF 		bl	bno055_readData
 244              	.LVL22:
 245              		.loc 1 250 12 discriminator 1 view .LVU46
 246 0020 0443     		orrs	r4, r4, r0
 247              	.LVL23:
 248              		.loc 1 250 12 discriminator 1 view .LVU47
 249 0022 E4B2     		uxtb	r4, r4
 250              	.LVL24:
 251              	.L13:
 251:/home/dat/Documents/colir_one/rocket_code/Module/Src/bno055.c **** 
 252:/home/dat/Documents/colir_one/rocket_code/Module/Src/bno055.c ****   double scale = 1;
 252              		.loc 1 252 3 is_stmt 1 view .LVU48
ARM GAS  /tmp/cclZauEM.s 			page 10


 253:/home/dat/Documents/colir_one/rocket_code/Module/Src/bno055.c **** 
 254:/home/dat/Documents/colir_one/rocket_code/Module/Src/bno055.c ****   if (vec == BNO055_VECTOR_MAGNETOMETER) {
 253              		.loc 1 254 3 view .LVU49
 254 0024 A6F10803 		sub	r3, r6, #8
 255 0028 262B     		cmp	r3, #38
 256 002a 40D8     		bhi	.L23
 257 002c DFE803F0 		tbb	[pc, r3]
 258              	.L16:
 259 0030 23       		.byte	(.L15-.L16)/2
 260 0031 3F       		.byte	(.L23-.L16)/2
 261 0032 3F       		.byte	(.L23-.L16)/2
 262 0033 3F       		.byte	(.L23-.L16)/2
 263 0034 3F       		.byte	(.L23-.L16)/2
 264 0035 3F       		.byte	(.L23-.L16)/2
 265 0036 1C       		.byte	(.L20-.L16)/2
 266 0037 3F       		.byte	(.L23-.L16)/2
 267 0038 3F       		.byte	(.L23-.L16)/2
 268 0039 3F       		.byte	(.L23-.L16)/2
 269 003a 3F       		.byte	(.L23-.L16)/2
 270 003b 3F       		.byte	(.L23-.L16)/2
 271 003c 2A       		.byte	(.L19-.L16)/2
 272 003d 3F       		.byte	(.L23-.L16)/2
 273 003e 3F       		.byte	(.L23-.L16)/2
 274 003f 3F       		.byte	(.L23-.L16)/2
 275 0040 3F       		.byte	(.L23-.L16)/2
 276 0041 3F       		.byte	(.L23-.L16)/2
 277 0042 31       		.byte	(.L18-.L16)/2
 278 0043 3F       		.byte	(.L23-.L16)/2
 279 0044 3F       		.byte	(.L23-.L16)/2
 280 0045 3F       		.byte	(.L23-.L16)/2
 281 0046 3F       		.byte	(.L23-.L16)/2
 282 0047 3F       		.byte	(.L23-.L16)/2
 283 0048 38       		.byte	(.L17-.L16)/2
 284 0049 3F       		.byte	(.L23-.L16)/2
 285 004a 3F       		.byte	(.L23-.L16)/2
 286 004b 3F       		.byte	(.L23-.L16)/2
 287 004c 3F       		.byte	(.L23-.L16)/2
 288 004d 3F       		.byte	(.L23-.L16)/2
 289 004e 3F       		.byte	(.L23-.L16)/2
 290 004f 3F       		.byte	(.L23-.L16)/2
 291 0050 23       		.byte	(.L15-.L16)/2
 292 0051 3F       		.byte	(.L23-.L16)/2
 293 0052 3F       		.byte	(.L23-.L16)/2
 294 0053 3F       		.byte	(.L23-.L16)/2
 295 0054 3F       		.byte	(.L23-.L16)/2
 296 0055 3F       		.byte	(.L23-.L16)/2
 297 0056 23       		.byte	(.L15-.L16)/2
 298              	.LVL25:
 299 0057 00       		.p2align 1
 300              	.L25:
 248:/home/dat/Documents/colir_one/rocket_code/Module/Src/bno055.c ****   else
 301              		.loc 1 248 5 view .LVU50
 248:/home/dat/Documents/colir_one/rocket_code/Module/Src/bno055.c ****   else
 302              		.loc 1 248 15 is_stmt 0 view .LVU51
 303 0058 0822     		movs	r2, #8
 304 005a 04A9     		add	r1, sp, #16
 305 005c 3046     		mov	r0, r6
ARM GAS  /tmp/cclZauEM.s 			page 11


 306 005e FFF7FEFF 		bl	bno055_readData
 307              	.LVL26:
 248:/home/dat/Documents/colir_one/rocket_code/Module/Src/bno055.c ****   else
 308              		.loc 1 248 12 discriminator 1 view .LVU52
 309 0062 0443     		orrs	r4, r4, r0
 310              	.LVL27:
 248:/home/dat/Documents/colir_one/rocket_code/Module/Src/bno055.c ****   else
 311              		.loc 1 248 12 discriminator 1 view .LVU53
 312 0064 E4B2     		uxtb	r4, r4
 313              	.LVL28:
 248:/home/dat/Documents/colir_one/rocket_code/Module/Src/bno055.c ****   else
 314              		.loc 1 248 12 discriminator 1 view .LVU54
 315 0066 DDE7     		b	.L13
 316              	.LVL29:
 317              	.L20:
 255:/home/dat/Documents/colir_one/rocket_code/Module/Src/bno055.c ****     scale = magScale;
 318              		.loc 1 255 5 is_stmt 1 view .LVU55
 319              		.loc 1 255 11 is_stmt 0 view .LVU56
 320 0068 534B     		ldr	r3, .L27
 321 006a 1888     		ldrh	r0, [r3]
 322 006c FFF7FEFF 		bl	__aeabi_ui2d
 323              	.LVL30:
 324 0070 8046     		mov	r8, r0
 325 0072 8946     		mov	r9, r1
 326              	.LVL31:
 327              		.loc 1 255 11 view .LVU57
 328 0074 1FE0     		b	.L14
 329              	.LVL32:
 330              	.L15:
 256:/home/dat/Documents/colir_one/rocket_code/Module/Src/bno055.c ****   } else if (vec == BNO055_VECTOR_ACCELEROMETER ||
 257:/home/dat/Documents/colir_one/rocket_code/Module/Src/bno055.c ****            vec == BNO055_VECTOR_LINEARACCEL || vec == BNO055_VECTOR_GRAVITY) {
 258:/home/dat/Documents/colir_one/rocket_code/Module/Src/bno055.c ****     scale = accelScale;
 331              		.loc 1 258 5 is_stmt 1 view .LVU58
 332              		.loc 1 258 11 is_stmt 0 view .LVU59
 333 0076 514B     		ldr	r3, .L27+4
 334 0078 1888     		ldrh	r0, [r3]
 335 007a FFF7FEFF 		bl	__aeabi_ui2d
 336              	.LVL33:
 337 007e 8046     		mov	r8, r0
 338 0080 8946     		mov	r9, r1
 339              	.LVL34:
 340              		.loc 1 258 11 view .LVU60
 341 0082 18E0     		b	.L14
 342              	.LVL35:
 343              	.L19:
 259:/home/dat/Documents/colir_one/rocket_code/Module/Src/bno055.c ****   } else if (vec == BNO055_VECTOR_GYROSCOPE) {
 260:/home/dat/Documents/colir_one/rocket_code/Module/Src/bno055.c ****     scale = angularRateScale;
 344              		.loc 1 260 5 is_stmt 1 view .LVU61
 345              		.loc 1 260 11 is_stmt 0 view .LVU62
 346 0084 4E4B     		ldr	r3, .L27+8
 347 0086 1888     		ldrh	r0, [r3]
 348 0088 FFF7FEFF 		bl	__aeabi_ui2d
 349              	.LVL36:
 350 008c 8046     		mov	r8, r0
 351 008e 8946     		mov	r9, r1
 352              	.LVL37:
 353              		.loc 1 260 11 view .LVU63
ARM GAS  /tmp/cclZauEM.s 			page 12


 354 0090 11E0     		b	.L14
 355              	.LVL38:
 356              	.L18:
 261:/home/dat/Documents/colir_one/rocket_code/Module/Src/bno055.c ****   } else if (vec == BNO055_VECTOR_EULER) {
 262:/home/dat/Documents/colir_one/rocket_code/Module/Src/bno055.c ****     scale = eulerScale;
 357              		.loc 1 262 5 is_stmt 1 view .LVU64
 358              		.loc 1 262 11 is_stmt 0 view .LVU65
 359 0092 4C4B     		ldr	r3, .L27+12
 360 0094 1888     		ldrh	r0, [r3]
 361 0096 FFF7FEFF 		bl	__aeabi_ui2d
 362              	.LVL39:
 363 009a 8046     		mov	r8, r0
 364 009c 8946     		mov	r9, r1
 365              	.LVL40:
 366              		.loc 1 262 11 view .LVU66
 367 009e 0AE0     		b	.L14
 368              	.LVL41:
 369              	.L17:
 263:/home/dat/Documents/colir_one/rocket_code/Module/Src/bno055.c ****   } else if (vec == BNO055_VECTOR_QUATERNION) {
 264:/home/dat/Documents/colir_one/rocket_code/Module/Src/bno055.c ****     scale = quaScale;
 370              		.loc 1 264 5 is_stmt 1 view .LVU67
 371              		.loc 1 264 11 is_stmt 0 view .LVU68
 372 00a0 494B     		ldr	r3, .L27+16
 373 00a2 1888     		ldrh	r0, [r3]
 374 00a4 FFF7FEFF 		bl	__aeabi_ui2d
 375              	.LVL42:
 376 00a8 8046     		mov	r8, r0
 377 00aa 8946     		mov	r9, r1
 378              	.LVL43:
 379              		.loc 1 264 11 view .LVU69
 380 00ac 03E0     		b	.L14
 381              	.LVL44:
 382              	.L23:
 242:/home/dat/Documents/colir_one/rocket_code/Module/Src/bno055.c ****   HAL_StatusTypeDef status = HAL_OK;
 383              		.loc 1 242 78 view .LVU70
 384 00ae 4FF00008 		mov	r8, #0
 385 00b2 DFF81891 		ldr	r9, .L27+20
 386              	.LVL45:
 387              	.L14:
 265:/home/dat/Documents/colir_one/rocket_code/Module/Src/bno055.c ****   }
 266:/home/dat/Documents/colir_one/rocket_code/Module/Src/bno055.c **** 
 267:/home/dat/Documents/colir_one/rocket_code/Module/Src/bno055.c ****   bno055_vector_t _xyz = {.w = 0, .x = 0, .y = 0, .z = 0};
 388              		.loc 1 267 3 is_stmt 1 view .LVU71
 389              		.loc 1 267 19 is_stmt 0 view .LVU72
 390 00b6 0023     		movs	r3, #0
 391 00b8 0093     		str	r3, [sp]
 392 00ba 0193     		str	r3, [sp, #4]
 393 00bc 0293     		str	r3, [sp, #8]
 394 00be 0393     		str	r3, [sp, #12]
 268:/home/dat/Documents/colir_one/rocket_code/Module/Src/bno055.c ****   if (vec == BNO055_VECTOR_QUATERNION) {
 395              		.loc 1 268 3 is_stmt 1 view .LVU73
 396              		.loc 1 268 6 is_stmt 0 view .LVU74
 397 00c0 202E     		cmp	r6, #32
 398 00c2 37D0     		beq	.L26
 269:/home/dat/Documents/colir_one/rocket_code/Module/Src/bno055.c ****     _xyz.w = (int16_t)((buffer[1] << 8) | buffer[0]) / scale;
 270:/home/dat/Documents/colir_one/rocket_code/Module/Src/bno055.c ****     _xyz.x = (int16_t)((buffer[3] << 8) | buffer[2]) / scale;
 271:/home/dat/Documents/colir_one/rocket_code/Module/Src/bno055.c ****     _xyz.y = (int16_t)((buffer[5] << 8) | buffer[4]) / scale;
ARM GAS  /tmp/cclZauEM.s 			page 13


 272:/home/dat/Documents/colir_one/rocket_code/Module/Src/bno055.c ****     _xyz.z = (int16_t)((buffer[7] << 8) | buffer[6]) / scale;
 273:/home/dat/Documents/colir_one/rocket_code/Module/Src/bno055.c ****   } else {
 274:/home/dat/Documents/colir_one/rocket_code/Module/Src/bno055.c ****     _xyz.x = (int16_t)((buffer[1] << 8) | buffer[0]) / scale;
 399              		.loc 1 274 5 is_stmt 1 view .LVU75
 400              		.loc 1 274 31 is_stmt 0 view .LVU76
 401 00c4 9DF81130 		ldrb	r3, [sp, #17]	@ zero_extendqisi2
 402              		.loc 1 274 49 view .LVU77
 403 00c8 9DF81000 		ldrb	r0, [sp, #16]	@ zero_extendqisi2
 404              		.loc 1 274 14 view .LVU78
 405 00cc 40EA0320 		orr	r0, r0, r3, lsl #8
 406              		.loc 1 274 54 view .LVU79
 407 00d0 00B2     		sxth	r0, r0
 408 00d2 FFF7FEFF 		bl	__aeabi_i2d
 409              	.LVL46:
 410 00d6 4246     		mov	r2, r8
 411 00d8 4B46     		mov	r3, r9
 412 00da FFF7FEFF 		bl	__aeabi_ddiv
 413              	.LVL47:
 414 00de FFF7FEFF 		bl	__aeabi_d2f
 415              	.LVL48:
 416              		.loc 1 274 12 view .LVU80
 417 00e2 0190     		str	r0, [sp, #4]	@ float
 275:/home/dat/Documents/colir_one/rocket_code/Module/Src/bno055.c ****     _xyz.y = (int16_t)((buffer[3] << 8) | buffer[2]) / scale;
 418              		.loc 1 275 5 is_stmt 1 view .LVU81
 419              		.loc 1 275 31 is_stmt 0 view .LVU82
 420 00e4 9DF81330 		ldrb	r3, [sp, #19]	@ zero_extendqisi2
 421              		.loc 1 275 49 view .LVU83
 422 00e8 9DF81200 		ldrb	r0, [sp, #18]	@ zero_extendqisi2
 423              		.loc 1 275 14 view .LVU84
 424 00ec 40EA0320 		orr	r0, r0, r3, lsl #8
 425              		.loc 1 275 54 view .LVU85
 426 00f0 00B2     		sxth	r0, r0
 427 00f2 FFF7FEFF 		bl	__aeabi_i2d
 428              	.LVL49:
 429 00f6 4246     		mov	r2, r8
 430 00f8 4B46     		mov	r3, r9
 431 00fa FFF7FEFF 		bl	__aeabi_ddiv
 432              	.LVL50:
 433 00fe FFF7FEFF 		bl	__aeabi_d2f
 434              	.LVL51:
 435              		.loc 1 275 12 view .LVU86
 436 0102 0290     		str	r0, [sp, #8]	@ float
 276:/home/dat/Documents/colir_one/rocket_code/Module/Src/bno055.c ****     _xyz.z = (int16_t)((buffer[5] << 8) | buffer[4]) / scale;
 437              		.loc 1 276 5 is_stmt 1 view .LVU87
 438              		.loc 1 276 31 is_stmt 0 view .LVU88
 439 0104 9DF81530 		ldrb	r3, [sp, #21]	@ zero_extendqisi2
 440              		.loc 1 276 49 view .LVU89
 441 0108 9DF81400 		ldrb	r0, [sp, #20]	@ zero_extendqisi2
 442              		.loc 1 276 14 view .LVU90
 443 010c 40EA0320 		orr	r0, r0, r3, lsl #8
 444              		.loc 1 276 54 view .LVU91
 445 0110 00B2     		sxth	r0, r0
 446 0112 FFF7FEFF 		bl	__aeabi_i2d
 447              	.LVL52:
 448 0116 4246     		mov	r2, r8
 449 0118 4B46     		mov	r3, r9
 450 011a FFF7FEFF 		bl	__aeabi_ddiv
ARM GAS  /tmp/cclZauEM.s 			page 14


 451              	.LVL53:
 452 011e FFF7FEFF 		bl	__aeabi_d2f
 453              	.LVL54:
 454              		.loc 1 276 12 view .LVU92
 455 0122 0390     		str	r0, [sp, #12]	@ float
 456              	.L22:
 277:/home/dat/Documents/colir_one/rocket_code/Module/Src/bno055.c ****   }
 278:/home/dat/Documents/colir_one/rocket_code/Module/Src/bno055.c **** 
 279:/home/dat/Documents/colir_one/rocket_code/Module/Src/bno055.c ****   *xyz = _xyz;
 457              		.loc 1 279 3 is_stmt 1 view .LVU93
 458              		.loc 1 279 8 is_stmt 0 view .LVU94
 459 0124 6B46     		mov	r3, sp
 460 0126 0FCB     		ldm	r3, {r0, r1, r2, r3}
 461 0128 85E80F00 		stm	r5, {r0, r1, r2, r3}
 280:/home/dat/Documents/colir_one/rocket_code/Module/Src/bno055.c ****   return status;
 462              		.loc 1 280 3 is_stmt 1 view .LVU95
 281:/home/dat/Documents/colir_one/rocket_code/Module/Src/bno055.c **** }
 463              		.loc 1 281 1 is_stmt 0 view .LVU96
 464 012c 2046     		mov	r0, r4
 465 012e 06B0     		add	sp, sp, #24
 466              	.LCFI9:
 467              		.cfi_remember_state
 468              		.cfi_def_cfa_offset 24
 469              		@ sp needed
 470 0130 BDE87083 		pop	{r4, r5, r6, r8, r9, pc}
 471              	.LVL55:
 472              	.L26:
 473              	.LCFI10:
 474              		.cfi_restore_state
 269:/home/dat/Documents/colir_one/rocket_code/Module/Src/bno055.c ****     _xyz.x = (int16_t)((buffer[3] << 8) | buffer[2]) / scale;
 475              		.loc 1 269 5 is_stmt 1 view .LVU97
 269:/home/dat/Documents/colir_one/rocket_code/Module/Src/bno055.c ****     _xyz.x = (int16_t)((buffer[3] << 8) | buffer[2]) / scale;
 476              		.loc 1 269 31 is_stmt 0 view .LVU98
 477 0134 9DF81130 		ldrb	r3, [sp, #17]	@ zero_extendqisi2
 269:/home/dat/Documents/colir_one/rocket_code/Module/Src/bno055.c ****     _xyz.x = (int16_t)((buffer[3] << 8) | buffer[2]) / scale;
 478              		.loc 1 269 49 view .LVU99
 479 0138 9DF81000 		ldrb	r0, [sp, #16]	@ zero_extendqisi2
 269:/home/dat/Documents/colir_one/rocket_code/Module/Src/bno055.c ****     _xyz.x = (int16_t)((buffer[3] << 8) | buffer[2]) / scale;
 480              		.loc 1 269 14 view .LVU100
 481 013c 40EA0320 		orr	r0, r0, r3, lsl #8
 269:/home/dat/Documents/colir_one/rocket_code/Module/Src/bno055.c ****     _xyz.x = (int16_t)((buffer[3] << 8) | buffer[2]) / scale;
 482              		.loc 1 269 54 view .LVU101
 483 0140 00B2     		sxth	r0, r0
 484 0142 FFF7FEFF 		bl	__aeabi_i2d
 485              	.LVL56:
 486 0146 4246     		mov	r2, r8
 487 0148 4B46     		mov	r3, r9
 488 014a FFF7FEFF 		bl	__aeabi_ddiv
 489              	.LVL57:
 490 014e FFF7FEFF 		bl	__aeabi_d2f
 491              	.LVL58:
 269:/home/dat/Documents/colir_one/rocket_code/Module/Src/bno055.c ****     _xyz.x = (int16_t)((buffer[3] << 8) | buffer[2]) / scale;
 492              		.loc 1 269 12 view .LVU102
 493 0152 0090     		str	r0, [sp]	@ float
 270:/home/dat/Documents/colir_one/rocket_code/Module/Src/bno055.c ****     _xyz.y = (int16_t)((buffer[5] << 8) | buffer[4]) / scale;
 494              		.loc 1 270 5 is_stmt 1 view .LVU103
 270:/home/dat/Documents/colir_one/rocket_code/Module/Src/bno055.c ****     _xyz.y = (int16_t)((buffer[5] << 8) | buffer[4]) / scale;
ARM GAS  /tmp/cclZauEM.s 			page 15


 495              		.loc 1 270 31 is_stmt 0 view .LVU104
 496 0154 9DF81330 		ldrb	r3, [sp, #19]	@ zero_extendqisi2
 270:/home/dat/Documents/colir_one/rocket_code/Module/Src/bno055.c ****     _xyz.y = (int16_t)((buffer[5] << 8) | buffer[4]) / scale;
 497              		.loc 1 270 49 view .LVU105
 498 0158 9DF81200 		ldrb	r0, [sp, #18]	@ zero_extendqisi2
 270:/home/dat/Documents/colir_one/rocket_code/Module/Src/bno055.c ****     _xyz.y = (int16_t)((buffer[5] << 8) | buffer[4]) / scale;
 499              		.loc 1 270 14 view .LVU106
 500 015c 40EA0320 		orr	r0, r0, r3, lsl #8
 270:/home/dat/Documents/colir_one/rocket_code/Module/Src/bno055.c ****     _xyz.y = (int16_t)((buffer[5] << 8) | buffer[4]) / scale;
 501              		.loc 1 270 54 view .LVU107
 502 0160 00B2     		sxth	r0, r0
 503 0162 FFF7FEFF 		bl	__aeabi_i2d
 504              	.LVL59:
 505 0166 4246     		mov	r2, r8
 506 0168 4B46     		mov	r3, r9
 507 016a FFF7FEFF 		bl	__aeabi_ddiv
 508              	.LVL60:
 509 016e FFF7FEFF 		bl	__aeabi_d2f
 510              	.LVL61:
 270:/home/dat/Documents/colir_one/rocket_code/Module/Src/bno055.c ****     _xyz.y = (int16_t)((buffer[5] << 8) | buffer[4]) / scale;
 511              		.loc 1 270 12 view .LVU108
 512 0172 0190     		str	r0, [sp, #4]	@ float
 271:/home/dat/Documents/colir_one/rocket_code/Module/Src/bno055.c ****     _xyz.z = (int16_t)((buffer[7] << 8) | buffer[6]) / scale;
 513              		.loc 1 271 5 is_stmt 1 view .LVU109
 271:/home/dat/Documents/colir_one/rocket_code/Module/Src/bno055.c ****     _xyz.z = (int16_t)((buffer[7] << 8) | buffer[6]) / scale;
 514              		.loc 1 271 31 is_stmt 0 view .LVU110
 515 0174 9DF81530 		ldrb	r3, [sp, #21]	@ zero_extendqisi2
 271:/home/dat/Documents/colir_one/rocket_code/Module/Src/bno055.c ****     _xyz.z = (int16_t)((buffer[7] << 8) | buffer[6]) / scale;
 516              		.loc 1 271 49 view .LVU111
 517 0178 9DF81400 		ldrb	r0, [sp, #20]	@ zero_extendqisi2
 271:/home/dat/Documents/colir_one/rocket_code/Module/Src/bno055.c ****     _xyz.z = (int16_t)((buffer[7] << 8) | buffer[6]) / scale;
 518              		.loc 1 271 14 view .LVU112
 519 017c 40EA0320 		orr	r0, r0, r3, lsl #8
 271:/home/dat/Documents/colir_one/rocket_code/Module/Src/bno055.c ****     _xyz.z = (int16_t)((buffer[7] << 8) | buffer[6]) / scale;
 520              		.loc 1 271 54 view .LVU113
 521 0180 00B2     		sxth	r0, r0
 522 0182 FFF7FEFF 		bl	__aeabi_i2d
 523              	.LVL62:
 524 0186 4246     		mov	r2, r8
 525 0188 4B46     		mov	r3, r9
 526 018a FFF7FEFF 		bl	__aeabi_ddiv
 527              	.LVL63:
 528 018e FFF7FEFF 		bl	__aeabi_d2f
 529              	.LVL64:
 271:/home/dat/Documents/colir_one/rocket_code/Module/Src/bno055.c ****     _xyz.z = (int16_t)((buffer[7] << 8) | buffer[6]) / scale;
 530              		.loc 1 271 12 view .LVU114
 531 0192 0290     		str	r0, [sp, #8]	@ float
 272:/home/dat/Documents/colir_one/rocket_code/Module/Src/bno055.c ****   } else {
 532              		.loc 1 272 5 is_stmt 1 view .LVU115
 272:/home/dat/Documents/colir_one/rocket_code/Module/Src/bno055.c ****   } else {
 533              		.loc 1 272 31 is_stmt 0 view .LVU116
 534 0194 9DF81730 		ldrb	r3, [sp, #23]	@ zero_extendqisi2
 272:/home/dat/Documents/colir_one/rocket_code/Module/Src/bno055.c ****   } else {
 535              		.loc 1 272 49 view .LVU117
 536 0198 9DF81600 		ldrb	r0, [sp, #22]	@ zero_extendqisi2
 272:/home/dat/Documents/colir_one/rocket_code/Module/Src/bno055.c ****   } else {
 537              		.loc 1 272 14 view .LVU118
ARM GAS  /tmp/cclZauEM.s 			page 16


 538 019c 40EA0320 		orr	r0, r0, r3, lsl #8
 272:/home/dat/Documents/colir_one/rocket_code/Module/Src/bno055.c ****   } else {
 539              		.loc 1 272 54 view .LVU119
 540 01a0 00B2     		sxth	r0, r0
 541 01a2 FFF7FEFF 		bl	__aeabi_i2d
 542              	.LVL65:
 543 01a6 4246     		mov	r2, r8
 544 01a8 4B46     		mov	r3, r9
 545 01aa FFF7FEFF 		bl	__aeabi_ddiv
 546              	.LVL66:
 547 01ae FFF7FEFF 		bl	__aeabi_d2f
 548              	.LVL67:
 272:/home/dat/Documents/colir_one/rocket_code/Module/Src/bno055.c ****   } else {
 549              		.loc 1 272 12 view .LVU120
 550 01b2 0390     		str	r0, [sp, #12]	@ float
 551 01b4 B6E7     		b	.L22
 552              	.L28:
 553 01b6 00BF     		.align	2
 554              	.L27:
 555 01b8 00000000 		.word	magScale
 556 01bc 00000000 		.word	accelScale
 557 01c0 00000000 		.word	angularRateScale
 558 01c4 00000000 		.word	eulerScale
 559 01c8 00000000 		.word	quaScale
 560 01cc 0000F03F 		.word	1072693248
 561              		.cfi_endproc
 562              	.LFE160:
 564              		.section	.text.bno055_delay,"ax",%progbits
 565              		.align	1
 566              		.syntax unified
 567              		.thumb
 568              		.thumb_func
 570              	bno055_delay:
 571              	.LVL68:
 572              	.LFB138:
  24:/home/dat/Documents/colir_one/rocket_code/Module/Src/bno055.c **** #ifdef FREERTOS_ENABLED
 573              		.loc 1 24 36 is_stmt 1 view -0
 574              		.cfi_startproc
 575              		@ args = 0, pretend = 0, frame = 0
 576              		@ frame_needed = 0, uses_anonymous_args = 0
  24:/home/dat/Documents/colir_one/rocket_code/Module/Src/bno055.c **** #ifdef FREERTOS_ENABLED
 577              		.loc 1 24 36 is_stmt 0 view .LVU122
 578 0000 08B5     		push	{r3, lr}
 579              	.LCFI11:
 580              		.cfi_def_cfa_offset 8
 581              		.cfi_offset 3, -8
 582              		.cfi_offset 14, -4
  28:/home/dat/Documents/colir_one/rocket_code/Module/Src/bno055.c **** #endif
 583              		.loc 1 28 3 is_stmt 1 view .LVU123
 584 0002 FFF7FEFF 		bl	HAL_Delay
 585              	.LVL69:
  30:/home/dat/Documents/colir_one/rocket_code/Module/Src/bno055.c **** 
 586              		.loc 1 30 1 is_stmt 0 view .LVU124
 587 0006 08BD     		pop	{r3, pc}
 588              		.cfi_endproc
 589              	.LFE138:
 591              		.section	.text.bno055_setExternalCrystalUse,"ax",%progbits
ARM GAS  /tmp/cclZauEM.s 			page 17


 592              		.align	1
 593              		.syntax unified
 594              		.thumb
 595              		.thumb_func
 597              	bno055_setExternalCrystalUse:
 598              	.LVL70:
 599              	.LFB146:
  81:/home/dat/Documents/colir_one/rocket_code/Module/Src/bno055.c ****   HAL_StatusTypeDef status = HAL_OK;
 600              		.loc 1 81 67 is_stmt 1 view -0
 601              		.cfi_startproc
 602              		@ args = 0, pretend = 0, frame = 8
 603              		@ frame_needed = 0, uses_anonymous_args = 0
  81:/home/dat/Documents/colir_one/rocket_code/Module/Src/bno055.c ****   HAL_StatusTypeDef status = HAL_OK;
 604              		.loc 1 81 67 is_stmt 0 view .LVU126
 605 0000 30B5     		push	{r4, r5, lr}
 606              	.LCFI12:
 607              		.cfi_def_cfa_offset 12
 608              		.cfi_offset 4, -12
 609              		.cfi_offset 5, -8
 610              		.cfi_offset 14, -4
 611 0002 83B0     		sub	sp, sp, #12
 612              	.LCFI13:
 613              		.cfi_def_cfa_offset 24
 614 0004 0546     		mov	r5, r0
  82:/home/dat/Documents/colir_one/rocket_code/Module/Src/bno055.c ****   status |= bno055_setPage(0);
 615              		.loc 1 82 3 is_stmt 1 view .LVU127
 616              	.LVL71:
  83:/home/dat/Documents/colir_one/rocket_code/Module/Src/bno055.c ****   uint8_t tmp = 0;
 617              		.loc 1 83 3 view .LVU128
  83:/home/dat/Documents/colir_one/rocket_code/Module/Src/bno055.c ****   uint8_t tmp = 0;
 618              		.loc 1 83 13 is_stmt 0 view .LVU129
 619 0006 0020     		movs	r0, #0
 620              	.LVL72:
  83:/home/dat/Documents/colir_one/rocket_code/Module/Src/bno055.c ****   uint8_t tmp = 0;
 621              		.loc 1 83 13 view .LVU130
 622 0008 FFF7FEFF 		bl	bno055_setPage
 623              	.LVL73:
 624 000c 0446     		mov	r4, r0
 625              	.LVL74:
  84:/home/dat/Documents/colir_one/rocket_code/Module/Src/bno055.c ****   status |= bno055_readData(BNO055_SYS_TRIGGER, &tmp, 1);
 626              		.loc 1 84 3 is_stmt 1 view .LVU131
  84:/home/dat/Documents/colir_one/rocket_code/Module/Src/bno055.c ****   status |= bno055_readData(BNO055_SYS_TRIGGER, &tmp, 1);
 627              		.loc 1 84 11 is_stmt 0 view .LVU132
 628 000e 0023     		movs	r3, #0
 629 0010 8DF80730 		strb	r3, [sp, #7]
  85:/home/dat/Documents/colir_one/rocket_code/Module/Src/bno055.c ****   tmp |= (state == true) ? 0x80 : 0x0;
 630              		.loc 1 85 3 is_stmt 1 view .LVU133
  85:/home/dat/Documents/colir_one/rocket_code/Module/Src/bno055.c ****   tmp |= (state == true) ? 0x80 : 0x0;
 631              		.loc 1 85 13 is_stmt 0 view .LVU134
 632 0014 0122     		movs	r2, #1
 633 0016 0DF10701 		add	r1, sp, #7
 634 001a 3F20     		movs	r0, #63
 635 001c FFF7FEFF 		bl	bno055_readData
 636              	.LVL75:
  85:/home/dat/Documents/colir_one/rocket_code/Module/Src/bno055.c ****   tmp |= (state == true) ? 0x80 : 0x0;
 637              		.loc 1 85 10 discriminator 1 view .LVU135
 638 0020 0443     		orrs	r4, r4, r0
ARM GAS  /tmp/cclZauEM.s 			page 18


 639              	.LVL76:
  85:/home/dat/Documents/colir_one/rocket_code/Module/Src/bno055.c ****   tmp |= (state == true) ? 0x80 : 0x0;
 640              		.loc 1 85 10 discriminator 1 view .LVU136
 641 0022 E4B2     		uxtb	r4, r4
 642              	.LVL77:
  86:/home/dat/Documents/colir_one/rocket_code/Module/Src/bno055.c ****   status |= bno055_writeData(BNO055_SYS_TRIGGER, tmp);
 643              		.loc 1 86 3 is_stmt 1 view .LVU137
  86:/home/dat/Documents/colir_one/rocket_code/Module/Src/bno055.c ****   status |= bno055_writeData(BNO055_SYS_TRIGGER, tmp);
 644              		.loc 1 86 7 is_stmt 0 view .LVU138
 645 0024 9DB1     		cbz	r5, .L33
  86:/home/dat/Documents/colir_one/rocket_code/Module/Src/bno055.c ****   status |= bno055_writeData(BNO055_SYS_TRIGGER, tmp);
 646              		.loc 1 86 7 discriminator 1 view .LVU139
 647 0026 6FF07F03 		mvn	r3, #127
 648              	.L32:
  86:/home/dat/Documents/colir_one/rocket_code/Module/Src/bno055.c ****   status |= bno055_writeData(BNO055_SYS_TRIGGER, tmp);
 649              		.loc 1 86 7 discriminator 4 view .LVU140
 650 002a 9DF80710 		ldrb	r1, [sp, #7]	@ zero_extendqisi2
 651 002e 1943     		orrs	r1, r1, r3
 652 0030 C9B2     		uxtb	r1, r1
 653 0032 8DF80710 		strb	r1, [sp, #7]
  87:/home/dat/Documents/colir_one/rocket_code/Module/Src/bno055.c ****   bno055_delay(700);
 654              		.loc 1 87 3 is_stmt 1 view .LVU141
  87:/home/dat/Documents/colir_one/rocket_code/Module/Src/bno055.c ****   bno055_delay(700);
 655              		.loc 1 87 13 is_stmt 0 view .LVU142
 656 0036 3F20     		movs	r0, #63
 657 0038 FFF7FEFF 		bl	bno055_writeData
 658              	.LVL78:
  87:/home/dat/Documents/colir_one/rocket_code/Module/Src/bno055.c ****   bno055_delay(700);
 659              		.loc 1 87 10 discriminator 1 view .LVU143
 660 003c 0443     		orrs	r4, r4, r0
 661              	.LVL79:
  87:/home/dat/Documents/colir_one/rocket_code/Module/Src/bno055.c ****   bno055_delay(700);
 662              		.loc 1 87 10 discriminator 1 view .LVU144
 663 003e E4B2     		uxtb	r4, r4
 664              	.LVL80:
  88:/home/dat/Documents/colir_one/rocket_code/Module/Src/bno055.c ****   return status;
 665              		.loc 1 88 3 is_stmt 1 view .LVU145
 666 0040 4FF42F70 		mov	r0, #700
 667 0044 FFF7FEFF 		bl	bno055_delay
 668              	.LVL81:
  89:/home/dat/Documents/colir_one/rocket_code/Module/Src/bno055.c **** }
 669              		.loc 1 89 3 view .LVU146
  90:/home/dat/Documents/colir_one/rocket_code/Module/Src/bno055.c **** 
 670              		.loc 1 90 1 is_stmt 0 view .LVU147
 671 0048 2046     		mov	r0, r4
 672 004a 03B0     		add	sp, sp, #12
 673              	.LCFI14:
 674              		.cfi_remember_state
 675              		.cfi_def_cfa_offset 12
 676              		@ sp needed
 677 004c 30BD     		pop	{r4, r5, pc}
 678              	.LVL82:
 679              	.L33:
 680              	.LCFI15:
 681              		.cfi_restore_state
  86:/home/dat/Documents/colir_one/rocket_code/Module/Src/bno055.c ****   status |= bno055_writeData(BNO055_SYS_TRIGGER, tmp);
 682              		.loc 1 86 7 discriminator 2 view .LVU148
ARM GAS  /tmp/cclZauEM.s 			page 19


 683 004e 0023     		movs	r3, #0
 684 0050 EBE7     		b	.L32
 685              		.cfi_endproc
 686              	.LFE146:
 688              		.section	.text.bno055_assignI2C,"ax",%progbits
 689              		.align	1
 690              		.global	bno055_assignI2C
 691              		.syntax unified
 692              		.thumb
 693              		.thumb_func
 695              	bno055_assignI2C:
 696              	.LVL83:
 697              	.LFB137:
  20:/home/dat/Documents/colir_one/rocket_code/Module/Src/bno055.c ****   _bno055_i2c_port = hi2c_device;
 698              		.loc 1 20 55 is_stmt 1 view -0
 699              		.cfi_startproc
 700              		@ args = 0, pretend = 0, frame = 0
 701              		@ frame_needed = 0, uses_anonymous_args = 0
 702              		@ link register save eliminated.
  21:/home/dat/Documents/colir_one/rocket_code/Module/Src/bno055.c **** }
 703              		.loc 1 21 3 view .LVU150
  21:/home/dat/Documents/colir_one/rocket_code/Module/Src/bno055.c **** }
 704              		.loc 1 21 20 is_stmt 0 view .LVU151
 705 0000 014B     		ldr	r3, .L36
 706 0002 1860     		str	r0, [r3]
  22:/home/dat/Documents/colir_one/rocket_code/Module/Src/bno055.c **** 
 707              		.loc 1 22 1 view .LVU152
 708 0004 7047     		bx	lr
 709              	.L37:
 710 0006 00BF     		.align	2
 711              	.L36:
 712 0008 00000000 		.word	_bno055_i2c_port
 713              		.cfi_endproc
 714              	.LFE137:
 716              		.section	.text.bno055_getOperationMode,"ax",%progbits
 717              		.align	1
 718              		.global	bno055_getOperationMode
 719              		.syntax unified
 720              		.thumb
 721              		.thumb_func
 723              	bno055_getOperationMode:
 724              	.LVL84:
 725              	.LFB142:
  55:/home/dat/Documents/colir_one/rocket_code/Module/Src/bno055.c ****   // bno055_opmode_t mode;
 726              		.loc 1 55 66 is_stmt 1 view -0
 727              		.cfi_startproc
 728              		@ args = 0, pretend = 0, frame = 0
 729              		@ frame_needed = 0, uses_anonymous_args = 0
  55:/home/dat/Documents/colir_one/rocket_code/Module/Src/bno055.c ****   // bno055_opmode_t mode;
 730              		.loc 1 55 66 is_stmt 0 view .LVU154
 731 0000 08B5     		push	{r3, lr}
 732              	.LCFI16:
 733              		.cfi_def_cfa_offset 8
 734              		.cfi_offset 3, -8
 735              		.cfi_offset 14, -4
 736 0002 0146     		mov	r1, r0
  57:/home/dat/Documents/colir_one/rocket_code/Module/Src/bno055.c ****   return status;
ARM GAS  /tmp/cclZauEM.s 			page 20


 737              		.loc 1 57 3 is_stmt 1 view .LVU155
  57:/home/dat/Documents/colir_one/rocket_code/Module/Src/bno055.c ****   return status;
 738              		.loc 1 57 29 is_stmt 0 view .LVU156
 739 0004 0122     		movs	r2, #1
 740 0006 3D20     		movs	r0, #61
 741              	.LVL85:
  57:/home/dat/Documents/colir_one/rocket_code/Module/Src/bno055.c ****   return status;
 742              		.loc 1 57 29 view .LVU157
 743 0008 FFF7FEFF 		bl	bno055_readData
 744              	.LVL86:
  58:/home/dat/Documents/colir_one/rocket_code/Module/Src/bno055.c **** }
 745              		.loc 1 58 3 is_stmt 1 view .LVU158
  59:/home/dat/Documents/colir_one/rocket_code/Module/Src/bno055.c **** 
 746              		.loc 1 59 1 is_stmt 0 view .LVU159
 747 000c 08BD     		pop	{r3, pc}
 748              		.cfi_endproc
 749              	.LFE142:
 751              		.section	.text.bno055_setOperationMode,"ax",%progbits
 752              		.align	1
 753              		.global	bno055_setOperationMode
 754              		.syntax unified
 755              		.thumb
 756              		.thumb_func
 758              	bno055_setOperationMode:
 759              	.LVL87:
 760              	.LFB143:
  61:/home/dat/Documents/colir_one/rocket_code/Module/Src/bno055.c ****   HAL_StatusTypeDef status = bno055_writeData(BNO055_OPR_MODE, mode);
 761              		.loc 1 61 65 is_stmt 1 view -0
 762              		.cfi_startproc
 763              		@ args = 0, pretend = 0, frame = 0
 764              		@ frame_needed = 0, uses_anonymous_args = 0
  61:/home/dat/Documents/colir_one/rocket_code/Module/Src/bno055.c ****   HAL_StatusTypeDef status = bno055_writeData(BNO055_OPR_MODE, mode);
 765              		.loc 1 61 65 is_stmt 0 view .LVU161
 766 0000 38B5     		push	{r3, r4, r5, lr}
 767              	.LCFI17:
 768              		.cfi_def_cfa_offset 16
 769              		.cfi_offset 3, -16
 770              		.cfi_offset 4, -12
 771              		.cfi_offset 5, -8
 772              		.cfi_offset 14, -4
 773 0002 0446     		mov	r4, r0
  62:/home/dat/Documents/colir_one/rocket_code/Module/Src/bno055.c ****   if (mode == BNO055_OPERATION_MODE_CONFIG) {
 774              		.loc 1 62 3 is_stmt 1 view .LVU162
  62:/home/dat/Documents/colir_one/rocket_code/Module/Src/bno055.c ****   if (mode == BNO055_OPERATION_MODE_CONFIG) {
 775              		.loc 1 62 30 is_stmt 0 view .LVU163
 776 0004 0146     		mov	r1, r0
 777 0006 3D20     		movs	r0, #61
 778              	.LVL88:
  62:/home/dat/Documents/colir_one/rocket_code/Module/Src/bno055.c ****   if (mode == BNO055_OPERATION_MODE_CONFIG) {
 779              		.loc 1 62 30 view .LVU164
 780 0008 FFF7FEFF 		bl	bno055_writeData
 781              	.LVL89:
  62:/home/dat/Documents/colir_one/rocket_code/Module/Src/bno055.c ****   if (mode == BNO055_OPERATION_MODE_CONFIG) {
 782              		.loc 1 62 30 view .LVU165
 783 000c 0546     		mov	r5, r0
 784              	.LVL90:
  63:/home/dat/Documents/colir_one/rocket_code/Module/Src/bno055.c ****     bno055_delay(19);
ARM GAS  /tmp/cclZauEM.s 			page 21


 785              		.loc 1 63 3 is_stmt 1 view .LVU166
  63:/home/dat/Documents/colir_one/rocket_code/Module/Src/bno055.c ****     bno055_delay(19);
 786              		.loc 1 63 6 is_stmt 0 view .LVU167
 787 000e 24B9     		cbnz	r4, .L41
  64:/home/dat/Documents/colir_one/rocket_code/Module/Src/bno055.c ****   } else {
 788              		.loc 1 64 5 is_stmt 1 view .LVU168
 789 0010 1320     		movs	r0, #19
 790 0012 FFF7FEFF 		bl	bno055_delay
 791              	.LVL91:
 792              	.L42:
  68:/home/dat/Documents/colir_one/rocket_code/Module/Src/bno055.c **** }
 793              		.loc 1 68 3 view .LVU169
  69:/home/dat/Documents/colir_one/rocket_code/Module/Src/bno055.c **** 
 794              		.loc 1 69 1 is_stmt 0 view .LVU170
 795 0016 2846     		mov	r0, r5
 796 0018 38BD     		pop	{r3, r4, r5, pc}
 797              	.LVL92:
 798              	.L41:
  66:/home/dat/Documents/colir_one/rocket_code/Module/Src/bno055.c ****   }
 799              		.loc 1 66 5 is_stmt 1 view .LVU171
 800 001a 0720     		movs	r0, #7
 801 001c FFF7FEFF 		bl	bno055_delay
 802              	.LVL93:
 803 0020 F9E7     		b	.L42
 804              		.cfi_endproc
 805              	.LFE143:
 807              		.section	.text.bno055_setOperationModeConfig,"ax",%progbits
 808              		.align	1
 809              		.global	bno055_setOperationModeConfig
 810              		.syntax unified
 811              		.thumb
 812              		.thumb_func
 814              	bno055_setOperationModeConfig:
 815              	.LFB144:
  71:/home/dat/Documents/colir_one/rocket_code/Module/Src/bno055.c ****   HAL_StatusTypeDef status =  bno055_setOperationMode(BNO055_OPERATION_MODE_CONFIG);
 816              		.loc 1 71 55 view -0
 817              		.cfi_startproc
 818              		@ args = 0, pretend = 0, frame = 0
 819              		@ frame_needed = 0, uses_anonymous_args = 0
 820 0000 08B5     		push	{r3, lr}
 821              	.LCFI18:
 822              		.cfi_def_cfa_offset 8
 823              		.cfi_offset 3, -8
 824              		.cfi_offset 14, -4
  72:/home/dat/Documents/colir_one/rocket_code/Module/Src/bno055.c ****   return status;
 825              		.loc 1 72 3 view .LVU173
  72:/home/dat/Documents/colir_one/rocket_code/Module/Src/bno055.c ****   return status;
 826              		.loc 1 72 31 is_stmt 0 view .LVU174
 827 0002 0020     		movs	r0, #0
 828 0004 FFF7FEFF 		bl	bno055_setOperationMode
 829              	.LVL94:
  73:/home/dat/Documents/colir_one/rocket_code/Module/Src/bno055.c **** }
 830              		.loc 1 73 3 is_stmt 1 view .LVU175
  74:/home/dat/Documents/colir_one/rocket_code/Module/Src/bno055.c **** 
 831              		.loc 1 74 1 is_stmt 0 view .LVU176
 832 0008 08BD     		pop	{r3, pc}
 833              		.cfi_endproc
ARM GAS  /tmp/cclZauEM.s 			page 22


 834              	.LFE144:
 836              		.section	.text.bno055_setOperationModeNDOF,"ax",%progbits
 837              		.align	1
 838              		.global	bno055_setOperationModeNDOF
 839              		.syntax unified
 840              		.thumb
 841              		.thumb_func
 843              	bno055_setOperationModeNDOF:
 844              	.LFB145:
  76:/home/dat/Documents/colir_one/rocket_code/Module/Src/bno055.c ****   HAL_StatusTypeDef status = bno055_setOperationMode(BNO055_OPERATION_MODE_NDOF);
 845              		.loc 1 76 53 is_stmt 1 view -0
 846              		.cfi_startproc
 847              		@ args = 0, pretend = 0, frame = 0
 848              		@ frame_needed = 0, uses_anonymous_args = 0
 849 0000 08B5     		push	{r3, lr}
 850              	.LCFI19:
 851              		.cfi_def_cfa_offset 8
 852              		.cfi_offset 3, -8
 853              		.cfi_offset 14, -4
  77:/home/dat/Documents/colir_one/rocket_code/Module/Src/bno055.c ****   return status;
 854              		.loc 1 77 3 view .LVU178
  77:/home/dat/Documents/colir_one/rocket_code/Module/Src/bno055.c ****   return status;
 855              		.loc 1 77 30 is_stmt 0 view .LVU179
 856 0002 0C20     		movs	r0, #12
 857 0004 FFF7FEFF 		bl	bno055_setOperationMode
 858              	.LVL95:
  78:/home/dat/Documents/colir_one/rocket_code/Module/Src/bno055.c **** }
 859              		.loc 1 78 3 is_stmt 1 view .LVU180
  79:/home/dat/Documents/colir_one/rocket_code/Module/Src/bno055.c **** 
 860              		.loc 1 79 1 is_stmt 0 view .LVU181
 861 0008 08BD     		pop	{r3, pc}
 862              		.cfi_endproc
 863              	.LFE145:
 865              		.section	.text.bno055_enableExternalCrystal,"ax",%progbits
 866              		.align	1
 867              		.global	bno055_enableExternalCrystal
 868              		.syntax unified
 869              		.thumb
 870              		.thumb_func
 872              	bno055_enableExternalCrystal:
 873              	.LFB147:
  92:/home/dat/Documents/colir_one/rocket_code/Module/Src/bno055.c ****   HAL_StatusTypeDef status =  bno055_setExternalCrystalUse(true); 
 874              		.loc 1 92 54 is_stmt 1 view -0
 875              		.cfi_startproc
 876              		@ args = 0, pretend = 0, frame = 0
 877              		@ frame_needed = 0, uses_anonymous_args = 0
 878 0000 08B5     		push	{r3, lr}
 879              	.LCFI20:
 880              		.cfi_def_cfa_offset 8
 881              		.cfi_offset 3, -8
 882              		.cfi_offset 14, -4
  93:/home/dat/Documents/colir_one/rocket_code/Module/Src/bno055.c ****   return status;
 883              		.loc 1 93 3 view .LVU183
  93:/home/dat/Documents/colir_one/rocket_code/Module/Src/bno055.c ****   return status;
 884              		.loc 1 93 31 is_stmt 0 view .LVU184
 885 0002 0120     		movs	r0, #1
 886 0004 FFF7FEFF 		bl	bno055_setExternalCrystalUse
ARM GAS  /tmp/cclZauEM.s 			page 23


 887              	.LVL96:
  94:/home/dat/Documents/colir_one/rocket_code/Module/Src/bno055.c **** }
 888              		.loc 1 94 3 is_stmt 1 view .LVU185
  95:/home/dat/Documents/colir_one/rocket_code/Module/Src/bno055.c **** HAL_StatusTypeDef bno055_disableExternalCrystal(void) { 
 889              		.loc 1 95 1 is_stmt 0 view .LVU186
 890 0008 08BD     		pop	{r3, pc}
 891              		.cfi_endproc
 892              	.LFE147:
 894              		.section	.text.bno055_disableExternalCrystal,"ax",%progbits
 895              		.align	1
 896              		.global	bno055_disableExternalCrystal
 897              		.syntax unified
 898              		.thumb
 899              		.thumb_func
 901              	bno055_disableExternalCrystal:
 902              	.LFB148:
  96:/home/dat/Documents/colir_one/rocket_code/Module/Src/bno055.c ****   HAL_StatusTypeDef status = bno055_setExternalCrystalUse(false); 
 903              		.loc 1 96 55 is_stmt 1 view -0
 904              		.cfi_startproc
 905              		@ args = 0, pretend = 0, frame = 0
 906              		@ frame_needed = 0, uses_anonymous_args = 0
 907 0000 08B5     		push	{r3, lr}
 908              	.LCFI21:
 909              		.cfi_def_cfa_offset 8
 910              		.cfi_offset 3, -8
 911              		.cfi_offset 14, -4
  97:/home/dat/Documents/colir_one/rocket_code/Module/Src/bno055.c ****   return status;
 912              		.loc 1 97 3 view .LVU188
  97:/home/dat/Documents/colir_one/rocket_code/Module/Src/bno055.c ****   return status;
 913              		.loc 1 97 30 is_stmt 0 view .LVU189
 914 0002 0020     		movs	r0, #0
 915 0004 FFF7FEFF 		bl	bno055_setExternalCrystalUse
 916              	.LVL97:
  98:/home/dat/Documents/colir_one/rocket_code/Module/Src/bno055.c **** }
 917              		.loc 1 98 3 is_stmt 1 view .LVU190
  99:/home/dat/Documents/colir_one/rocket_code/Module/Src/bno055.c **** 
 918              		.loc 1 99 1 is_stmt 0 view .LVU191
 919 0008 08BD     		pop	{r3, pc}
 920              		.cfi_endproc
 921              	.LFE148:
 923              		.section	.text.bno055_reset,"ax",%progbits
 924              		.align	1
 925              		.global	bno055_reset
 926              		.syntax unified
 927              		.thumb
 928              		.thumb_func
 930              	bno055_reset:
 931              	.LFB149:
 101:/home/dat/Documents/colir_one/rocket_code/Module/Src/bno055.c ****   HAL_StatusTypeDef status = bno055_writeData(BNO055_SYS_TRIGGER, 0x20);
 932              		.loc 1 101 38 is_stmt 1 view -0
 933              		.cfi_startproc
 934              		@ args = 0, pretend = 0, frame = 0
 935              		@ frame_needed = 0, uses_anonymous_args = 0
 936 0000 10B5     		push	{r4, lr}
 937              	.LCFI22:
 938              		.cfi_def_cfa_offset 8
 939              		.cfi_offset 4, -8
ARM GAS  /tmp/cclZauEM.s 			page 24


 940              		.cfi_offset 14, -4
 102:/home/dat/Documents/colir_one/rocket_code/Module/Src/bno055.c ****   bno055_delay(700);
 941              		.loc 1 102 3 view .LVU193
 102:/home/dat/Documents/colir_one/rocket_code/Module/Src/bno055.c ****   bno055_delay(700);
 942              		.loc 1 102 30 is_stmt 0 view .LVU194
 943 0002 2021     		movs	r1, #32
 944 0004 3F20     		movs	r0, #63
 945 0006 FFF7FEFF 		bl	bno055_writeData
 946              	.LVL98:
 947 000a 0446     		mov	r4, r0
 948              	.LVL99:
 103:/home/dat/Documents/colir_one/rocket_code/Module/Src/bno055.c ****   return status;
 949              		.loc 1 103 3 is_stmt 1 view .LVU195
 950 000c 4FF42F70 		mov	r0, #700
 951 0010 FFF7FEFF 		bl	bno055_delay
 952              	.LVL100:
 104:/home/dat/Documents/colir_one/rocket_code/Module/Src/bno055.c **** }
 953              		.loc 1 104 3 view .LVU196
 105:/home/dat/Documents/colir_one/rocket_code/Module/Src/bno055.c **** 
 954              		.loc 1 105 1 is_stmt 0 view .LVU197
 955 0014 2046     		mov	r0, r4
 956 0016 10BD     		pop	{r4, pc}
 105:/home/dat/Documents/colir_one/rocket_code/Module/Src/bno055.c **** 
 957              		.loc 1 105 1 view .LVU198
 958              		.cfi_endproc
 959              	.LFE149:
 961              		.section	.text.bno055_getTemp,"ax",%progbits
 962              		.align	1
 963              		.global	bno055_getTemp
 964              		.syntax unified
 965              		.thumb
 966              		.thumb_func
 968              	bno055_getTemp:
 969              	.LVL101:
 970              	.LFB150:
 107:/home/dat/Documents/colir_one/rocket_code/Module/Src/bno055.c ****   HAL_StatusTypeDef status = HAL_OK;
 971              		.loc 1 107 49 is_stmt 1 view -0
 972              		.cfi_startproc
 973              		@ args = 0, pretend = 0, frame = 0
 974              		@ frame_needed = 0, uses_anonymous_args = 0
 107:/home/dat/Documents/colir_one/rocket_code/Module/Src/bno055.c ****   HAL_StatusTypeDef status = HAL_OK;
 975              		.loc 1 107 49 is_stmt 0 view .LVU200
 976 0000 38B5     		push	{r3, r4, r5, lr}
 977              	.LCFI23:
 978              		.cfi_def_cfa_offset 16
 979              		.cfi_offset 3, -16
 980              		.cfi_offset 4, -12
 981              		.cfi_offset 5, -8
 982              		.cfi_offset 14, -4
 983 0002 0546     		mov	r5, r0
 108:/home/dat/Documents/colir_one/rocket_code/Module/Src/bno055.c ****   status |= bno055_setPage(0);
 984              		.loc 1 108 3 is_stmt 1 view .LVU201
 985              	.LVL102:
 109:/home/dat/Documents/colir_one/rocket_code/Module/Src/bno055.c ****   status |= bno055_readData(BNO055_TEMP, temp, 1);
 986              		.loc 1 109 3 view .LVU202
 109:/home/dat/Documents/colir_one/rocket_code/Module/Src/bno055.c ****   status |= bno055_readData(BNO055_TEMP, temp, 1);
 987              		.loc 1 109 13 is_stmt 0 view .LVU203
ARM GAS  /tmp/cclZauEM.s 			page 25


 988 0004 0020     		movs	r0, #0
 989              	.LVL103:
 109:/home/dat/Documents/colir_one/rocket_code/Module/Src/bno055.c ****   status |= bno055_readData(BNO055_TEMP, temp, 1);
 990              		.loc 1 109 13 view .LVU204
 991 0006 FFF7FEFF 		bl	bno055_setPage
 992              	.LVL104:
 993 000a 0446     		mov	r4, r0
 994              	.LVL105:
 110:/home/dat/Documents/colir_one/rocket_code/Module/Src/bno055.c ****   return status;
 995              		.loc 1 110 3 is_stmt 1 view .LVU205
 110:/home/dat/Documents/colir_one/rocket_code/Module/Src/bno055.c ****   return status;
 996              		.loc 1 110 13 is_stmt 0 view .LVU206
 997 000c 0122     		movs	r2, #1
 998 000e 2946     		mov	r1, r5
 999 0010 3420     		movs	r0, #52
 1000 0012 FFF7FEFF 		bl	bno055_readData
 1001              	.LVL106:
 110:/home/dat/Documents/colir_one/rocket_code/Module/Src/bno055.c ****   return status;
 1002              		.loc 1 110 10 discriminator 1 view .LVU207
 1003 0016 2043     		orrs	r0, r0, r4
 1004              	.LVL107:
 111:/home/dat/Documents/colir_one/rocket_code/Module/Src/bno055.c **** }
 1005              		.loc 1 111 3 is_stmt 1 view .LVU208
 112:/home/dat/Documents/colir_one/rocket_code/Module/Src/bno055.c **** 
 1006              		.loc 1 112 1 is_stmt 0 view .LVU209
 1007 0018 C0B2     		uxtb	r0, r0
 112:/home/dat/Documents/colir_one/rocket_code/Module/Src/bno055.c **** 
 1008              		.loc 1 112 1 view .LVU210
 1009 001a 38BD     		pop	{r3, r4, r5, pc}
 112:/home/dat/Documents/colir_one/rocket_code/Module/Src/bno055.c **** 
 1010              		.loc 1 112 1 view .LVU211
 1011              		.cfi_endproc
 1012              	.LFE150:
 1014              		.section	.rodata.bno055_setup.str1.4,"aMS",%progbits,1
 1015              		.align	2
 1016              	.LC0:
 1017 0000 43616E27 		.ascii	"Can't find BNO055, id: 0x%02x. Please check your wi"
 1017      74206669 
 1017      6E642042 
 1017      4E4F3035 
 1017      352C2069 
 1018 0033 72696E67 		.ascii	"ring.\015\012\000"
 1018      2E0D0A00 
 1019              		.section	.text.bno055_setup,"ax",%progbits
 1020              		.align	1
 1021              		.global	bno055_setup
 1022              		.syntax unified
 1023              		.thumb
 1024              		.thumb_func
 1026              	bno055_setup:
 1027              	.LFB151:
 114:/home/dat/Documents/colir_one/rocket_code/Module/Src/bno055.c ****   HAL_StatusTypeDef status = HAL_OK;
 1028              		.loc 1 114 38 is_stmt 1 view -0
 1029              		.cfi_startproc
 1030              		@ args = 0, pretend = 0, frame = 8
 1031              		@ frame_needed = 0, uses_anonymous_args = 0
 1032 0000 10B5     		push	{r4, lr}
ARM GAS  /tmp/cclZauEM.s 			page 26


 1033              	.LCFI24:
 1034              		.cfi_def_cfa_offset 8
 1035              		.cfi_offset 4, -8
 1036              		.cfi_offset 14, -4
 1037 0002 82B0     		sub	sp, sp, #8
 1038              	.LCFI25:
 1039              		.cfi_def_cfa_offset 16
 115:/home/dat/Documents/colir_one/rocket_code/Module/Src/bno055.c ****   status |= bno055_reset();
 1040              		.loc 1 115 3 view .LVU213
 1041              	.LVL108:
 116:/home/dat/Documents/colir_one/rocket_code/Module/Src/bno055.c **** 
 1042              		.loc 1 116 3 view .LVU214
 116:/home/dat/Documents/colir_one/rocket_code/Module/Src/bno055.c **** 
 1043              		.loc 1 116 13 is_stmt 0 view .LVU215
 1044 0004 FFF7FEFF 		bl	bno055_reset
 1045              	.LVL109:
 1046 0008 0446     		mov	r4, r0
 1047              	.LVL110:
 118:/home/dat/Documents/colir_one/rocket_code/Module/Src/bno055.c ****   status |= bno055_readData(BNO055_CHIP_ID, &id, 1);
 1048              		.loc 1 118 3 is_stmt 1 view .LVU216
 118:/home/dat/Documents/colir_one/rocket_code/Module/Src/bno055.c ****   status |= bno055_readData(BNO055_CHIP_ID, &id, 1);
 1049              		.loc 1 118 11 is_stmt 0 view .LVU217
 1050 000a 0020     		movs	r0, #0
 1051 000c 8DF80700 		strb	r0, [sp, #7]
 119:/home/dat/Documents/colir_one/rocket_code/Module/Src/bno055.c ****   if (id != BNO055_ID) {
 1052              		.loc 1 119 3 is_stmt 1 view .LVU218
 119:/home/dat/Documents/colir_one/rocket_code/Module/Src/bno055.c ****   if (id != BNO055_ID) {
 1053              		.loc 1 119 13 is_stmt 0 view .LVU219
 1054 0010 0122     		movs	r2, #1
 1055 0012 0DF10701 		add	r1, sp, #7
 1056 0016 FFF7FEFF 		bl	bno055_readData
 1057              	.LVL111:
 119:/home/dat/Documents/colir_one/rocket_code/Module/Src/bno055.c ****   if (id != BNO055_ID) {
 1058              		.loc 1 119 10 discriminator 1 view .LVU220
 1059 001a 0443     		orrs	r4, r4, r0
 1060              	.LVL112:
 119:/home/dat/Documents/colir_one/rocket_code/Module/Src/bno055.c ****   if (id != BNO055_ID) {
 1061              		.loc 1 119 10 discriminator 1 view .LVU221
 1062 001c E4B2     		uxtb	r4, r4
 1063              	.LVL113:
 120:/home/dat/Documents/colir_one/rocket_code/Module/Src/bno055.c ****     printf("Can't find BNO055, id: 0x%02x. Please check your wiring.\r\n", id);
 1064              		.loc 1 120 3 is_stmt 1 view .LVU222
 120:/home/dat/Documents/colir_one/rocket_code/Module/Src/bno055.c ****     printf("Can't find BNO055, id: 0x%02x. Please check your wiring.\r\n", id);
 1065              		.loc 1 120 10 is_stmt 0 view .LVU223
 1066 001e 9DF80710 		ldrb	r1, [sp, #7]	@ zero_extendqisi2
 120:/home/dat/Documents/colir_one/rocket_code/Module/Src/bno055.c ****     printf("Can't find BNO055, id: 0x%02x. Please check your wiring.\r\n", id);
 1067              		.loc 1 120 6 view .LVU224
 1068 0022 A029     		cmp	r1, #160
 1069 0024 14D1     		bne	.L59
 1070              	.L57:
 123:/home/dat/Documents/colir_one/rocket_code/Module/Src/bno055.c ****   status |= bno055_writeData(BNO055_SYS_TRIGGER, 0x0);
 1071              		.loc 1 123 3 is_stmt 1 view .LVU225
 123:/home/dat/Documents/colir_one/rocket_code/Module/Src/bno055.c ****   status |= bno055_writeData(BNO055_SYS_TRIGGER, 0x0);
 1072              		.loc 1 123 13 is_stmt 0 view .LVU226
 1073 0026 0020     		movs	r0, #0
 1074 0028 FFF7FEFF 		bl	bno055_setPage
 1075              	.LVL114:
ARM GAS  /tmp/cclZauEM.s 			page 27


 123:/home/dat/Documents/colir_one/rocket_code/Module/Src/bno055.c ****   status |= bno055_writeData(BNO055_SYS_TRIGGER, 0x0);
 1076              		.loc 1 123 10 discriminator 1 view .LVU227
 1077 002c 0443     		orrs	r4, r4, r0
 1078              	.LVL115:
 123:/home/dat/Documents/colir_one/rocket_code/Module/Src/bno055.c ****   status |= bno055_writeData(BNO055_SYS_TRIGGER, 0x0);
 1079              		.loc 1 123 10 discriminator 1 view .LVU228
 1080 002e E4B2     		uxtb	r4, r4
 1081              	.LVL116:
 124:/home/dat/Documents/colir_one/rocket_code/Module/Src/bno055.c **** 
 1082              		.loc 1 124 3 is_stmt 1 view .LVU229
 124:/home/dat/Documents/colir_one/rocket_code/Module/Src/bno055.c **** 
 1083              		.loc 1 124 13 is_stmt 0 view .LVU230
 1084 0030 0021     		movs	r1, #0
 1085 0032 3F20     		movs	r0, #63
 1086 0034 FFF7FEFF 		bl	bno055_writeData
 1087              	.LVL117:
 124:/home/dat/Documents/colir_one/rocket_code/Module/Src/bno055.c **** 
 1088              		.loc 1 124 10 discriminator 1 view .LVU231
 1089 0038 0443     		orrs	r4, r4, r0
 1090              	.LVL118:
 124:/home/dat/Documents/colir_one/rocket_code/Module/Src/bno055.c **** 
 1091              		.loc 1 124 10 discriminator 1 view .LVU232
 1092 003a E4B2     		uxtb	r4, r4
 1093              	.LVL119:
 127:/home/dat/Documents/colir_one/rocket_code/Module/Src/bno055.c ****   bno055_delay(10);
 1094              		.loc 1 127 3 is_stmt 1 view .LVU233
 127:/home/dat/Documents/colir_one/rocket_code/Module/Src/bno055.c ****   bno055_delay(10);
 1095              		.loc 1 127 13 is_stmt 0 view .LVU234
 1096 003c FFF7FEFF 		bl	bno055_setOperationModeConfig
 1097              	.LVL120:
 127:/home/dat/Documents/colir_one/rocket_code/Module/Src/bno055.c ****   bno055_delay(10);
 1098              		.loc 1 127 10 discriminator 1 view .LVU235
 1099 0040 0443     		orrs	r4, r4, r0
 1100              	.LVL121:
 127:/home/dat/Documents/colir_one/rocket_code/Module/Src/bno055.c ****   bno055_delay(10);
 1101              		.loc 1 127 10 discriminator 1 view .LVU236
 1102 0042 E4B2     		uxtb	r4, r4
 1103              	.LVL122:
 128:/home/dat/Documents/colir_one/rocket_code/Module/Src/bno055.c ****   return status;
 1104              		.loc 1 128 3 is_stmt 1 view .LVU237
 1105 0044 0A20     		movs	r0, #10
 1106 0046 FFF7FEFF 		bl	bno055_delay
 1107              	.LVL123:
 129:/home/dat/Documents/colir_one/rocket_code/Module/Src/bno055.c **** }
 1108              		.loc 1 129 3 view .LVU238
 130:/home/dat/Documents/colir_one/rocket_code/Module/Src/bno055.c **** 
 1109              		.loc 1 130 1 is_stmt 0 view .LVU239
 1110 004a 2046     		mov	r0, r4
 1111 004c 02B0     		add	sp, sp, #8
 1112              	.LCFI26:
 1113              		.cfi_remember_state
 1114              		.cfi_def_cfa_offset 8
 1115              		@ sp needed
 1116 004e 10BD     		pop	{r4, pc}
 1117              	.LVL124:
 1118              	.L59:
 1119              	.LCFI27:
ARM GAS  /tmp/cclZauEM.s 			page 28


 1120              		.cfi_restore_state
 121:/home/dat/Documents/colir_one/rocket_code/Module/Src/bno055.c ****   }
 1121              		.loc 1 121 5 is_stmt 1 view .LVU240
 1122 0050 0148     		ldr	r0, .L60
 1123 0052 FFF7FEFF 		bl	printf
 1124              	.LVL125:
 1125 0056 E6E7     		b	.L57
 1126              	.L61:
 1127              		.align	2
 1128              	.L60:
 1129 0058 00000000 		.word	.LC0
 1130              		.cfi_endproc
 1131              	.LFE151:
 1133              		.section	.text.bno055_getSWRevision,"ax",%progbits
 1134              		.align	1
 1135              		.global	bno055_getSWRevision
 1136              		.syntax unified
 1137              		.thumb
 1138              		.thumb_func
 1140              	bno055_getSWRevision:
 1141              	.LVL126:
 1142              	.LFB152:
 132:/home/dat/Documents/colir_one/rocket_code/Module/Src/bno055.c ****   HAL_StatusTypeDef status = HAL_OK;
 1143              		.loc 1 132 56 view -0
 1144              		.cfi_startproc
 1145              		@ args = 0, pretend = 0, frame = 8
 1146              		@ frame_needed = 0, uses_anonymous_args = 0
 132:/home/dat/Documents/colir_one/rocket_code/Module/Src/bno055.c ****   HAL_StatusTypeDef status = HAL_OK;
 1147              		.loc 1 132 56 is_stmt 0 view .LVU242
 1148 0000 30B5     		push	{r4, r5, lr}
 1149              	.LCFI28:
 1150              		.cfi_def_cfa_offset 12
 1151              		.cfi_offset 4, -12
 1152              		.cfi_offset 5, -8
 1153              		.cfi_offset 14, -4
 1154 0002 83B0     		sub	sp, sp, #12
 1155              	.LCFI29:
 1156              		.cfi_def_cfa_offset 24
 1157 0004 0546     		mov	r5, r0
 133:/home/dat/Documents/colir_one/rocket_code/Module/Src/bno055.c ****   status |= bno055_setPage(0);
 1158              		.loc 1 133 3 is_stmt 1 view .LVU243
 1159              	.LVL127:
 134:/home/dat/Documents/colir_one/rocket_code/Module/Src/bno055.c ****   uint8_t buffer[2];
 1160              		.loc 1 134 3 view .LVU244
 134:/home/dat/Documents/colir_one/rocket_code/Module/Src/bno055.c ****   uint8_t buffer[2];
 1161              		.loc 1 134 13 is_stmt 0 view .LVU245
 1162 0006 0020     		movs	r0, #0
 1163              	.LVL128:
 134:/home/dat/Documents/colir_one/rocket_code/Module/Src/bno055.c ****   uint8_t buffer[2];
 1164              		.loc 1 134 13 view .LVU246
 1165 0008 FFF7FEFF 		bl	bno055_setPage
 1166              	.LVL129:
 1167 000c 0446     		mov	r4, r0
 1168              	.LVL130:
 135:/home/dat/Documents/colir_one/rocket_code/Module/Src/bno055.c ****   status |= bno055_readData(BNO055_SW_REV_ID_LSB, buffer, 2);
 1169              		.loc 1 135 3 is_stmt 1 view .LVU247
 136:/home/dat/Documents/colir_one/rocket_code/Module/Src/bno055.c ****   *swRev = (int16_t)((buffer[1] << 8) | buffer[0]);
ARM GAS  /tmp/cclZauEM.s 			page 29


 1170              		.loc 1 136 3 view .LVU248
 136:/home/dat/Documents/colir_one/rocket_code/Module/Src/bno055.c ****   *swRev = (int16_t)((buffer[1] << 8) | buffer[0]);
 1171              		.loc 1 136 13 is_stmt 0 view .LVU249
 1172 000e 0222     		movs	r2, #2
 1173 0010 01A9     		add	r1, sp, #4
 1174 0012 0420     		movs	r0, #4
 1175 0014 FFF7FEFF 		bl	bno055_readData
 1176              	.LVL131:
 136:/home/dat/Documents/colir_one/rocket_code/Module/Src/bno055.c ****   *swRev = (int16_t)((buffer[1] << 8) | buffer[0]);
 1177              		.loc 1 136 10 discriminator 1 view .LVU250
 1178 0018 2043     		orrs	r0, r0, r4
 1179              	.LVL132:
 137:/home/dat/Documents/colir_one/rocket_code/Module/Src/bno055.c ****   return status;
 1180              		.loc 1 137 3 is_stmt 1 view .LVU251
 137:/home/dat/Documents/colir_one/rocket_code/Module/Src/bno055.c ****   return status;
 1181              		.loc 1 137 29 is_stmt 0 view .LVU252
 1182 001a 9DF80520 		ldrb	r2, [sp, #5]	@ zero_extendqisi2
 137:/home/dat/Documents/colir_one/rocket_code/Module/Src/bno055.c ****   return status;
 1183              		.loc 1 137 47 view .LVU253
 1184 001e 9DF80430 		ldrb	r3, [sp, #4]	@ zero_extendqisi2
 137:/home/dat/Documents/colir_one/rocket_code/Module/Src/bno055.c ****   return status;
 1185              		.loc 1 137 12 view .LVU254
 1186 0022 43EA0223 		orr	r3, r3, r2, lsl #8
 137:/home/dat/Documents/colir_one/rocket_code/Module/Src/bno055.c ****   return status;
 1187              		.loc 1 137 10 view .LVU255
 1188 0026 2B80     		strh	r3, [r5]	@ movhi
 138:/home/dat/Documents/colir_one/rocket_code/Module/Src/bno055.c **** }
 1189              		.loc 1 138 3 is_stmt 1 view .LVU256
 139:/home/dat/Documents/colir_one/rocket_code/Module/Src/bno055.c **** 
 1190              		.loc 1 139 1 is_stmt 0 view .LVU257
 1191 0028 C0B2     		uxtb	r0, r0
 139:/home/dat/Documents/colir_one/rocket_code/Module/Src/bno055.c **** 
 1192              		.loc 1 139 1 view .LVU258
 1193 002a 03B0     		add	sp, sp, #12
 1194              	.LCFI30:
 1195              		.cfi_def_cfa_offset 12
 1196              		@ sp needed
 1197 002c 30BD     		pop	{r4, r5, pc}
 139:/home/dat/Documents/colir_one/rocket_code/Module/Src/bno055.c **** 
 1198              		.loc 1 139 1 view .LVU259
 1199              		.cfi_endproc
 1200              	.LFE152:
 1202              		.section	.text.bno055_getBootloaderRevision,"ax",%progbits
 1203              		.align	1
 1204              		.global	bno055_getBootloaderRevision
 1205              		.syntax unified
 1206              		.thumb
 1207              		.thumb_func
 1209              	bno055_getBootloaderRevision:
 1210              	.LVL133:
 1211              	.LFB153:
 141:/home/dat/Documents/colir_one/rocket_code/Module/Src/bno055.c ****   HAL_StatusTypeDef status = HAL_OK;
 1212              		.loc 1 141 64 is_stmt 1 view -0
 1213              		.cfi_startproc
 1214              		@ args = 0, pretend = 0, frame = 0
 1215              		@ frame_needed = 0, uses_anonymous_args = 0
 141:/home/dat/Documents/colir_one/rocket_code/Module/Src/bno055.c ****   HAL_StatusTypeDef status = HAL_OK;
ARM GAS  /tmp/cclZauEM.s 			page 30


 1216              		.loc 1 141 64 is_stmt 0 view .LVU261
 1217 0000 38B5     		push	{r3, r4, r5, lr}
 1218              	.LCFI31:
 1219              		.cfi_def_cfa_offset 16
 1220              		.cfi_offset 3, -16
 1221              		.cfi_offset 4, -12
 1222              		.cfi_offset 5, -8
 1223              		.cfi_offset 14, -4
 1224 0002 0546     		mov	r5, r0
 142:/home/dat/Documents/colir_one/rocket_code/Module/Src/bno055.c ****   status |= bno055_setPage(0);
 1225              		.loc 1 142 3 is_stmt 1 view .LVU262
 1226              	.LVL134:
 143:/home/dat/Documents/colir_one/rocket_code/Module/Src/bno055.c ****   status |= bno055_readData(BNO055_BL_REV_ID, blRev, 1);
 1227              		.loc 1 143 3 view .LVU263
 143:/home/dat/Documents/colir_one/rocket_code/Module/Src/bno055.c ****   status |= bno055_readData(BNO055_BL_REV_ID, blRev, 1);
 1228              		.loc 1 143 13 is_stmt 0 view .LVU264
 1229 0004 0020     		movs	r0, #0
 1230              	.LVL135:
 143:/home/dat/Documents/colir_one/rocket_code/Module/Src/bno055.c ****   status |= bno055_readData(BNO055_BL_REV_ID, blRev, 1);
 1231              		.loc 1 143 13 view .LVU265
 1232 0006 FFF7FEFF 		bl	bno055_setPage
 1233              	.LVL136:
 1234 000a 0446     		mov	r4, r0
 1235              	.LVL137:
 144:/home/dat/Documents/colir_one/rocket_code/Module/Src/bno055.c ****   return status;
 1236              		.loc 1 144 3 is_stmt 1 view .LVU266
 144:/home/dat/Documents/colir_one/rocket_code/Module/Src/bno055.c ****   return status;
 1237              		.loc 1 144 13 is_stmt 0 view .LVU267
 1238 000c 0122     		movs	r2, #1
 1239 000e 2946     		mov	r1, r5
 1240 0010 0620     		movs	r0, #6
 1241 0012 FFF7FEFF 		bl	bno055_readData
 1242              	.LVL138:
 144:/home/dat/Documents/colir_one/rocket_code/Module/Src/bno055.c ****   return status;
 1243              		.loc 1 144 10 discriminator 1 view .LVU268
 1244 0016 2043     		orrs	r0, r0, r4
 1245              	.LVL139:
 145:/home/dat/Documents/colir_one/rocket_code/Module/Src/bno055.c **** }
 1246              		.loc 1 145 3 is_stmt 1 view .LVU269
 146:/home/dat/Documents/colir_one/rocket_code/Module/Src/bno055.c **** 
 1247              		.loc 1 146 1 is_stmt 0 view .LVU270
 1248 0018 C0B2     		uxtb	r0, r0
 146:/home/dat/Documents/colir_one/rocket_code/Module/Src/bno055.c **** 
 1249              		.loc 1 146 1 view .LVU271
 1250 001a 38BD     		pop	{r3, r4, r5, pc}
 146:/home/dat/Documents/colir_one/rocket_code/Module/Src/bno055.c **** 
 1251              		.loc 1 146 1 view .LVU272
 1252              		.cfi_endproc
 1253              	.LFE153:
 1255              		.section	.text.bno055_getSystemStatus,"ax",%progbits
 1256              		.align	1
 1257              		.global	bno055_getSystemStatus
 1258              		.syntax unified
 1259              		.thumb
 1260              		.thumb_func
 1262              	bno055_getSystemStatus:
 1263              	.LVL140:
ARM GAS  /tmp/cclZauEM.s 			page 31


 1264              	.LFB154:
 148:/home/dat/Documents/colir_one/rocket_code/Module/Src/bno055.c ****   HAL_StatusTypeDef status = HAL_OK;
 1265              		.loc 1 148 62 is_stmt 1 view -0
 1266              		.cfi_startproc
 1267              		@ args = 0, pretend = 0, frame = 0
 1268              		@ frame_needed = 0, uses_anonymous_args = 0
 148:/home/dat/Documents/colir_one/rocket_code/Module/Src/bno055.c ****   HAL_StatusTypeDef status = HAL_OK;
 1269              		.loc 1 148 62 is_stmt 0 view .LVU274
 1270 0000 38B5     		push	{r3, r4, r5, lr}
 1271              	.LCFI32:
 1272              		.cfi_def_cfa_offset 16
 1273              		.cfi_offset 3, -16
 1274              		.cfi_offset 4, -12
 1275              		.cfi_offset 5, -8
 1276              		.cfi_offset 14, -4
 1277 0002 0546     		mov	r5, r0
 149:/home/dat/Documents/colir_one/rocket_code/Module/Src/bno055.c ****   status |= bno055_setPage(0);
 1278              		.loc 1 149 3 is_stmt 1 view .LVU275
 1279              	.LVL141:
 150:/home/dat/Documents/colir_one/rocket_code/Module/Src/bno055.c ****   status |= bno055_readData(BNO055_SYS_STATUS, sysStatus, 1);
 1280              		.loc 1 150 3 view .LVU276
 150:/home/dat/Documents/colir_one/rocket_code/Module/Src/bno055.c ****   status |= bno055_readData(BNO055_SYS_STATUS, sysStatus, 1);
 1281              		.loc 1 150 13 is_stmt 0 view .LVU277
 1282 0004 0020     		movs	r0, #0
 1283              	.LVL142:
 150:/home/dat/Documents/colir_one/rocket_code/Module/Src/bno055.c ****   status |= bno055_readData(BNO055_SYS_STATUS, sysStatus, 1);
 1284              		.loc 1 150 13 view .LVU278
 1285 0006 FFF7FEFF 		bl	bno055_setPage
 1286              	.LVL143:
 1287 000a 0446     		mov	r4, r0
 1288              	.LVL144:
 151:/home/dat/Documents/colir_one/rocket_code/Module/Src/bno055.c ****   return status;
 1289              		.loc 1 151 3 is_stmt 1 view .LVU279
 151:/home/dat/Documents/colir_one/rocket_code/Module/Src/bno055.c ****   return status;
 1290              		.loc 1 151 13 is_stmt 0 view .LVU280
 1291 000c 0122     		movs	r2, #1
 1292 000e 2946     		mov	r1, r5
 1293 0010 3920     		movs	r0, #57
 1294 0012 FFF7FEFF 		bl	bno055_readData
 1295              	.LVL145:
 151:/home/dat/Documents/colir_one/rocket_code/Module/Src/bno055.c ****   return status;
 1296              		.loc 1 151 10 discriminator 1 view .LVU281
 1297 0016 2043     		orrs	r0, r0, r4
 1298              	.LVL146:
 152:/home/dat/Documents/colir_one/rocket_code/Module/Src/bno055.c **** }
 1299              		.loc 1 152 3 is_stmt 1 view .LVU282
 153:/home/dat/Documents/colir_one/rocket_code/Module/Src/bno055.c **** 
 1300              		.loc 1 153 1 is_stmt 0 view .LVU283
 1301 0018 C0B2     		uxtb	r0, r0
 153:/home/dat/Documents/colir_one/rocket_code/Module/Src/bno055.c **** 
 1302              		.loc 1 153 1 view .LVU284
 1303 001a 38BD     		pop	{r3, r4, r5, pc}
 153:/home/dat/Documents/colir_one/rocket_code/Module/Src/bno055.c **** 
 1304              		.loc 1 153 1 view .LVU285
 1305              		.cfi_endproc
 1306              	.LFE154:
 1308              		.section	.text.bno055_getSelfTestResult,"ax",%progbits
ARM GAS  /tmp/cclZauEM.s 			page 32


 1309              		.align	1
 1310              		.global	bno055_getSelfTestResult
 1311              		.syntax unified
 1312              		.thumb
 1313              		.thumb_func
 1315              	bno055_getSelfTestResult:
 1316              	.LVL147:
 1317              	.LFB155:
 155:/home/dat/Documents/colir_one/rocket_code/Module/Src/bno055.c ****   HAL_StatusTypeDef status = HAL_OK;
 1318              		.loc 1 155 79 is_stmt 1 view -0
 1319              		.cfi_startproc
 1320              		@ args = 0, pretend = 0, frame = 8
 1321              		@ frame_needed = 0, uses_anonymous_args = 0
 155:/home/dat/Documents/colir_one/rocket_code/Module/Src/bno055.c ****   HAL_StatusTypeDef status = HAL_OK;
 1322              		.loc 1 155 79 is_stmt 0 view .LVU287
 1323 0000 30B5     		push	{r4, r5, lr}
 1324              	.LCFI33:
 1325              		.cfi_def_cfa_offset 12
 1326              		.cfi_offset 4, -12
 1327              		.cfi_offset 5, -8
 1328              		.cfi_offset 14, -4
 1329 0002 83B0     		sub	sp, sp, #12
 1330              	.LCFI34:
 1331              		.cfi_def_cfa_offset 24
 1332 0004 0546     		mov	r5, r0
 156:/home/dat/Documents/colir_one/rocket_code/Module/Src/bno055.c ****   status |= bno055_setPage(0);
 1333              		.loc 1 156 3 is_stmt 1 view .LVU288
 1334              	.LVL148:
 157:/home/dat/Documents/colir_one/rocket_code/Module/Src/bno055.c ****   uint8_t tmp;
 1335              		.loc 1 157 3 view .LVU289
 157:/home/dat/Documents/colir_one/rocket_code/Module/Src/bno055.c ****   uint8_t tmp;
 1336              		.loc 1 157 13 is_stmt 0 view .LVU290
 1337 0006 0020     		movs	r0, #0
 1338              	.LVL149:
 157:/home/dat/Documents/colir_one/rocket_code/Module/Src/bno055.c ****   uint8_t tmp;
 1339              		.loc 1 157 13 view .LVU291
 1340 0008 FFF7FEFF 		bl	bno055_setPage
 1341              	.LVL150:
 1342 000c 0446     		mov	r4, r0
 1343              	.LVL151:
 158:/home/dat/Documents/colir_one/rocket_code/Module/Src/bno055.c ****   status |= bno055_readData(BNO055_ST_RESULT, &tmp, 1);
 1344              		.loc 1 158 3 is_stmt 1 view .LVU292
 159:/home/dat/Documents/colir_one/rocket_code/Module/Src/bno055.c ****   bno055_self_test_result_t _result ={0};
 1345              		.loc 1 159 3 view .LVU293
 159:/home/dat/Documents/colir_one/rocket_code/Module/Src/bno055.c ****   bno055_self_test_result_t _result ={0};
 1346              		.loc 1 159 13 is_stmt 0 view .LVU294
 1347 000e 0122     		movs	r2, #1
 1348 0010 0DF10701 		add	r1, sp, #7
 1349 0014 3620     		movs	r0, #54
 1350 0016 FFF7FEFF 		bl	bno055_readData
 1351              	.LVL152:
 159:/home/dat/Documents/colir_one/rocket_code/Module/Src/bno055.c ****   bno055_self_test_result_t _result ={0};
 1352              		.loc 1 159 10 discriminator 1 view .LVU295
 1353 001a 0443     		orrs	r4, r4, r0
 1354              	.LVL153:
 160:/home/dat/Documents/colir_one/rocket_code/Module/Src/bno055.c ****   _result.mcuState = (tmp >> 3) & 0x01;
 1355              		.loc 1 160 3 is_stmt 1 view .LVU296
ARM GAS  /tmp/cclZauEM.s 			page 33


 160:/home/dat/Documents/colir_one/rocket_code/Module/Src/bno055.c ****   _result.mcuState = (tmp >> 3) & 0x01;
 1356              		.loc 1 160 29 is_stmt 0 view .LVU297
 1357 001c 0023     		movs	r3, #0
 1358 001e 0093     		str	r3, [sp]
 161:/home/dat/Documents/colir_one/rocket_code/Module/Src/bno055.c ****   _result.gyrState = (tmp >> 2) & 0x01;
 1359              		.loc 1 161 3 is_stmt 1 view .LVU298
 161:/home/dat/Documents/colir_one/rocket_code/Module/Src/bno055.c ****   _result.gyrState = (tmp >> 2) & 0x01;
 1360              		.loc 1 161 33 is_stmt 0 view .LVU299
 1361 0020 9DF80730 		ldrb	r3, [sp, #7]	@ zero_extendqisi2
 1362 0024 C3F3C002 		ubfx	r2, r3, #3, #1
 161:/home/dat/Documents/colir_one/rocket_code/Module/Src/bno055.c ****   _result.gyrState = (tmp >> 2) & 0x01;
 1363              		.loc 1 161 20 view .LVU300
 1364 0028 8DF80020 		strb	r2, [sp]
 162:/home/dat/Documents/colir_one/rocket_code/Module/Src/bno055.c ****   _result.magState = (tmp >> 1) & 0x01;
 1365              		.loc 1 162 3 is_stmt 1 view .LVU301
 162:/home/dat/Documents/colir_one/rocket_code/Module/Src/bno055.c ****   _result.magState = (tmp >> 1) & 0x01;
 1366              		.loc 1 162 33 is_stmt 0 view .LVU302
 1367 002c C3F38002 		ubfx	r2, r3, #2, #1
 162:/home/dat/Documents/colir_one/rocket_code/Module/Src/bno055.c ****   _result.magState = (tmp >> 1) & 0x01;
 1368              		.loc 1 162 20 view .LVU303
 1369 0030 8DF80120 		strb	r2, [sp, #1]
 163:/home/dat/Documents/colir_one/rocket_code/Module/Src/bno055.c ****   _result.accState = (tmp >> 0) & 0x01;
 1370              		.loc 1 163 3 is_stmt 1 view .LVU304
 163:/home/dat/Documents/colir_one/rocket_code/Module/Src/bno055.c ****   _result.accState = (tmp >> 0) & 0x01;
 1371              		.loc 1 163 33 is_stmt 0 view .LVU305
 1372 0034 C3F34002 		ubfx	r2, r3, #1, #1
 163:/home/dat/Documents/colir_one/rocket_code/Module/Src/bno055.c ****   _result.accState = (tmp >> 0) & 0x01;
 1373              		.loc 1 163 20 view .LVU306
 1374 0038 8DF80220 		strb	r2, [sp, #2]
 164:/home/dat/Documents/colir_one/rocket_code/Module/Src/bno055.c **** 
 1375              		.loc 1 164 3 is_stmt 1 view .LVU307
 164:/home/dat/Documents/colir_one/rocket_code/Module/Src/bno055.c **** 
 1376              		.loc 1 164 33 is_stmt 0 view .LVU308
 1377 003c 03F00103 		and	r3, r3, #1
 164:/home/dat/Documents/colir_one/rocket_code/Module/Src/bno055.c **** 
 1378              		.loc 1 164 20 view .LVU309
 1379 0040 8DF80330 		strb	r3, [sp, #3]
 166:/home/dat/Documents/colir_one/rocket_code/Module/Src/bno055.c ****   return status;
 1380              		.loc 1 166 3 is_stmt 1 view .LVU310
 166:/home/dat/Documents/colir_one/rocket_code/Module/Src/bno055.c ****   return status;
 1381              		.loc 1 166 11 is_stmt 0 view .LVU311
 1382 0044 0098     		ldr	r0, [sp]
 1383 0046 2860     		str	r0, [r5]	@ unaligned
 167:/home/dat/Documents/colir_one/rocket_code/Module/Src/bno055.c **** }
 1384              		.loc 1 167 3 is_stmt 1 view .LVU312
 168:/home/dat/Documents/colir_one/rocket_code/Module/Src/bno055.c **** 
 1385              		.loc 1 168 1 is_stmt 0 view .LVU313
 1386 0048 E0B2     		uxtb	r0, r4
 1387 004a 03B0     		add	sp, sp, #12
 1388              	.LCFI35:
 1389              		.cfi_def_cfa_offset 12
 1390              		@ sp needed
 1391 004c 30BD     		pop	{r4, r5, pc}
 168:/home/dat/Documents/colir_one/rocket_code/Module/Src/bno055.c **** 
 1392              		.loc 1 168 1 view .LVU314
 1393              		.cfi_endproc
 1394              	.LFE155:
ARM GAS  /tmp/cclZauEM.s 			page 34


 1396              		.section	.text.bno055_getSystemError,"ax",%progbits
 1397              		.align	1
 1398              		.global	bno055_getSystemError
 1399              		.syntax unified
 1400              		.thumb
 1401              		.thumb_func
 1403              	bno055_getSystemError:
 1404              	.LVL154:
 1405              	.LFB156:
 170:/home/dat/Documents/colir_one/rocket_code/Module/Src/bno055.c ****   HAL_StatusTypeDef status = HAL_OK;
 1406              		.loc 1 170 60 is_stmt 1 view -0
 1407              		.cfi_startproc
 1408              		@ args = 0, pretend = 0, frame = 0
 1409              		@ frame_needed = 0, uses_anonymous_args = 0
 170:/home/dat/Documents/colir_one/rocket_code/Module/Src/bno055.c ****   HAL_StatusTypeDef status = HAL_OK;
 1410              		.loc 1 170 60 is_stmt 0 view .LVU316
 1411 0000 38B5     		push	{r3, r4, r5, lr}
 1412              	.LCFI36:
 1413              		.cfi_def_cfa_offset 16
 1414              		.cfi_offset 3, -16
 1415              		.cfi_offset 4, -12
 1416              		.cfi_offset 5, -8
 1417              		.cfi_offset 14, -4
 1418 0002 0546     		mov	r5, r0
 171:/home/dat/Documents/colir_one/rocket_code/Module/Src/bno055.c ****   status |= bno055_setPage(0);
 1419              		.loc 1 171 3 is_stmt 1 view .LVU317
 1420              	.LVL155:
 172:/home/dat/Documents/colir_one/rocket_code/Module/Src/bno055.c ****   status |= bno055_readData(BNO055_SYS_ERR, sysError, 1);
 1421              		.loc 1 172 3 view .LVU318
 172:/home/dat/Documents/colir_one/rocket_code/Module/Src/bno055.c ****   status |= bno055_readData(BNO055_SYS_ERR, sysError, 1);
 1422              		.loc 1 172 13 is_stmt 0 view .LVU319
 1423 0004 0020     		movs	r0, #0
 1424              	.LVL156:
 172:/home/dat/Documents/colir_one/rocket_code/Module/Src/bno055.c ****   status |= bno055_readData(BNO055_SYS_ERR, sysError, 1);
 1425              		.loc 1 172 13 view .LVU320
 1426 0006 FFF7FEFF 		bl	bno055_setPage
 1427              	.LVL157:
 1428 000a 0446     		mov	r4, r0
 1429              	.LVL158:
 173:/home/dat/Documents/colir_one/rocket_code/Module/Src/bno055.c ****   return status;
 1430              		.loc 1 173 3 is_stmt 1 view .LVU321
 173:/home/dat/Documents/colir_one/rocket_code/Module/Src/bno055.c ****   return status;
 1431              		.loc 1 173 13 is_stmt 0 view .LVU322
 1432 000c 0122     		movs	r2, #1
 1433 000e 2946     		mov	r1, r5
 1434 0010 3A20     		movs	r0, #58
 1435 0012 FFF7FEFF 		bl	bno055_readData
 1436              	.LVL159:
 173:/home/dat/Documents/colir_one/rocket_code/Module/Src/bno055.c ****   return status;
 1437              		.loc 1 173 10 discriminator 1 view .LVU323
 1438 0016 2043     		orrs	r0, r0, r4
 1439              	.LVL160:
 174:/home/dat/Documents/colir_one/rocket_code/Module/Src/bno055.c **** }
 1440              		.loc 1 174 3 is_stmt 1 view .LVU324
 175:/home/dat/Documents/colir_one/rocket_code/Module/Src/bno055.c **** 
 1441              		.loc 1 175 1 is_stmt 0 view .LVU325
 1442 0018 C0B2     		uxtb	r0, r0
ARM GAS  /tmp/cclZauEM.s 			page 35


 175:/home/dat/Documents/colir_one/rocket_code/Module/Src/bno055.c **** 
 1443              		.loc 1 175 1 view .LVU326
 1444 001a 38BD     		pop	{r3, r4, r5, pc}
 175:/home/dat/Documents/colir_one/rocket_code/Module/Src/bno055.c **** 
 1445              		.loc 1 175 1 view .LVU327
 1446              		.cfi_endproc
 1447              	.LFE156:
 1449              		.section	.text.bno055_getCalibrationState,"ax",%progbits
 1450              		.align	1
 1451              		.global	bno055_getCalibrationState
 1452              		.syntax unified
 1453              		.thumb
 1454              		.thumb_func
 1456              	bno055_getCalibrationState:
 1457              	.LVL161:
 1458              	.LFB157:
 177:/home/dat/Documents/colir_one/rocket_code/Module/Src/bno055.c ****   HAL_StatusTypeDef status = HAL_OK;
 1459              		.loc 1 177 84 is_stmt 1 view -0
 1460              		.cfi_startproc
 1461              		@ args = 0, pretend = 0, frame = 8
 1462              		@ frame_needed = 0, uses_anonymous_args = 0
 177:/home/dat/Documents/colir_one/rocket_code/Module/Src/bno055.c ****   HAL_StatusTypeDef status = HAL_OK;
 1463              		.loc 1 177 84 is_stmt 0 view .LVU329
 1464 0000 30B5     		push	{r4, r5, lr}
 1465              	.LCFI37:
 1466              		.cfi_def_cfa_offset 12
 1467              		.cfi_offset 4, -12
 1468              		.cfi_offset 5, -8
 1469              		.cfi_offset 14, -4
 1470 0002 83B0     		sub	sp, sp, #12
 1471              	.LCFI38:
 1472              		.cfi_def_cfa_offset 24
 1473 0004 0546     		mov	r5, r0
 178:/home/dat/Documents/colir_one/rocket_code/Module/Src/bno055.c ****   status |= bno055_setPage(0);
 1474              		.loc 1 178 3 is_stmt 1 view .LVU330
 1475              	.LVL162:
 179:/home/dat/Documents/colir_one/rocket_code/Module/Src/bno055.c ****   bno055_calibration_state_t _calState = {.sys = 0, .gyro = 0, .mag = 0, .accel = 0};
 1476              		.loc 1 179 3 view .LVU331
 179:/home/dat/Documents/colir_one/rocket_code/Module/Src/bno055.c ****   bno055_calibration_state_t _calState = {.sys = 0, .gyro = 0, .mag = 0, .accel = 0};
 1477              		.loc 1 179 13 is_stmt 0 view .LVU332
 1478 0006 0020     		movs	r0, #0
 1479              	.LVL163:
 179:/home/dat/Documents/colir_one/rocket_code/Module/Src/bno055.c ****   bno055_calibration_state_t _calState = {.sys = 0, .gyro = 0, .mag = 0, .accel = 0};
 1480              		.loc 1 179 13 view .LVU333
 1481 0008 FFF7FEFF 		bl	bno055_setPage
 1482              	.LVL164:
 1483 000c 0446     		mov	r4, r0
 1484              	.LVL165:
 180:/home/dat/Documents/colir_one/rocket_code/Module/Src/bno055.c ****   uint8_t tmp = 0;
 1485              		.loc 1 180 3 is_stmt 1 view .LVU334
 180:/home/dat/Documents/colir_one/rocket_code/Module/Src/bno055.c ****   uint8_t tmp = 0;
 1486              		.loc 1 180 30 is_stmt 0 view .LVU335
 1487 000e 0023     		movs	r3, #0
 1488 0010 0193     		str	r3, [sp, #4]
 181:/home/dat/Documents/colir_one/rocket_code/Module/Src/bno055.c ****   status |= bno055_readData(BNO055_CALIB_STAT, &tmp, 1);
 1489              		.loc 1 181 3 is_stmt 1 view .LVU336
 181:/home/dat/Documents/colir_one/rocket_code/Module/Src/bno055.c ****   status |= bno055_readData(BNO055_CALIB_STAT, &tmp, 1);
ARM GAS  /tmp/cclZauEM.s 			page 36


 1490              		.loc 1 181 11 is_stmt 0 view .LVU337
 1491 0012 8DF80330 		strb	r3, [sp, #3]
 182:/home/dat/Documents/colir_one/rocket_code/Module/Src/bno055.c ****   _calState.sys = (tmp >> 6) & 0x03;
 1492              		.loc 1 182 3 is_stmt 1 view .LVU338
 182:/home/dat/Documents/colir_one/rocket_code/Module/Src/bno055.c ****   _calState.sys = (tmp >> 6) & 0x03;
 1493              		.loc 1 182 13 is_stmt 0 view .LVU339
 1494 0016 0122     		movs	r2, #1
 1495 0018 0DF10301 		add	r1, sp, #3
 1496 001c 3520     		movs	r0, #53
 1497 001e FFF7FEFF 		bl	bno055_readData
 1498              	.LVL166:
 182:/home/dat/Documents/colir_one/rocket_code/Module/Src/bno055.c ****   _calState.sys = (tmp >> 6) & 0x03;
 1499              		.loc 1 182 10 discriminator 1 view .LVU340
 1500 0022 0443     		orrs	r4, r4, r0
 1501              	.LVL167:
 183:/home/dat/Documents/colir_one/rocket_code/Module/Src/bno055.c ****   _calState.gyro = (tmp >> 4) & 0x03;
 1502              		.loc 1 183 3 is_stmt 1 view .LVU341
 183:/home/dat/Documents/colir_one/rocket_code/Module/Src/bno055.c ****   _calState.gyro = (tmp >> 4) & 0x03;
 1503              		.loc 1 183 17 is_stmt 0 view .LVU342
 1504 0024 9DF80330 		ldrb	r3, [sp, #3]	@ zero_extendqisi2
 1505 0028 9A09     		lsrs	r2, r3, #6
 1506 002a 8DF80420 		strb	r2, [sp, #4]
 184:/home/dat/Documents/colir_one/rocket_code/Module/Src/bno055.c ****   _calState.accel = (tmp >> 2) & 0x03;
 1507              		.loc 1 184 3 is_stmt 1 view .LVU343
 184:/home/dat/Documents/colir_one/rocket_code/Module/Src/bno055.c ****   _calState.accel = (tmp >> 2) & 0x03;
 1508              		.loc 1 184 31 is_stmt 0 view .LVU344
 1509 002e C3F30112 		ubfx	r2, r3, #4, #2
 184:/home/dat/Documents/colir_one/rocket_code/Module/Src/bno055.c ****   _calState.accel = (tmp >> 2) & 0x03;
 1510              		.loc 1 184 18 view .LVU345
 1511 0032 8DF80520 		strb	r2, [sp, #5]
 185:/home/dat/Documents/colir_one/rocket_code/Module/Src/bno055.c ****   _calState.mag = tmp & 0x03;
 1512              		.loc 1 185 3 is_stmt 1 view .LVU346
 185:/home/dat/Documents/colir_one/rocket_code/Module/Src/bno055.c ****   _calState.mag = tmp & 0x03;
 1513              		.loc 1 185 32 is_stmt 0 view .LVU347
 1514 0036 C3F38102 		ubfx	r2, r3, #2, #2
 185:/home/dat/Documents/colir_one/rocket_code/Module/Src/bno055.c ****   _calState.mag = tmp & 0x03;
 1515              		.loc 1 185 19 view .LVU348
 1516 003a 8DF80720 		strb	r2, [sp, #7]
 186:/home/dat/Documents/colir_one/rocket_code/Module/Src/bno055.c **** 
 1517              		.loc 1 186 3 is_stmt 1 view .LVU349
 186:/home/dat/Documents/colir_one/rocket_code/Module/Src/bno055.c **** 
 1518              		.loc 1 186 23 is_stmt 0 view .LVU350
 1519 003e 03F00303 		and	r3, r3, #3
 186:/home/dat/Documents/colir_one/rocket_code/Module/Src/bno055.c **** 
 1520              		.loc 1 186 17 view .LVU351
 1521 0042 8DF80630 		strb	r3, [sp, #6]
 188:/home/dat/Documents/colir_one/rocket_code/Module/Src/bno055.c ****   return status;
 1522              		.loc 1 188 3 is_stmt 1 view .LVU352
 188:/home/dat/Documents/colir_one/rocket_code/Module/Src/bno055.c ****   return status;
 1523              		.loc 1 188 13 is_stmt 0 view .LVU353
 1524 0046 0198     		ldr	r0, [sp, #4]
 1525 0048 2860     		str	r0, [r5]	@ unaligned
 189:/home/dat/Documents/colir_one/rocket_code/Module/Src/bno055.c **** }
 1526              		.loc 1 189 3 is_stmt 1 view .LVU354
 190:/home/dat/Documents/colir_one/rocket_code/Module/Src/bno055.c **** 
 1527              		.loc 1 190 1 is_stmt 0 view .LVU355
 1528 004a E0B2     		uxtb	r0, r4
ARM GAS  /tmp/cclZauEM.s 			page 37


 1529 004c 03B0     		add	sp, sp, #12
 1530              	.LCFI39:
 1531              		.cfi_def_cfa_offset 12
 1532              		@ sp needed
 1533 004e 30BD     		pop	{r4, r5, pc}
 190:/home/dat/Documents/colir_one/rocket_code/Module/Src/bno055.c **** 
 1534              		.loc 1 190 1 view .LVU356
 1535              		.cfi_endproc
 1536              	.LFE157:
 1538              		.section	.text.bno055_getCalibrationData,"ax",%progbits
 1539              		.align	1
 1540              		.global	bno055_getCalibrationData
 1541              		.syntax unified
 1542              		.thumb
 1543              		.thumb_func
 1545              	bno055_getCalibrationData:
 1546              	.LVL168:
 1547              	.LFB158:
 193:/home/dat/Documents/colir_one/rocket_code/Module/Src/bno055.c ****   bno055_calibration_data_t _calData;
 1548              		.loc 1 193 81 is_stmt 1 view -0
 1549              		.cfi_startproc
 1550              		@ args = 0, pretend = 0, frame = 56
 1551              		@ frame_needed = 0, uses_anonymous_args = 0
 193:/home/dat/Documents/colir_one/rocket_code/Module/Src/bno055.c ****   bno055_calibration_data_t _calData;
 1552              		.loc 1 193 81 is_stmt 0 view .LVU358
 1553 0000 70B5     		push	{r4, r5, r6, lr}
 1554              	.LCFI40:
 1555              		.cfi_def_cfa_offset 16
 1556              		.cfi_offset 4, -16
 1557              		.cfi_offset 5, -12
 1558              		.cfi_offset 6, -8
 1559              		.cfi_offset 14, -4
 1560 0002 8EB0     		sub	sp, sp, #56
 1561              	.LCFI41:
 1562              		.cfi_def_cfa_offset 72
 1563 0004 0546     		mov	r5, r0
 194:/home/dat/Documents/colir_one/rocket_code/Module/Src/bno055.c ****   HAL_StatusTypeDef status = HAL_OK;
 1564              		.loc 1 194 3 is_stmt 1 view .LVU359
 195:/home/dat/Documents/colir_one/rocket_code/Module/Src/bno055.c ****   uint8_t buffer[22];
 1565              		.loc 1 195 3 view .LVU360
 1566              	.LVL169:
 196:/home/dat/Documents/colir_one/rocket_code/Module/Src/bno055.c ****   bno055_opmode_t operationMode = {0}; 
 1567              		.loc 1 196 3 view .LVU361
 197:/home/dat/Documents/colir_one/rocket_code/Module/Src/bno055.c ****   status |= bno055_getOperationMode(&operationMode);
 1568              		.loc 1 197 3 view .LVU362
 197:/home/dat/Documents/colir_one/rocket_code/Module/Src/bno055.c ****   status |= bno055_getOperationMode(&operationMode);
 1569              		.loc 1 197 19 is_stmt 0 view .LVU363
 1570 0006 0026     		movs	r6, #0
 1571 0008 8DF80760 		strb	r6, [sp, #7]
 198:/home/dat/Documents/colir_one/rocket_code/Module/Src/bno055.c ****   status |= bno055_setOperationModeConfig();
 1572              		.loc 1 198 3 is_stmt 1 view .LVU364
 198:/home/dat/Documents/colir_one/rocket_code/Module/Src/bno055.c ****   status |= bno055_setOperationModeConfig();
 1573              		.loc 1 198 13 is_stmt 0 view .LVU365
 1574 000c 0DF10700 		add	r0, sp, #7
 1575              	.LVL170:
 198:/home/dat/Documents/colir_one/rocket_code/Module/Src/bno055.c ****   status |= bno055_setOperationModeConfig();
 1576              		.loc 1 198 13 view .LVU366
ARM GAS  /tmp/cclZauEM.s 			page 38


 1577 0010 FFF7FEFF 		bl	bno055_getOperationMode
 1578              	.LVL171:
 1579 0014 0446     		mov	r4, r0
 1580              	.LVL172:
 199:/home/dat/Documents/colir_one/rocket_code/Module/Src/bno055.c ****   status |= bno055_setPage(0);
 1581              		.loc 1 199 3 is_stmt 1 view .LVU367
 199:/home/dat/Documents/colir_one/rocket_code/Module/Src/bno055.c ****   status |= bno055_setPage(0);
 1582              		.loc 1 199 13 is_stmt 0 view .LVU368
 1583 0016 FFF7FEFF 		bl	bno055_setOperationModeConfig
 1584              	.LVL173:
 199:/home/dat/Documents/colir_one/rocket_code/Module/Src/bno055.c ****   status |= bno055_setPage(0);
 1585              		.loc 1 199 10 discriminator 1 view .LVU369
 1586 001a 0443     		orrs	r4, r4, r0
 1587              	.LVL174:
 199:/home/dat/Documents/colir_one/rocket_code/Module/Src/bno055.c ****   status |= bno055_setPage(0);
 1588              		.loc 1 199 10 discriminator 1 view .LVU370
 1589 001c E4B2     		uxtb	r4, r4
 1590              	.LVL175:
 200:/home/dat/Documents/colir_one/rocket_code/Module/Src/bno055.c **** 
 1591              		.loc 1 200 3 is_stmt 1 view .LVU371
 200:/home/dat/Documents/colir_one/rocket_code/Module/Src/bno055.c **** 
 1592              		.loc 1 200 13 is_stmt 0 view .LVU372
 1593 001e 3046     		mov	r0, r6
 1594 0020 FFF7FEFF 		bl	bno055_setPage
 1595              	.LVL176:
 200:/home/dat/Documents/colir_one/rocket_code/Module/Src/bno055.c **** 
 1596              		.loc 1 200 10 discriminator 1 view .LVU373
 1597 0024 0443     		orrs	r4, r4, r0
 1598              	.LVL177:
 200:/home/dat/Documents/colir_one/rocket_code/Module/Src/bno055.c **** 
 1599              		.loc 1 200 10 discriminator 1 view .LVU374
 1600 0026 E4B2     		uxtb	r4, r4
 1601              	.LVL178:
 202:/home/dat/Documents/colir_one/rocket_code/Module/Src/bno055.c **** 
 1602              		.loc 1 202 3 is_stmt 1 view .LVU375
 202:/home/dat/Documents/colir_one/rocket_code/Module/Src/bno055.c **** 
 1603              		.loc 1 202 13 is_stmt 0 view .LVU376
 1604 0028 02AE     		add	r6, sp, #8
 1605 002a 1622     		movs	r2, #22
 1606 002c 3146     		mov	r1, r6
 1607 002e 5520     		movs	r0, #85
 1608 0030 FFF7FEFF 		bl	bno055_readData
 1609              	.LVL179:
 202:/home/dat/Documents/colir_one/rocket_code/Module/Src/bno055.c **** 
 1610              		.loc 1 202 10 discriminator 1 view .LVU377
 1611 0034 0443     		orrs	r4, r4, r0
 1612              	.LVL180:
 202:/home/dat/Documents/colir_one/rocket_code/Module/Src/bno055.c **** 
 1613              		.loc 1 202 10 discriminator 1 view .LVU378
 1614 0036 E4B2     		uxtb	r4, r4
 1615              	.LVL181:
 205:/home/dat/Documents/colir_one/rocket_code/Module/Src/bno055.c ****   memcpy(&_calData.offset.mag, buffer + 6, 6);
 1616              		.loc 1 205 3 is_stmt 1 view .LVU379
 1617 0038 96E80300 		ldm	r6, {r0, r1}
 1618 003c 0B90     		str	r0, [sp, #44]
 1619 003e ADF83010 		strh	r1, [sp, #48]	@ movhi
 206:/home/dat/Documents/colir_one/rocket_code/Module/Src/bno055.c ****   memcpy(&_calData.offset.gyro, buffer + 12, 6);
ARM GAS  /tmp/cclZauEM.s 			page 39


 1620              		.loc 1 206 3 view .LVU380
 1621 0042 DDF80E30 		ldr	r3, [sp, #14]	@ unaligned
 1622 0046 CDF82630 		str	r3, [sp, #38]	@ unaligned
 1623 004a BDF81230 		ldrh	r3, [sp, #18]	@ unaligned
 1624 004e ADF82A30 		strh	r3, [sp, #42]	@ unaligned
 207:/home/dat/Documents/colir_one/rocket_code/Module/Src/bno055.c ****   memcpy(&_calData.radius.accel, buffer + 18, 2);
 1625              		.loc 1 207 3 view .LVU381
 1626 0052 05AB     		add	r3, sp, #20
 1627 0054 93E80300 		ldm	r3, {r0, r1}
 1628 0058 0890     		str	r0, [sp, #32]
 1629 005a ADF82410 		strh	r1, [sp, #36]	@ movhi
 208:/home/dat/Documents/colir_one/rocket_code/Module/Src/bno055.c ****   memcpy(&_calData.radius.mag, buffer + 20, 2);
 1630              		.loc 1 208 3 view .LVU382
 1631 005e BDF81A30 		ldrh	r3, [sp, #26]
 1632 0062 ADF83430 		strh	r3, [sp, #52]	@ movhi
 209:/home/dat/Documents/colir_one/rocket_code/Module/Src/bno055.c **** 
 1633              		.loc 1 209 3 view .LVU383
 1634 0066 BDF81C30 		ldrh	r3, [sp, #28]
 1635 006a ADF83230 		strh	r3, [sp, #50]	@ movhi
 211:/home/dat/Documents/colir_one/rocket_code/Module/Src/bno055.c **** 
 1636              		.loc 1 211 3 view .LVU384
 211:/home/dat/Documents/colir_one/rocket_code/Module/Src/bno055.c **** 
 1637              		.loc 1 211 12 is_stmt 0 view .LVU385
 1638 006e 0DF1200C 		add	ip, sp, #32
 1639 0072 BCE80F00 		ldmia	ip!, {r0, r1, r2, r3}
 1640 0076 2860     		str	r0, [r5]	@ unaligned
 1641 0078 6960     		str	r1, [r5, #4]	@ unaligned
 1642 007a AA60     		str	r2, [r5, #8]	@ unaligned
 1643 007c EB60     		str	r3, [r5, #12]	@ unaligned
 1644 007e DCF80000 		ldr	r0, [ip]
 1645 0082 2861     		str	r0, [r5, #16]	@ unaligned
 1646 0084 BCF80430 		ldrh	r3, [ip, #4]	@ unaligned
 1647 0088 AB82     		strh	r3, [r5, #20]	@ unaligned
 213:/home/dat/Documents/colir_one/rocket_code/Module/Src/bno055.c **** 
 1648              		.loc 1 213 3 is_stmt 1 view .LVU386
 1649 008a 9DF80700 		ldrb	r0, [sp, #7]	@ zero_extendqisi2
 1650 008e FFF7FEFF 		bl	bno055_setOperationMode
 1651              	.LVL182:
 215:/home/dat/Documents/colir_one/rocket_code/Module/Src/bno055.c **** }
 1652              		.loc 1 215 3 view .LVU387
 216:/home/dat/Documents/colir_one/rocket_code/Module/Src/bno055.c **** 
 1653              		.loc 1 216 1 is_stmt 0 view .LVU388
 1654 0092 2046     		mov	r0, r4
 1655 0094 0EB0     		add	sp, sp, #56
 1656              	.LCFI42:
 1657              		.cfi_def_cfa_offset 16
 1658              		@ sp needed
 1659 0096 70BD     		pop	{r4, r5, r6, pc}
 216:/home/dat/Documents/colir_one/rocket_code/Module/Src/bno055.c **** 
 1660              		.loc 1 216 1 view .LVU389
 1661              		.cfi_endproc
 1662              	.LFE158:
 1664              		.section	.text.bno055_setCalibrationData,"ax",%progbits
 1665              		.align	1
 1666              		.global	bno055_setCalibrationData
 1667              		.syntax unified
 1668              		.thumb
ARM GAS  /tmp/cclZauEM.s 			page 40


 1669              		.thumb_func
 1671              	bno055_setCalibrationData:
 1672              	.LFB159:
 218:/home/dat/Documents/colir_one/rocket_code/Module/Src/bno055.c ****   HAL_StatusTypeDef status = HAL_OK;
 1673              		.loc 1 218 80 is_stmt 1 view -0
 1674              		.cfi_startproc
 1675              		@ args = 24, pretend = 16, frame = 32
 1676              		@ frame_needed = 0, uses_anonymous_args = 0
 1677 0000 84B0     		sub	sp, sp, #16
 1678              	.LCFI43:
 1679              		.cfi_def_cfa_offset 16
 1680 0002 30B5     		push	{r4, r5, lr}
 1681              	.LCFI44:
 1682              		.cfi_def_cfa_offset 28
 1683              		.cfi_offset 4, -28
 1684              		.cfi_offset 5, -24
 1685              		.cfi_offset 14, -20
 1686 0004 89B0     		sub	sp, sp, #36
 1687              	.LCFI45:
 1688              		.cfi_def_cfa_offset 64
 1689 0006 0CAC     		add	r4, sp, #48
 1690 0008 84E80F00 		stm	r4, {r0, r1, r2, r3}
 219:/home/dat/Documents/colir_one/rocket_code/Module/Src/bno055.c ****   uint8_t buffer[22];
 1691              		.loc 1 219 3 view .LVU391
 1692              	.LVL183:
 220:/home/dat/Documents/colir_one/rocket_code/Module/Src/bno055.c ****   bno055_opmode_t operationMode = {0};
 1693              		.loc 1 220 3 view .LVU392
 221:/home/dat/Documents/colir_one/rocket_code/Module/Src/bno055.c ****   status |= bno055_getOperationMode(&operationMode);
 1694              		.loc 1 221 3 view .LVU393
 221:/home/dat/Documents/colir_one/rocket_code/Module/Src/bno055.c ****   status |= bno055_getOperationMode(&operationMode);
 1695              		.loc 1 221 19 is_stmt 0 view .LVU394
 1696 000c 0024     		movs	r4, #0
 1697 000e 8DF80740 		strb	r4, [sp, #7]
 222:/home/dat/Documents/colir_one/rocket_code/Module/Src/bno055.c ****   status |= bno055_setOperationModeConfig();
 1698              		.loc 1 222 3 is_stmt 1 view .LVU395
 222:/home/dat/Documents/colir_one/rocket_code/Module/Src/bno055.c ****   status |= bno055_setOperationModeConfig();
 1699              		.loc 1 222 13 is_stmt 0 view .LVU396
 1700 0012 0DF10700 		add	r0, sp, #7
 1701 0016 FFF7FEFF 		bl	bno055_getOperationMode
 1702              	.LVL184:
 1703 001a 0546     		mov	r5, r0
 1704              	.LVL185:
 223:/home/dat/Documents/colir_one/rocket_code/Module/Src/bno055.c ****   status |= bno055_setPage(0);
 1705              		.loc 1 223 3 is_stmt 1 view .LVU397
 223:/home/dat/Documents/colir_one/rocket_code/Module/Src/bno055.c ****   status |= bno055_setPage(0);
 1706              		.loc 1 223 13 is_stmt 0 view .LVU398
 1707 001c FFF7FEFF 		bl	bno055_setOperationModeConfig
 1708              	.LVL186:
 223:/home/dat/Documents/colir_one/rocket_code/Module/Src/bno055.c ****   status |= bno055_setPage(0);
 1709              		.loc 1 223 10 discriminator 1 view .LVU399
 1710 0020 0543     		orrs	r5, r5, r0
 1711              	.LVL187:
 223:/home/dat/Documents/colir_one/rocket_code/Module/Src/bno055.c ****   status |= bno055_setPage(0);
 1712              		.loc 1 223 10 discriminator 1 view .LVU400
 1713 0022 EDB2     		uxtb	r5, r5
 1714              	.LVL188:
 224:/home/dat/Documents/colir_one/rocket_code/Module/Src/bno055.c **** 
ARM GAS  /tmp/cclZauEM.s 			page 41


 1715              		.loc 1 224 3 is_stmt 1 view .LVU401
 224:/home/dat/Documents/colir_one/rocket_code/Module/Src/bno055.c **** 
 1716              		.loc 1 224 13 is_stmt 0 view .LVU402
 1717 0024 2046     		mov	r0, r4
 1718 0026 FFF7FEFF 		bl	bno055_setPage
 1719              	.LVL189:
 224:/home/dat/Documents/colir_one/rocket_code/Module/Src/bno055.c **** 
 1720              		.loc 1 224 10 discriminator 1 view .LVU403
 1721 002a 0543     		orrs	r5, r5, r0
 1722              	.LVL190:
 224:/home/dat/Documents/colir_one/rocket_code/Module/Src/bno055.c **** 
 1723              		.loc 1 224 10 discriminator 1 view .LVU404
 1724 002c EDB2     		uxtb	r5, r5
 1725              	.LVL191:
 227:/home/dat/Documents/colir_one/rocket_code/Module/Src/bno055.c ****   memcpy(buffer + 6, &calData.offset.mag, 6);
 1726              		.loc 1 227 3 is_stmt 1 view .LVU405
 1727 002e 0F98     		ldr	r0, [sp, #60]	@ unaligned
 1728 0030 0290     		str	r0, [sp, #8]
 1729 0032 BDF84030 		ldrh	r3, [sp, #64]	@ unaligned
 1730 0036 ADF80C30 		strh	r3, [sp, #12]	@ unaligned
 228:/home/dat/Documents/colir_one/rocket_code/Module/Src/bno055.c ****   memcpy(buffer + 12, &calData.offset.gyro, 6);
 1731              		.loc 1 228 3 view .LVU406
 1732 003a DDF83630 		ldr	r3, [sp, #54]	@ unaligned
 1733 003e CDF80E30 		str	r3, [sp, #14]	@ unaligned
 1734 0042 BDF83A30 		ldrh	r3, [sp, #58]	@ unaligned
 1735 0046 ADF81230 		strh	r3, [sp, #18]	@ unaligned
 229:/home/dat/Documents/colir_one/rocket_code/Module/Src/bno055.c ****   memcpy(buffer + 18, &calData.radius.accel, 2);
 1736              		.loc 1 229 3 view .LVU407
 1737 004a 0C98     		ldr	r0, [sp, #48]	@ unaligned
 1738 004c 0590     		str	r0, [sp, #20]
 1739 004e BDF83430 		ldrh	r3, [sp, #52]	@ unaligned
 1740 0052 ADF81830 		strh	r3, [sp, #24]	@ unaligned
 230:/home/dat/Documents/colir_one/rocket_code/Module/Src/bno055.c ****   memcpy(buffer + 20, &calData.radius.mag, 2);
 1741              		.loc 1 230 3 view .LVU408
 1742 0056 BDF84430 		ldrh	r3, [sp, #68]
 1743 005a ADF81A30 		strh	r3, [sp, #26]	@ movhi
 231:/home/dat/Documents/colir_one/rocket_code/Module/Src/bno055.c **** 
 1744              		.loc 1 231 3 view .LVU409
 1745 005e BDF84230 		ldrh	r3, [sp, #66]
 1746 0062 ADF81C30 		strh	r3, [sp, #28]	@ movhi
 233:/home/dat/Documents/colir_one/rocket_code/Module/Src/bno055.c ****     // TODO(oliv4945): create multibytes write
 1747              		.loc 1 233 3 view .LVU410
 1748              	.LBB2:
 233:/home/dat/Documents/colir_one/rocket_code/Module/Src/bno055.c ****     // TODO(oliv4945): create multibytes write
 1749              		.loc 1 233 8 view .LVU411
 1750              	.LVL192:
 233:/home/dat/Documents/colir_one/rocket_code/Module/Src/bno055.c ****     // TODO(oliv4945): create multibytes write
 1751              		.loc 1 233 3 is_stmt 0 view .LVU412
 1752 0066 0DE0     		b	.L77
 1753              	.LVL193:
 1754              	.L78:
 235:/home/dat/Documents/colir_one/rocket_code/Module/Src/bno055.c ****   }
 1755              		.loc 1 235 5 is_stmt 1 view .LVU413
 235:/home/dat/Documents/colir_one/rocket_code/Module/Src/bno055.c ****   }
 1756              		.loc 1 235 15 is_stmt 0 view .LVU414
 1757 0068 04F12003 		add	r3, r4, #32
 1758 006c 6B44     		add	r3, sp, r3
ARM GAS  /tmp/cclZauEM.s 			page 42


 1759 006e 04F15500 		add	r0, r4, #85
 1760 0072 13F8181C 		ldrb	r1, [r3, #-24]	@ zero_extendqisi2
 1761 0076 C0B2     		uxtb	r0, r0
 1762 0078 FFF7FEFF 		bl	bno055_writeData
 1763              	.LVL194:
 235:/home/dat/Documents/colir_one/rocket_code/Module/Src/bno055.c ****   }
 1764              		.loc 1 235 12 discriminator 1 view .LVU415
 1765 007c 2843     		orrs	r0, r0, r5
 1766 007e C5B2     		uxtb	r5, r0
 1767              	.LVL195:
 233:/home/dat/Documents/colir_one/rocket_code/Module/Src/bno055.c ****     // TODO(oliv4945): create multibytes write
 1768              		.loc 1 233 30 is_stmt 1 discriminator 3 view .LVU416
 1769 0080 0134     		adds	r4, r4, #1
 1770              	.LVL196:
 233:/home/dat/Documents/colir_one/rocket_code/Module/Src/bno055.c ****     // TODO(oliv4945): create multibytes write
 1771              		.loc 1 233 30 is_stmt 0 discriminator 3 view .LVU417
 1772 0082 E4B2     		uxtb	r4, r4
 1773              	.LVL197:
 1774              	.L77:
 233:/home/dat/Documents/colir_one/rocket_code/Module/Src/bno055.c ****     // TODO(oliv4945): create multibytes write
 1775              		.loc 1 233 23 is_stmt 1 discriminator 1 view .LVU418
 1776 0084 152C     		cmp	r4, #21
 1777 0086 EFD9     		bls	.L78
 233:/home/dat/Documents/colir_one/rocket_code/Module/Src/bno055.c ****     // TODO(oliv4945): create multibytes write
 1778              		.loc 1 233 23 is_stmt 0 discriminator 1 view .LVU419
 1779              	.LBE2:
 238:/home/dat/Documents/colir_one/rocket_code/Module/Src/bno055.c ****   return status;
 1780              		.loc 1 238 3 is_stmt 1 view .LVU420
 238:/home/dat/Documents/colir_one/rocket_code/Module/Src/bno055.c ****   return status;
 1781              		.loc 1 238 13 is_stmt 0 view .LVU421
 1782 0088 9DF80700 		ldrb	r0, [sp, #7]	@ zero_extendqisi2
 1783 008c FFF7FEFF 		bl	bno055_setOperationMode
 1784              	.LVL198:
 238:/home/dat/Documents/colir_one/rocket_code/Module/Src/bno055.c ****   return status;
 1785              		.loc 1 238 10 discriminator 1 view .LVU422
 1786 0090 2843     		orrs	r0, r0, r5
 1787              	.LVL199:
 239:/home/dat/Documents/colir_one/rocket_code/Module/Src/bno055.c **** }
 1788              		.loc 1 239 3 is_stmt 1 view .LVU423
 240:/home/dat/Documents/colir_one/rocket_code/Module/Src/bno055.c **** 
 1789              		.loc 1 240 1 is_stmt 0 view .LVU424
 1790 0092 C0B2     		uxtb	r0, r0
 240:/home/dat/Documents/colir_one/rocket_code/Module/Src/bno055.c **** 
 1791              		.loc 1 240 1 view .LVU425
 1792 0094 09B0     		add	sp, sp, #36
 1793              	.LCFI46:
 1794              		.cfi_def_cfa_offset 28
 1795              		@ sp needed
 1796 0096 BDE83040 		pop	{r4, r5, lr}
 1797              	.LCFI47:
 1798              		.cfi_restore 14
 1799              		.cfi_restore 5
 1800              		.cfi_restore 4
 1801              		.cfi_def_cfa_offset 16
 1802              	.LVL200:
 240:/home/dat/Documents/colir_one/rocket_code/Module/Src/bno055.c **** 
 1803              		.loc 1 240 1 view .LVU426
ARM GAS  /tmp/cclZauEM.s 			page 43


 1804 009a 04B0     		add	sp, sp, #16
 1805              	.LCFI48:
 1806              		.cfi_def_cfa_offset 0
 1807 009c 7047     		bx	lr
 1808              		.cfi_endproc
 1809              	.LFE159:
 1811              		.section	.text.bno055_getVectorAccelerometer,"ax",%progbits
 1812              		.align	1
 1813              		.global	bno055_getVectorAccelerometer
 1814              		.syntax unified
 1815              		.thumb
 1816              		.thumb_func
 1818              	bno055_getVectorAccelerometer:
 1819              	.LVL201:
 1820              	.LFB161:
 282:/home/dat/Documents/colir_one/rocket_code/Module/Src/bno055.c **** 
 283:/home/dat/Documents/colir_one/rocket_code/Module/Src/bno055.c **** HAL_StatusTypeDef bno055_getVectorAccelerometer(bno055_vector_t* xyz) {
 1821              		.loc 1 283 71 is_stmt 1 view -0
 1822              		.cfi_startproc
 1823              		@ args = 0, pretend = 0, frame = 0
 1824              		@ frame_needed = 0, uses_anonymous_args = 0
 1825              		.loc 1 283 71 is_stmt 0 view .LVU428
 1826 0000 08B5     		push	{r3, lr}
 1827              	.LCFI49:
 1828              		.cfi_def_cfa_offset 8
 1829              		.cfi_offset 3, -8
 1830              		.cfi_offset 14, -4
 1831 0002 0146     		mov	r1, r0
 284:/home/dat/Documents/colir_one/rocket_code/Module/Src/bno055.c ****   HAL_StatusTypeDef status = bno055_getVector(BNO055_VECTOR_ACCELEROMETER, xyz);
 1832              		.loc 1 284 3 is_stmt 1 view .LVU429
 1833              		.loc 1 284 30 is_stmt 0 view .LVU430
 1834 0004 0820     		movs	r0, #8
 1835              	.LVL202:
 1836              		.loc 1 284 30 view .LVU431
 1837 0006 FFF7FEFF 		bl	bno055_getVector
 1838              	.LVL203:
 285:/home/dat/Documents/colir_one/rocket_code/Module/Src/bno055.c ****   return status;
 1839              		.loc 1 285 3 is_stmt 1 view .LVU432
 286:/home/dat/Documents/colir_one/rocket_code/Module/Src/bno055.c **** }
 1840              		.loc 1 286 1 is_stmt 0 view .LVU433
 1841 000a 08BD     		pop	{r3, pc}
 1842              		.cfi_endproc
 1843              	.LFE161:
 1845              		.section	.text.bno055_getVectorMagnetometer,"ax",%progbits
 1846              		.align	1
 1847              		.global	bno055_getVectorMagnetometer
 1848              		.syntax unified
 1849              		.thumb
 1850              		.thumb_func
 1852              	bno055_getVectorMagnetometer:
 1853              	.LVL204:
 1854              	.LFB162:
 287:/home/dat/Documents/colir_one/rocket_code/Module/Src/bno055.c **** HAL_StatusTypeDef bno055_getVectorMagnetometer(bno055_vector_t* xyz) {
 1855              		.loc 1 287 70 is_stmt 1 view -0
 1856              		.cfi_startproc
 1857              		@ args = 0, pretend = 0, frame = 0
 1858              		@ frame_needed = 0, uses_anonymous_args = 0
ARM GAS  /tmp/cclZauEM.s 			page 44


 1859              		.loc 1 287 70 is_stmt 0 view .LVU435
 1860 0000 08B5     		push	{r3, lr}
 1861              	.LCFI50:
 1862              		.cfi_def_cfa_offset 8
 1863              		.cfi_offset 3, -8
 1864              		.cfi_offset 14, -4
 1865 0002 0146     		mov	r1, r0
 288:/home/dat/Documents/colir_one/rocket_code/Module/Src/bno055.c ****   HAL_StatusTypeDef status = bno055_getVector(BNO055_VECTOR_MAGNETOMETER, xyz);
 1866              		.loc 1 288 3 is_stmt 1 view .LVU436
 1867              		.loc 1 288 30 is_stmt 0 view .LVU437
 1868 0004 0E20     		movs	r0, #14
 1869              	.LVL205:
 1870              		.loc 1 288 30 view .LVU438
 1871 0006 FFF7FEFF 		bl	bno055_getVector
 1872              	.LVL206:
 289:/home/dat/Documents/colir_one/rocket_code/Module/Src/bno055.c ****   return status;
 1873              		.loc 1 289 3 is_stmt 1 view .LVU439
 290:/home/dat/Documents/colir_one/rocket_code/Module/Src/bno055.c **** }
 1874              		.loc 1 290 1 is_stmt 0 view .LVU440
 1875 000a 08BD     		pop	{r3, pc}
 1876              		.cfi_endproc
 1877              	.LFE162:
 1879              		.section	.text.bno055_getVectorGyroscope,"ax",%progbits
 1880              		.align	1
 1881              		.global	bno055_getVectorGyroscope
 1882              		.syntax unified
 1883              		.thumb
 1884              		.thumb_func
 1886              	bno055_getVectorGyroscope:
 1887              	.LVL207:
 1888              	.LFB163:
 291:/home/dat/Documents/colir_one/rocket_code/Module/Src/bno055.c **** HAL_StatusTypeDef bno055_getVectorGyroscope(bno055_vector_t* xyz) {
 1889              		.loc 1 291 67 is_stmt 1 view -0
 1890              		.cfi_startproc
 1891              		@ args = 0, pretend = 0, frame = 0
 1892              		@ frame_needed = 0, uses_anonymous_args = 0
 1893              		.loc 1 291 67 is_stmt 0 view .LVU442
 1894 0000 08B5     		push	{r3, lr}
 1895              	.LCFI51:
 1896              		.cfi_def_cfa_offset 8
 1897              		.cfi_offset 3, -8
 1898              		.cfi_offset 14, -4
 1899 0002 0146     		mov	r1, r0
 292:/home/dat/Documents/colir_one/rocket_code/Module/Src/bno055.c ****   HAL_StatusTypeDef status = bno055_getVector(BNO055_VECTOR_GYROSCOPE, xyz);
 1900              		.loc 1 292 3 is_stmt 1 view .LVU443
 1901              		.loc 1 292 30 is_stmt 0 view .LVU444
 1902 0004 1420     		movs	r0, #20
 1903              	.LVL208:
 1904              		.loc 1 292 30 view .LVU445
 1905 0006 FFF7FEFF 		bl	bno055_getVector
 1906              	.LVL209:
 293:/home/dat/Documents/colir_one/rocket_code/Module/Src/bno055.c ****   return status;
 1907              		.loc 1 293 3 is_stmt 1 view .LVU446
 294:/home/dat/Documents/colir_one/rocket_code/Module/Src/bno055.c **** }
 1908              		.loc 1 294 1 is_stmt 0 view .LVU447
 1909 000a 08BD     		pop	{r3, pc}
 1910              		.cfi_endproc
ARM GAS  /tmp/cclZauEM.s 			page 45


 1911              	.LFE163:
 1913              		.section	.text.bno055_getVectorEuler,"ax",%progbits
 1914              		.align	1
 1915              		.global	bno055_getVectorEuler
 1916              		.syntax unified
 1917              		.thumb
 1918              		.thumb_func
 1920              	bno055_getVectorEuler:
 1921              	.LVL210:
 1922              	.LFB164:
 295:/home/dat/Documents/colir_one/rocket_code/Module/Src/bno055.c **** HAL_StatusTypeDef bno055_getVectorEuler(bno055_vector_t* xyz) {
 1923              		.loc 1 295 63 is_stmt 1 view -0
 1924              		.cfi_startproc
 1925              		@ args = 0, pretend = 0, frame = 0
 1926              		@ frame_needed = 0, uses_anonymous_args = 0
 1927              		.loc 1 295 63 is_stmt 0 view .LVU449
 1928 0000 08B5     		push	{r3, lr}
 1929              	.LCFI52:
 1930              		.cfi_def_cfa_offset 8
 1931              		.cfi_offset 3, -8
 1932              		.cfi_offset 14, -4
 1933 0002 0146     		mov	r1, r0
 296:/home/dat/Documents/colir_one/rocket_code/Module/Src/bno055.c ****   HAL_StatusTypeDef status = bno055_getVector(BNO055_VECTOR_EULER, xyz);
 1934              		.loc 1 296 3 is_stmt 1 view .LVU450
 1935              		.loc 1 296 30 is_stmt 0 view .LVU451
 1936 0004 1A20     		movs	r0, #26
 1937              	.LVL211:
 1938              		.loc 1 296 30 view .LVU452
 1939 0006 FFF7FEFF 		bl	bno055_getVector
 1940              	.LVL212:
 297:/home/dat/Documents/colir_one/rocket_code/Module/Src/bno055.c ****   return status;
 1941              		.loc 1 297 3 is_stmt 1 view .LVU453
 298:/home/dat/Documents/colir_one/rocket_code/Module/Src/bno055.c **** }
 1942              		.loc 1 298 1 is_stmt 0 view .LVU454
 1943 000a 08BD     		pop	{r3, pc}
 1944              		.cfi_endproc
 1945              	.LFE164:
 1947              		.section	.text.bno055_getVectorLinearAccel,"ax",%progbits
 1948              		.align	1
 1949              		.global	bno055_getVectorLinearAccel
 1950              		.syntax unified
 1951              		.thumb
 1952              		.thumb_func
 1954              	bno055_getVectorLinearAccel:
 1955              	.LVL213:
 1956              	.LFB165:
 299:/home/dat/Documents/colir_one/rocket_code/Module/Src/bno055.c **** HAL_StatusTypeDef bno055_getVectorLinearAccel(bno055_vector_t* xyz) {
 1957              		.loc 1 299 69 is_stmt 1 view -0
 1958              		.cfi_startproc
 1959              		@ args = 0, pretend = 0, frame = 0
 1960              		@ frame_needed = 0, uses_anonymous_args = 0
 1961              		.loc 1 299 69 is_stmt 0 view .LVU456
 1962 0000 08B5     		push	{r3, lr}
 1963              	.LCFI53:
 1964              		.cfi_def_cfa_offset 8
 1965              		.cfi_offset 3, -8
 1966              		.cfi_offset 14, -4
ARM GAS  /tmp/cclZauEM.s 			page 46


 1967 0002 0146     		mov	r1, r0
 300:/home/dat/Documents/colir_one/rocket_code/Module/Src/bno055.c ****   HAL_StatusTypeDef status = bno055_getVector(BNO055_VECTOR_LINEARACCEL, xyz);
 1968              		.loc 1 300 3 is_stmt 1 view .LVU457
 1969              		.loc 1 300 30 is_stmt 0 view .LVU458
 1970 0004 2820     		movs	r0, #40
 1971              	.LVL214:
 1972              		.loc 1 300 30 view .LVU459
 1973 0006 FFF7FEFF 		bl	bno055_getVector
 1974              	.LVL215:
 301:/home/dat/Documents/colir_one/rocket_code/Module/Src/bno055.c ****   return status;
 1975              		.loc 1 301 3 is_stmt 1 view .LVU460
 302:/home/dat/Documents/colir_one/rocket_code/Module/Src/bno055.c **** }
 1976              		.loc 1 302 1 is_stmt 0 view .LVU461
 1977 000a 08BD     		pop	{r3, pc}
 1978              		.cfi_endproc
 1979              	.LFE165:
 1981              		.section	.text.bno055_getVectorGravity,"ax",%progbits
 1982              		.align	1
 1983              		.global	bno055_getVectorGravity
 1984              		.syntax unified
 1985              		.thumb
 1986              		.thumb_func
 1988              	bno055_getVectorGravity:
 1989              	.LVL216:
 1990              	.LFB166:
 303:/home/dat/Documents/colir_one/rocket_code/Module/Src/bno055.c **** HAL_StatusTypeDef bno055_getVectorGravity(bno055_vector_t* xyz) {
 1991              		.loc 1 303 65 is_stmt 1 view -0
 1992              		.cfi_startproc
 1993              		@ args = 0, pretend = 0, frame = 0
 1994              		@ frame_needed = 0, uses_anonymous_args = 0
 1995              		.loc 1 303 65 is_stmt 0 view .LVU463
 1996 0000 08B5     		push	{r3, lr}
 1997              	.LCFI54:
 1998              		.cfi_def_cfa_offset 8
 1999              		.cfi_offset 3, -8
 2000              		.cfi_offset 14, -4
 2001 0002 0146     		mov	r1, r0
 304:/home/dat/Documents/colir_one/rocket_code/Module/Src/bno055.c ****   HAL_StatusTypeDef status = bno055_getVector(BNO055_VECTOR_GRAVITY, xyz);
 2002              		.loc 1 304 3 is_stmt 1 view .LVU464
 2003              		.loc 1 304 30 is_stmt 0 view .LVU465
 2004 0004 2E20     		movs	r0, #46
 2005              	.LVL217:
 2006              		.loc 1 304 30 view .LVU466
 2007 0006 FFF7FEFF 		bl	bno055_getVector
 2008              	.LVL218:
 305:/home/dat/Documents/colir_one/rocket_code/Module/Src/bno055.c ****   return status;
 2009              		.loc 1 305 3 is_stmt 1 view .LVU467
 306:/home/dat/Documents/colir_one/rocket_code/Module/Src/bno055.c **** }
 2010              		.loc 1 306 1 is_stmt 0 view .LVU468
 2011 000a 08BD     		pop	{r3, pc}
 2012              		.cfi_endproc
 2013              	.LFE166:
 2015              		.section	.text.bno055_getVectorQuaternion,"ax",%progbits
 2016              		.align	1
 2017              		.global	bno055_getVectorQuaternion
 2018              		.syntax unified
 2019              		.thumb
ARM GAS  /tmp/cclZauEM.s 			page 47


 2020              		.thumb_func
 2022              	bno055_getVectorQuaternion:
 2023              	.LVL219:
 2024              	.LFB167:
 307:/home/dat/Documents/colir_one/rocket_code/Module/Src/bno055.c **** HAL_StatusTypeDef bno055_getVectorQuaternion(bno055_vector_t* xyz) {
 2025              		.loc 1 307 68 is_stmt 1 view -0
 2026              		.cfi_startproc
 2027              		@ args = 0, pretend = 0, frame = 0
 2028              		@ frame_needed = 0, uses_anonymous_args = 0
 2029              		.loc 1 307 68 is_stmt 0 view .LVU470
 2030 0000 08B5     		push	{r3, lr}
 2031              	.LCFI55:
 2032              		.cfi_def_cfa_offset 8
 2033              		.cfi_offset 3, -8
 2034              		.cfi_offset 14, -4
 2035 0002 0146     		mov	r1, r0
 308:/home/dat/Documents/colir_one/rocket_code/Module/Src/bno055.c ****   HAL_StatusTypeDef status = bno055_getVector(BNO055_VECTOR_QUATERNION, xyz);
 2036              		.loc 1 308 3 is_stmt 1 view .LVU471
 2037              		.loc 1 308 30 is_stmt 0 view .LVU472
 2038 0004 2020     		movs	r0, #32
 2039              	.LVL220:
 2040              		.loc 1 308 30 view .LVU473
 2041 0006 FFF7FEFF 		bl	bno055_getVector
 2042              	.LVL221:
 309:/home/dat/Documents/colir_one/rocket_code/Module/Src/bno055.c ****   return status;
 2043              		.loc 1 309 3 is_stmt 1 view .LVU474
 310:/home/dat/Documents/colir_one/rocket_code/Module/Src/bno055.c **** }
 2044              		.loc 1 310 1 is_stmt 0 view .LVU475
 2045 000a 08BD     		pop	{r3, pc}
 2046              		.cfi_endproc
 2047              	.LFE167:
 2049              		.section	.text.bno055_setAxisMap,"ax",%progbits
 2050              		.align	1
 2051              		.global	bno055_setAxisMap
 2052              		.syntax unified
 2053              		.thumb
 2054              		.thumb_func
 2056              	bno055_setAxisMap:
 2057              	.LFB168:
 311:/home/dat/Documents/colir_one/rocket_code/Module/Src/bno055.c **** 
 312:/home/dat/Documents/colir_one/rocket_code/Module/Src/bno055.c **** HAL_StatusTypeDef bno055_setAxisMap(bno055_axis_map_t axis) {
 2058              		.loc 1 312 61 is_stmt 1 view -0
 2059              		.cfi_startproc
 2060              		@ args = 0, pretend = 0, frame = 8
 2061              		@ frame_needed = 0, uses_anonymous_args = 0
 2062 0000 30B5     		push	{r4, r5, lr}
 2063              	.LCFI56:
 2064              		.cfi_def_cfa_offset 12
 2065              		.cfi_offset 4, -12
 2066              		.cfi_offset 5, -8
 2067              		.cfi_offset 14, -4
 2068 0002 83B0     		sub	sp, sp, #12
 2069              	.LCFI57:
 2070              		.cfi_def_cfa_offset 24
 2071 0004 02AB     		add	r3, sp, #8
 2072 0006 03E90300 		stmdb	r3, {r0, r1}
 313:/home/dat/Documents/colir_one/rocket_code/Module/Src/bno055.c ****   HAL_StatusTypeDef status = HAL_OK;
ARM GAS  /tmp/cclZauEM.s 			page 48


 2073              		.loc 1 313 3 view .LVU477
 2074              	.LVL222:
 314:/home/dat/Documents/colir_one/rocket_code/Module/Src/bno055.c ****   uint8_t axisRemap = (axis.z << 4) | (axis.y << 2) | (axis.x);
 2075              		.loc 1 314 3 view .LVU478
 2076              		.loc 1 314 28 is_stmt 0 view .LVU479
 2077 000a 9DF80420 		ldrb	r2, [sp, #4]	@ zero_extendqisi2
 2078              		.loc 1 314 44 view .LVU480
 2079 000e 9DF80230 		ldrb	r3, [sp, #2]	@ zero_extendqisi2
 2080              		.loc 1 314 37 view .LVU481
 2081 0012 9B00     		lsls	r3, r3, #2
 2082 0014 43EA0213 		orr	r3, r3, r2, lsl #4
 2083 0018 5BB2     		sxtb	r3, r3
 2084              		.loc 1 314 60 view .LVU482
 2085 001a 9DF80010 		ldrb	r1, [sp]	@ zero_extendqisi2
 2086              		.loc 1 314 11 view .LVU483
 2087 001e 1943     		orrs	r1, r1, r3
 2088              	.LVL223:
 315:/home/dat/Documents/colir_one/rocket_code/Module/Src/bno055.c ****   uint8_t axisMapSign = (axis.x_sign << 2) | (axis.y_sign << 1) | (axis.z_sign);
 2089              		.loc 1 315 3 is_stmt 1 view .LVU484
 2090              		.loc 1 315 30 is_stmt 0 view .LVU485
 2091 0020 9DF80120 		ldrb	r2, [sp, #1]	@ zero_extendqisi2
 2092              		.loc 1 315 51 view .LVU486
 2093 0024 9DF80330 		ldrb	r3, [sp, #3]	@ zero_extendqisi2
 2094              		.loc 1 315 44 view .LVU487
 2095 0028 5B00     		lsls	r3, r3, #1
 2096 002a 43EA8203 		orr	r3, r3, r2, lsl #2
 2097 002e 5BB2     		sxtb	r3, r3
 2098              		.loc 1 315 72 view .LVU488
 2099 0030 9DF80550 		ldrb	r5, [sp, #5]	@ zero_extendqisi2
 2100              		.loc 1 315 11 view .LVU489
 2101 0034 1D43     		orrs	r5, r5, r3
 2102 0036 EDB2     		uxtb	r5, r5
 2103              	.LVL224:
 316:/home/dat/Documents/colir_one/rocket_code/Module/Src/bno055.c ****   status |= bno055_writeData(BNO055_AXIS_MAP_CONFIG, axisRemap);
 2104              		.loc 1 316 3 is_stmt 1 view .LVU490
 2105              		.loc 1 316 13 is_stmt 0 view .LVU491
 2106 0038 C9B2     		uxtb	r1, r1
 2107              		.loc 1 316 13 view .LVU492
 2108 003a 4120     		movs	r0, #65
 2109 003c FFF7FEFF 		bl	bno055_writeData
 2110              	.LVL225:
 2111              		.loc 1 316 13 view .LVU493
 2112 0040 0446     		mov	r4, r0
 2113              	.LVL226:
 317:/home/dat/Documents/colir_one/rocket_code/Module/Src/bno055.c ****   status |= bno055_writeData(BNO055_AXIS_MAP_SIGN, axisMapSign);
 2114              		.loc 1 317 3 is_stmt 1 view .LVU494
 2115              		.loc 1 317 13 is_stmt 0 view .LVU495
 2116 0042 2946     		mov	r1, r5
 2117 0044 4220     		movs	r0, #66
 2118 0046 FFF7FEFF 		bl	bno055_writeData
 2119              	.LVL227:
 2120              		.loc 1 317 10 discriminator 1 view .LVU496
 2121 004a 2043     		orrs	r0, r0, r4
 2122              	.LVL228:
 318:/home/dat/Documents/colir_one/rocket_code/Module/Src/bno055.c ****   return status;
 2123              		.loc 1 318 3 is_stmt 1 view .LVU497
 319:/home/dat/Documents/colir_one/rocket_code/Module/Src/bno055.c **** }
ARM GAS  /tmp/cclZauEM.s 			page 49


 2124              		.loc 1 319 1 is_stmt 0 view .LVU498
 2125 004c C0B2     		uxtb	r0, r0
 2126              		.loc 1 319 1 view .LVU499
 2127 004e 03B0     		add	sp, sp, #12
 2128              	.LCFI58:
 2129              		.cfi_def_cfa_offset 12
 2130              	.LVL229:
 2131              		.loc 1 319 1 view .LVU500
 2132              		@ sp needed
 2133 0050 30BD     		pop	{r4, r5, pc}
 2134              		.loc 1 319 1 view .LVU501
 2135              		.cfi_endproc
 2136              	.LFE168:
 2138              		.global	_bno055_i2c_port
 2139              		.section	.bss._bno055_i2c_port,"aw",%nobits
 2140              		.align	2
 2143              	_bno055_i2c_port:
 2144 0000 00000000 		.space	4
 2145              		.global	quaScale
 2146              		.section	.data.quaScale,"aw"
 2147              		.align	1
 2150              	quaScale:
 2151 0000 0040     		.short	16384
 2152              		.global	magScale
 2153              		.section	.data.magScale,"aw"
 2154              		.align	1
 2157              	magScale:
 2158 0000 1000     		.short	16
 2159              		.global	eulerScale
 2160              		.section	.data.eulerScale,"aw"
 2161              		.align	1
 2164              	eulerScale:
 2165 0000 1000     		.short	16
 2166              		.global	angularRateScale
 2167              		.section	.data.angularRateScale,"aw"
 2168              		.align	1
 2171              	angularRateScale:
 2172 0000 1000     		.short	16
 2173              		.global	tempScale
 2174              		.section	.data.tempScale,"aw"
 2175              		.align	1
 2178              	tempScale:
 2179 0000 0100     		.short	1
 2180              		.global	accelScale
 2181              		.section	.data.accelScale,"aw"
 2182              		.align	1
 2185              	accelScale:
 2186 0000 6400     		.short	100
 2187              		.text
 2188              	.Letext0:
 2189              		.file 2 "/home/dat/.config/Code/User/globalStorage/litaitech.stm32-colir-one/@xpack-dev-tools/arm-
 2190              		.file 3 "/home/dat/.config/Code/User/globalStorage/litaitech.stm32-colir-one/@xpack-dev-tools/arm-
 2191              		.file 4 "/home/dat/.config/Code/User/globalStorage/litaitech.stm32-colir-one/@xpack-dev-tools/arm-
 2192              		.file 5 "/home/dat/Documents/colir_one/rocket_code/Drivers/CMSIS/Device/ST/STM32F4xx/Include/stm32
 2193              		.file 6 "/home/dat/Documents/colir_one/rocket_code/Drivers/STM32F4xx_HAL_Driver/Inc/stm32f4xx_hal_
 2194              		.file 7 "/home/dat/Documents/colir_one/rocket_code/Drivers/STM32F4xx_HAL_Driver/Inc/stm32f4xx_hal_
 2195              		.file 8 "/home/dat/Documents/colir_one/rocket_code/Drivers/STM32F4xx_HAL_Driver/Inc/stm32f4xx_hal_
ARM GAS  /tmp/cclZauEM.s 			page 50


 2196              		.file 9 "/home/dat/Documents/colir_one/rocket_code/Module/Inc/bno055.h"
 2197              		.file 10 "/home/dat/.config/Code/User/globalStorage/litaitech.stm32-colir-one/@xpack-dev-tools/arm
 2198              		.file 11 "/home/dat/.config/Code/User/globalStorage/litaitech.stm32-colir-one/@xpack-dev-tools/arm
 2199              		.file 12 "/home/dat/Documents/colir_one/rocket_code/Drivers/STM32F4xx_HAL_Driver/Inc/stm32f4xx_hal
ARM GAS  /tmp/cclZauEM.s 			page 51

