ARM GAS  /tmp/cc9fgf7g.s 			page 1


   1              		.cpu cortex-m4
   2              		.arch armv7e-m
   3              		.fpu fpv4-sp-d16
   4              		.eabi_attribute 27, 1
   5              		.eabi_attribute 28, 1
   6              		.eabi_attribute 20, 1
   7              		.eabi_attribute 21, 1
   8              		.eabi_attribute 23, 3
   9              		.eabi_attribute 24, 1
  10              		.eabi_attribute 25, 1
  11              		.eabi_attribute 26, 1
  12              		.eabi_attribute 30, 1
  13              		.eabi_attribute 34, 1
  14              		.eabi_attribute 18, 4
  15              		.file	"redirect.c"
  16              		.text
  17              	.Ltext0:
  18              		.cfi_sections	.debug_frame
  19              		.file 1 "/home/dat/Documents/colir_one/rocket_code/Module/Src/redirect.c"
  20              		.section	.text._write,"ax",%progbits
  21              		.align	1
  22              		.global	_write
  23              		.syntax unified
  24              		.thumb
  25              		.thumb_func
  27              	_write:
  28              	.LVL0:
  29              	.LFB138:
   1:/home/dat/Documents/colir_one/rocket_code/Module/Src/redirect.c **** #include "usbd_cdc_if.h"
   2:/home/dat/Documents/colir_one/rocket_code/Module/Src/redirect.c **** 
   3:/home/dat/Documents/colir_one/rocket_code/Module/Src/redirect.c **** #include APP_CONFIG
   4:/home/dat/Documents/colir_one/rocket_code/Module/Src/redirect.c **** #include "fifo.h"
   5:/home/dat/Documents/colir_one/rocket_code/Module/Src/redirect.c **** #include "usb_com.h"
   6:/home/dat/Documents/colir_one/rocket_code/Module/Src/redirect.c **** #include "uart.h"
   7:/home/dat/Documents/colir_one/rocket_code/Module/Src/redirect.c **** 
   8:/home/dat/Documents/colir_one/rocket_code/Module/Src/redirect.c **** #if DEBUG_LEVEL>0
   9:/home/dat/Documents/colir_one/rocket_code/Module/Src/redirect.c **** 
  10:/home/dat/Documents/colir_one/rocket_code/Module/Src/redirect.c **** // void _putchar(char c)
  11:/home/dat/Documents/colir_one/rocket_code/Module/Src/redirect.c **** // {
  12:/home/dat/Documents/colir_one/rocket_code/Module/Src/redirect.c **** // #if NON_BLOCK_PRINTING
  13:/home/dat/Documents/colir_one/rocket_code/Module/Src/redirect.c **** //     fifo_debug_add(&c);
  14:/home/dat/Documents/colir_one/rocket_code/Module/Src/redirect.c **** // #else
  15:/home/dat/Documents/colir_one/rocket_code/Module/Src/redirect.c **** //     while (! LL_USART_IsActiveFlag_TXE(DEBUG_UART))
  16:/home/dat/Documents/colir_one/rocket_code/Module/Src/redirect.c **** //         ;
  17:/home/dat/Documents/colir_one/rocket_code/Module/Src/redirect.c **** //     LL_USART_TransmitData8(DEBUG_UART,c);
  18:/home/dat/Documents/colir_one/rocket_code/Module/Src/redirect.c **** // #endif
  19:/home/dat/Documents/colir_one/rocket_code/Module/Src/redirect.c **** // }
  20:/home/dat/Documents/colir_one/rocket_code/Module/Src/redirect.c **** 
  21:/home/dat/Documents/colir_one/rocket_code/Module/Src/redirect.c **** 
  22:/home/dat/Documents/colir_one/rocket_code/Module/Src/redirect.c **** int _write (int fd, const void *buf, unsigned long int len)
  23:/home/dat/Documents/colir_one/rocket_code/Module/Src/redirect.c **** {
  30              		.loc 1 23 1 view -0
  31              		.cfi_startproc
  32              		@ args = 0, pretend = 0, frame = 0
  33              		@ frame_needed = 0, uses_anonymous_args = 0
  34              		.loc 1 23 1 is_stmt 0 view .LVU1
  35 0000 38B5     		push	{r3, r4, r5, lr}
ARM GAS  /tmp/cc9fgf7g.s 			page 2


  36              	.LCFI0:
  37              		.cfi_def_cfa_offset 16
  38              		.cfi_offset 3, -16
  39              		.cfi_offset 4, -12
  40              		.cfi_offset 5, -8
  41              		.cfi_offset 14, -4
  42 0002 0C46     		mov	r4, r1
  24:/home/dat/Documents/colir_one/rocket_code/Module/Src/redirect.c ****     uint8_t * data = (uint8_t *) buf;
  43              		.loc 1 24 5 is_stmt 1 view .LVU2
  44              	.LVL1:
  25:/home/dat/Documents/colir_one/rocket_code/Module/Src/redirect.c **** #if DEBUG_LEVEL>0
  26:/home/dat/Documents/colir_one/rocket_code/Module/Src/redirect.c **** 	// static uint8_t logbuf[1000] = {0};
  27:/home/dat/Documents/colir_one/rocket_code/Module/Src/redirect.c **** 	// static int logbuflen = 0;
  28:/home/dat/Documents/colir_one/rocket_code/Module/Src/redirect.c **** 	// if (logbuflen + len > sizeof(logbuf)) {
  29:/home/dat/Documents/colir_one/rocket_code/Module/Src/redirect.c **** 	// 	int mlen = logbuflen + len - sizeof(logbuf);
  30:/home/dat/Documents/colir_one/rocket_code/Module/Src/redirect.c **** 	// 	memmove(logbuf, &logbuf[mlen], sizeof(logbuf) - mlen);
  31:/home/dat/Documents/colir_one/rocket_code/Module/Src/redirect.c **** 	// 	logbuflen -= mlen;
  32:/home/dat/Documents/colir_one/rocket_code/Module/Src/redirect.c **** 	// }
  33:/home/dat/Documents/colir_one/rocket_code/Module/Src/redirect.c **** 	// memcpy(&logbuf[logbuflen], data, len);
  34:/home/dat/Documents/colir_one/rocket_code/Module/Src/redirect.c **** 	// logbuflen += len;
  35:/home/dat/Documents/colir_one/rocket_code/Module/Src/redirect.c **** 
  36:/home/dat/Documents/colir_one/rocket_code/Module/Src/redirect.c **** 	// Send out USB serial
  37:/home/dat/Documents/colir_one/rocket_code/Module/Src/redirect.c **** 	usb_transmit(data, len);
  45              		.loc 1 37 2 view .LVU3
  46 0004 95B2     		uxth	r5, r2
  47 0006 2946     		mov	r1, r5
  48              	.LVL2:
  49              		.loc 1 37 2 is_stmt 0 view .LVU4
  50 0008 2046     		mov	r0, r4
  51              	.LVL3:
  52              		.loc 1 37 2 view .LVU5
  53 000a FFF7FEFF 		bl	usb_transmit
  54              	.LVL4:
  38:/home/dat/Documents/colir_one/rocket_code/Module/Src/redirect.c **** 	// if (res == USBD_OK)
  39:/home/dat/Documents/colir_one/rocket_code/Module/Src/redirect.c **** 	// 	logbuflen = 0;
  40:/home/dat/Documents/colir_one/rocket_code/Module/Src/redirect.c **** #endif
  41:/home/dat/Documents/colir_one/rocket_code/Module/Src/redirect.c **** #ifdef ENABLE_SERIAL_PRINTING
  42:/home/dat/Documents/colir_one/rocket_code/Module/Src/redirect.c ****     // Send out UART serial
  43:/home/dat/Documents/colir_one/rocket_code/Module/Src/redirect.c ****     // while(len--)
  44:/home/dat/Documents/colir_one/rocket_code/Module/Src/redirect.c ****     // {
  45:/home/dat/Documents/colir_one/rocket_code/Module/Src/redirect.c ****     //     _putchar(*data++);
  46:/home/dat/Documents/colir_one/rocket_code/Module/Src/redirect.c ****     // }
  47:/home/dat/Documents/colir_one/rocket_code/Module/Src/redirect.c ****     uart1_transmit(data, len, 1000);
  55              		.loc 1 47 5 is_stmt 1 view .LVU6
  56 000e 4FF47A72 		mov	r2, #1000
  57 0012 2946     		mov	r1, r5
  58 0014 2046     		mov	r0, r4
  59 0016 FFF7FEFF 		bl	uart1_transmit
  60              	.LVL5:
  48:/home/dat/Documents/colir_one/rocket_code/Module/Src/redirect.c **** #endif
  49:/home/dat/Documents/colir_one/rocket_code/Module/Src/redirect.c ****     return 0;
  61              		.loc 1 49 5 view .LVU7
  50:/home/dat/Documents/colir_one/rocket_code/Module/Src/redirect.c **** }
  62              		.loc 1 50 1 is_stmt 0 view .LVU8
  63 001a 0020     		movs	r0, #0
  64 001c 38BD     		pop	{r3, r4, r5, pc}
  65              		.loc 1 50 1 view .LVU9
ARM GAS  /tmp/cc9fgf7g.s 			page 3


  66              		.cfi_endproc
  67              	.LFE138:
  69              		.text
  70              	.Letext0:
  71              		.file 2 "/home/dat/.config/Code/User/globalStorage/litaitech.stm32-colir-one/@xpack-dev-tools/arm-
  72              		.file 3 "/home/dat/.config/Code/User/globalStorage/litaitech.stm32-colir-one/@xpack-dev-tools/arm-
  73              		.file 4 "/home/dat/Documents/colir_one/rocket_code/Module/Inc/uart.h"
  74              		.file 5 "/home/dat/Documents/colir_one/rocket_code/Module/Inc/usb_com.h"
ARM GAS  /tmp/cc9fgf7g.s 			page 4

